

Microchip MPLAB XC8 Assembler V2.10 build 88905656 
                                                                                               Mon Feb 10 10:59:55 2020

Microchip MPLAB XC8 C Compiler v2.10 (Free license) build 20190730164152 Og1 
     1                           	processor	16F887
     2                           	opt	pw 120
     3                           	opt	flic
     4                           	psect	idataBANK0,global,class=CODE,delta=2
     5                           	psect	strings,global,class=STRING,delta=2
     6                           	psect	cinit,global,class=CODE,merge=1,delta=2
     7                           	psect	bssBANK0,global,class=BANK0,space=1,delta=1
     8                           	psect	dataBANK0,global,class=BANK0,space=1,delta=1
     9                           	psect	bssBANK1,global,class=BANK1,space=1,delta=1
    10                           	psect	clrtext,global,class=CODE,delta=2
    11                           	psect	cstackBANK1,global,class=BANK1,space=1,delta=1
    12                           	psect	cstackCOMMON,global,class=COMMON,space=1,delta=1
    13                           	psect	cstackBANK0,global,class=BANK0,space=1,delta=1
    14                           	psect	maintext,global,class=CODE,split=1,delta=2
    15                           	psect	text1,local,class=CODE,merge=1,delta=2
    16                           	psect	text2,local,class=CODE,merge=1,delta=2
    17                           	psect	text3,local,class=CODE,merge=1,delta=2,group=1
    18                           	psect	text4,local,class=CODE,merge=1,delta=2
    19                           	psect	text5,local,class=CODE,merge=1,delta=2
    20                           	psect	text6,local,class=CODE,merge=1,delta=2,group=1
    21                           	psect	text7,local,class=CODE,merge=1,delta=2,group=1
    22                           	psect	text8,local,class=CODE,merge=1,delta=2,group=1
    23                           	psect	text9,local,class=CODE,merge=1,delta=2,group=1
    24                           	psect	text10,local,class=CODE,merge=1,delta=2,group=1
    25                           	psect	text11,local,class=CODE,merge=1,delta=2,group=1
    26                           	psect	text12,local,class=CODE,merge=1,delta=2,group=1
    27                           	psect	text13,local,class=CODE,merge=1,delta=2
    28                           	psect	text14,local,class=CODE,merge=1,delta=2
    29                           	psect	text15,local,class=CODE,merge=1,delta=2,group=1
    30                           	psect	text16,local,class=CODE,merge=1,delta=2
    31                           	psect	text17,local,class=CODE,merge=1,delta=2
    32                           	psect	text18,local,class=CODE,merge=1,delta=2
    33                           	psect	text19,local,class=CODE,merge=1,delta=2
    34                           	psect	text20,local,class=CODE,merge=1,delta=2
    35                           	psect	text21,local,class=CODE,merge=1,delta=2
    36                           	psect	text22,local,class=CODE,merge=1,delta=2
    37                           	dabs	1,0x7E,2
    38  0000                     
    39                           ; Version 2.10
    40                           ; Generated 31/07/2019 GMT
    41                           ; 
    42                           ; Copyright © 2019, Microchip Technology Inc. and its subsidiaries ("Microchip")
    43                           ; All rights reserved.
    44                           ; 
    45                           ; This software is developed by Microchip Technology Inc. and its subsidiaries ("Microch
      +                          ip").
    46                           ; 
    47                           ; Redistribution and use in source and binary forms, with or without modification, are
    48                           ; permitted provided that the following conditions are met:
    49                           ; 
    50                           ;     1. Redistributions of source code must retain the above copyright notice, this lis
      +                          t of
    51                           ;        conditions and the following disclaimer.
    52                           ; 
    53                           ;     2. Redistributions in binary form must reproduce the above copyright notice, this 
      +                          list
    54                           ;        of conditions and the following disclaimer in the documentation and/or other
    55                           ;        materials provided with the distribution.
    56                           ; 
    57                           ;     3. Microchip's name may not be used to endorse or promote products derived from th
      +                          is
    58                           ;        software without specific prior written permission.
    59                           ; 
    60                           ; THIS SOFTWARE IS PROVIDED BY MICROCHIP "AS IS" AND ANY EXPRESS OR IMPLIED WARRANTIES,
    61                           ; INCLUDING, BUT NOT LIMITED TO, THE IMPLIED WARRANTIES OF MERCHANTABILITY AND FITNESS F
      +                          OR
    62                           ; PURPOSE ARE DISCLAIMED.  IN NO EVENT SHALL MICROCHIP BE LIABLE FOR ANY DIRECT, INDIREC
      +                          T,
    63                           ; INCIDENTAL, SPECIAL, EXEMPLARY, OR CONSEQUENTIAL DAMAGES (INCLUDING BUT NOT LIMITED TO
    64                           ; PROCUREMENT OF SUBSTITUTE GOODS OR SERVICES; LOSS OF USE, DATA OR PROFITS; OR BUSINESS
    65                           ; INTERRUPTION) HOWSOEVER CAUSED AND ON ANY THEORY OF LIABILITY, WHETHER IN CONTRACT, ST
      +                          RICT
    66                           ; LIABILITY, OR TORT (INCLUDING NEGLIGENCE OR OTHERWISE) ARISING IN ANY WAY OUT OF THE U
      +                          SE OF
    67                           ; THIS SOFTWARE, EVEN IF ADVISED OF THE POSSIBILITY OF SUCH DAMAGE.
    68                           ; 
    69                           ; 
    70                           ; Code-generator required, PIC16F887 Definitions
    71                           ; 
    72                           ; SFR Addresses
    73  0000                     	;# 
    74  0001                     	;# 
    75  0002                     	;# 
    76  0003                     	;# 
    77  0004                     	;# 
    78  0005                     	;# 
    79  0006                     	;# 
    80  0007                     	;# 
    81  0008                     	;# 
    82  0009                     	;# 
    83  000A                     	;# 
    84  000B                     	;# 
    85  000C                     	;# 
    86  000D                     	;# 
    87  000E                     	;# 
    88  000E                     	;# 
    89  000F                     	;# 
    90  0010                     	;# 
    91  0011                     	;# 
    92  0012                     	;# 
    93  0013                     	;# 
    94  0014                     	;# 
    95  0015                     	;# 
    96  0015                     	;# 
    97  0016                     	;# 
    98  0017                     	;# 
    99  0018                     	;# 
   100  0019                     	;# 
   101  001A                     	;# 
   102  001B                     	;# 
   103  001B                     	;# 
   104  001C                     	;# 
   105  001D                     	;# 
   106  001E                     	;# 
   107  001F                     	;# 
   108  0081                     	;# 
   109  0085                     	;# 
   110  0086                     	;# 
   111  0087                     	;# 
   112  0088                     	;# 
   113  0089                     	;# 
   114  008C                     	;# 
   115  008D                     	;# 
   116  008E                     	;# 
   117  008F                     	;# 
   118  0090                     	;# 
   119  0091                     	;# 
   120  0092                     	;# 
   121  0093                     	;# 
   122  0093                     	;# 
   123  0093                     	;# 
   124  0094                     	;# 
   125  0095                     	;# 
   126  0096                     	;# 
   127  0097                     	;# 
   128  0098                     	;# 
   129  0099                     	;# 
   130  009A                     	;# 
   131  009B                     	;# 
   132  009C                     	;# 
   133  009D                     	;# 
   134  009E                     	;# 
   135  009F                     	;# 
   136  0105                     	;# 
   137  0107                     	;# 
   138  0108                     	;# 
   139  0109                     	;# 
   140  010C                     	;# 
   141  010C                     	;# 
   142  010D                     	;# 
   143  010E                     	;# 
   144  010F                     	;# 
   145  0185                     	;# 
   146  0187                     	;# 
   147  0188                     	;# 
   148  0189                     	;# 
   149  018C                     	;# 
   150  018D                     	;# 
   151  0000                     	;# 
   152  0001                     	;# 
   153  0002                     	;# 
   154  0003                     	;# 
   155  0004                     	;# 
   156  0005                     	;# 
   157  0006                     	;# 
   158  0007                     	;# 
   159  0008                     	;# 
   160  0009                     	;# 
   161  000A                     	;# 
   162  000B                     	;# 
   163  000C                     	;# 
   164  000D                     	;# 
   165  000E                     	;# 
   166  000E                     	;# 
   167  000F                     	;# 
   168  0010                     	;# 
   169  0011                     	;# 
   170  0012                     	;# 
   171  0013                     	;# 
   172  0014                     	;# 
   173  0015                     	;# 
   174  0015                     	;# 
   175  0016                     	;# 
   176  0017                     	;# 
   177  0018                     	;# 
   178  0019                     	;# 
   179  001A                     	;# 
   180  001B                     	;# 
   181  001B                     	;# 
   182  001C                     	;# 
   183  001D                     	;# 
   184  001E                     	;# 
   185  001F                     	;# 
   186  0081                     	;# 
   187  0085                     	;# 
   188  0086                     	;# 
   189  0087                     	;# 
   190  0088                     	;# 
   191  0089                     	;# 
   192  008C                     	;# 
   193  008D                     	;# 
   194  008E                     	;# 
   195  008F                     	;# 
   196  0090                     	;# 
   197  0091                     	;# 
   198  0092                     	;# 
   199  0093                     	;# 
   200  0093                     	;# 
   201  0093                     	;# 
   202  0094                     	;# 
   203  0095                     	;# 
   204  0096                     	;# 
   205  0097                     	;# 
   206  0098                     	;# 
   207  0099                     	;# 
   208  009A                     	;# 
   209  009B                     	;# 
   210  009C                     	;# 
   211  009D                     	;# 
   212  009E                     	;# 
   213  009F                     	;# 
   214  0105                     	;# 
   215  0107                     	;# 
   216  0108                     	;# 
   217  0109                     	;# 
   218  010C                     	;# 
   219  010C                     	;# 
   220  010D                     	;# 
   221  010E                     	;# 
   222  010F                     	;# 
   223  0185                     	;# 
   224  0187                     	;# 
   225  0188                     	;# 
   226  0189                     	;# 
   227  018C                     	;# 
   228  018D                     	;# 
   229  0000                     	;# 
   230  0001                     	;# 
   231  0002                     	;# 
   232  0003                     	;# 
   233  0004                     	;# 
   234  0005                     	;# 
   235  0006                     	;# 
   236  0007                     	;# 
   237  0008                     	;# 
   238  0009                     	;# 
   239  000A                     	;# 
   240  000B                     	;# 
   241  000C                     	;# 
   242  000D                     	;# 
   243  000E                     	;# 
   244  000E                     	;# 
   245  000F                     	;# 
   246  0010                     	;# 
   247  0011                     	;# 
   248  0012                     	;# 
   249  0013                     	;# 
   250  0014                     	;# 
   251  0015                     	;# 
   252  0015                     	;# 
   253  0016                     	;# 
   254  0017                     	;# 
   255  0018                     	;# 
   256  0019                     	;# 
   257  001A                     	;# 
   258  001B                     	;# 
   259  001B                     	;# 
   260  001C                     	;# 
   261  001D                     	;# 
   262  001E                     	;# 
   263  001F                     	;# 
   264  0081                     	;# 
   265  0085                     	;# 
   266  0086                     	;# 
   267  0087                     	;# 
   268  0088                     	;# 
   269  0089                     	;# 
   270  008C                     	;# 
   271  008D                     	;# 
   272  008E                     	;# 
   273  008F                     	;# 
   274  0090                     	;# 
   275  0091                     	;# 
   276  0092                     	;# 
   277  0093                     	;# 
   278  0093                     	;# 
   279  0093                     	;# 
   280  0094                     	;# 
   281  0095                     	;# 
   282  0096                     	;# 
   283  0097                     	;# 
   284  0098                     	;# 
   285  0099                     	;# 
   286  009A                     	;# 
   287  009B                     	;# 
   288  009C                     	;# 
   289  009D                     	;# 
   290  009E                     	;# 
   291  009F                     	;# 
   292  0105                     	;# 
   293  0107                     	;# 
   294  0108                     	;# 
   295  0109                     	;# 
   296  010C                     	;# 
   297  010C                     	;# 
   298  010D                     	;# 
   299  010E                     	;# 
   300  010F                     	;# 
   301  0185                     	;# 
   302  0187                     	;# 
   303  0188                     	;# 
   304  0189                     	;# 
   305  018C                     	;# 
   306  018D                     	;# 
   307  0000                     	;# 
   308  0001                     	;# 
   309  0002                     	;# 
   310  0003                     	;# 
   311  0004                     	;# 
   312  0005                     	;# 
   313  0006                     	;# 
   314  0007                     	;# 
   315  0008                     	;# 
   316  0009                     	;# 
   317  000A                     	;# 
   318  000B                     	;# 
   319  000C                     	;# 
   320  000D                     	;# 
   321  000E                     	;# 
   322  000E                     	;# 
   323  000F                     	;# 
   324  0010                     	;# 
   325  0011                     	;# 
   326  0012                     	;# 
   327  0013                     	;# 
   328  0014                     	;# 
   329  0015                     	;# 
   330  0015                     	;# 
   331  0016                     	;# 
   332  0017                     	;# 
   333  0018                     	;# 
   334  0019                     	;# 
   335  001A                     	;# 
   336  001B                     	;# 
   337  001B                     	;# 
   338  001C                     	;# 
   339  001D                     	;# 
   340  001E                     	;# 
   341  001F                     	;# 
   342  0081                     	;# 
   343  0085                     	;# 
   344  0086                     	;# 
   345  0087                     	;# 
   346  0088                     	;# 
   347  0089                     	;# 
   348  008C                     	;# 
   349  008D                     	;# 
   350  008E                     	;# 
   351  008F                     	;# 
   352  0090                     	;# 
   353  0091                     	;# 
   354  0092                     	;# 
   355  0093                     	;# 
   356  0093                     	;# 
   357  0093                     	;# 
   358  0094                     	;# 
   359  0095                     	;# 
   360  0096                     	;# 
   361  0097                     	;# 
   362  0098                     	;# 
   363  0099                     	;# 
   364  009A                     	;# 
   365  009B                     	;# 
   366  009C                     	;# 
   367  009D                     	;# 
   368  009E                     	;# 
   369  009F                     	;# 
   370  0105                     	;# 
   371  0107                     	;# 
   372  0108                     	;# 
   373  0109                     	;# 
   374  010C                     	;# 
   375  010C                     	;# 
   376  010D                     	;# 
   377  010E                     	;# 
   378  010F                     	;# 
   379  0185                     	;# 
   380  0187                     	;# 
   381  0188                     	;# 
   382  0189                     	;# 
   383  018C                     	;# 
   384  018D                     	;# 
   385  0000                     	;# 
   386  0001                     	;# 
   387  0002                     	;# 
   388  0003                     	;# 
   389  0004                     	;# 
   390  0005                     	;# 
   391  0006                     	;# 
   392  0007                     	;# 
   393  0008                     	;# 
   394  0009                     	;# 
   395  000A                     	;# 
   396  000B                     	;# 
   397  000C                     	;# 
   398  000D                     	;# 
   399  000E                     	;# 
   400  000E                     	;# 
   401  000F                     	;# 
   402  0010                     	;# 
   403  0011                     	;# 
   404  0012                     	;# 
   405  0013                     	;# 
   406  0014                     	;# 
   407  0015                     	;# 
   408  0015                     	;# 
   409  0016                     	;# 
   410  0017                     	;# 
   411  0018                     	;# 
   412  0019                     	;# 
   413  001A                     	;# 
   414  001B                     	;# 
   415  001B                     	;# 
   416  001C                     	;# 
   417  001D                     	;# 
   418  001E                     	;# 
   419  001F                     	;# 
   420  0081                     	;# 
   421  0085                     	;# 
   422  0086                     	;# 
   423  0087                     	;# 
   424  0088                     	;# 
   425  0089                     	;# 
   426  008C                     	;# 
   427  008D                     	;# 
   428  008E                     	;# 
   429  008F                     	;# 
   430  0090                     	;# 
   431  0091                     	;# 
   432  0092                     	;# 
   433  0093                     	;# 
   434  0093                     	;# 
   435  0093                     	;# 
   436  0094                     	;# 
   437  0095                     	;# 
   438  0096                     	;# 
   439  0097                     	;# 
   440  0098                     	;# 
   441  0099                     	;# 
   442  009A                     	;# 
   443  009B                     	;# 
   444  009C                     	;# 
   445  009D                     	;# 
   446  009E                     	;# 
   447  009F                     	;# 
   448  0105                     	;# 
   449  0107                     	;# 
   450  0108                     	;# 
   451  0109                     	;# 
   452  010C                     	;# 
   453  010C                     	;# 
   454  010D                     	;# 
   455  010E                     	;# 
   456  010F                     	;# 
   457  0185                     	;# 
   458  0187                     	;# 
   459  0188                     	;# 
   460  0189                     	;# 
   461  018C                     	;# 
   462  018D                     	;# 
   463                           
   464                           	psect	idataBANK0
   465  000D                     __pidataBANK0:	
   466                           
   467                           ;initializer for _cont
   468  000D  347B               	retlw	123
   469  001A                     _RCREG	set	26
   470  0019                     _TXREG	set	25
   471  001E                     _ADRESH	set	30
   472  000B                     _INTCONbits	set	11
   473  000C                     _PIR1bits	set	12
   474  001F                     _ADCON0bits	set	31
   475  0065                     _RCIF	set	101
   476  00C4                     _CREN	set	196
   477  00C7                     _SPEN	set	199
   478  0038                     _RC0	set	56
   479  0039                     _RC1	set	57
   480  002F                     _RA7	set	47
   481  002E                     _RA6	set	46
   482  002D                     _RA5	set	45
   483  002C                     _RA4	set	44
   484  002B                     _RA3	set	43
   485  002A                     _RA2	set	42
   486  0029                     _RA1	set	41
   487  0028                     _RA0	set	40
   488  0099                     _SPBRG	set	153
   489  0087                     _TRISC	set	135
   490  0086                     _TRISB	set	134
   491  0085                     _TRISA	set	133
   492  009E                     _ADRESL	set	158
   493  008C                     _PIE1bits	set	140
   494  0086                     _TRISBbits	set	134
   495  0089                     _TRISEbits	set	137
   496  0085                     _TRISAbits	set	133
   497  009F                     _ADCON1bits	set	159
   498  04C1                     _TRMT	set	1217
   499  04C5                     _TXEN	set	1221
   500  043E                     _TRISC6	set	1086
   501  043F                     _TRISC7	set	1087
   502  04C4                     _SYNC	set	1220
   503  04C2                     _BRGH	set	1218
   504  0188                     _ANSEL	set	392
   505  0189                     _ANSELH	set	393
   506  0189                     _ANSELHbits	set	393
   507  0188                     _ANSELbits	set	392
   508                           
   509                           	psect	strings
   510  1000                     __pstrings:	
   511  1000                     stringtab:	
   512  1000                     __stringtab:	
   513                           
   514                           ;	String table - string pointers are 1 byte each
   515  1000  1BFF               	btfsc	btemp+1,7
   516  1001  280A               	ljmp	stringcode
   517  1002  1383               	bcf	3,7
   518  1003  187F               	btfsc	btemp+1,0
   519  1004  1783               	bsf	3,7
   520  1005  0800               	movf	0,w
   521  1006  0A84               	incf	4,f
   522  1007  1903               	skipnz
   523  1008  0AFF               	incf	btemp+1,f
   524  1009  0008               	return
   525  100A                     stringcode:	
   526  100A                     stringdir:	
   527  100A  3010               	movlw	high stringdir
   528  100B  008A               	movwf	10
   529  100C  0804               	movf	4,w
   530  100D  0A84               	incf	4,f
   531  100E  0782               	addwf	2,f
   532  100F                     __stringbase:	
   533  100F  3400               	retlw	0
   534  1010                     __end_of__stringtab:	
   535  1010                     STR_1:	
   536  1010  3450               	retlw	80	;'P'
   537  1011  3431               	retlw	49	;'1'
   538  1012  343A               	retlw	58	;':'
   539  1013  3400               	retlw	0
   540  1014                     STR_2:	
   541  1014  3450               	retlw	80	;'P'
   542  1015  3432               	retlw	50	;'2'
   543  1016  343A               	retlw	58	;':'
   544  1017  3400               	retlw	0
   545  1018                     STR_3:	
   546  1018  3450               	retlw	80	;'P'
   547  1019  3433               	retlw	51	;'3'
   548  101A  343A               	retlw	58	;':'
   549  101B  3400               	retlw	0
   550                           
   551                           ; #config settings
   552  0000                     
   553                           	psect	cinit
   554  07EC                     start_initialization:	
   555  07EC                     __initialization:	
   556                           
   557                           ; Initialize objects allocated to BANK0
   558  07EC  120A  118A  200D  120A  118A  	fcall	__pidataBANK0	;fetch initializer
   559  07F1  00EC               	movwf	__pdataBANK0& (0+127)
   560                           
   561                           ; Clear objects allocated to BANK1
   562  07F2  1383               	bcf	3,7	;select IRP bank0
   563  07F3  30A0               	movlw	low __pbssBANK1
   564  07F4  0084               	movwf	4
   565  07F5  30BC               	movlw	low (__pbssBANK1+28)
   566  07F6  120A  118A  200E  120A  118A  	fcall	clear_ram0
   567                           
   568                           ; Clear objects allocated to BANK0
   569  07FB  01EB               	clrf	__pbssBANK0& (0+127)
   570  07FC                     end_of_initialization:	
   571                           ;End of C runtime variable initialization code
   572                           
   573  07FC                     __end_of__initialization:	
   574  07FC  0183               	clrf	3
   575  07FD  120A  158A  2D83   	ljmp	_main	;jump to C main() function
   576                           
   577                           	psect	bssBANK0
   578  006B                     __pbssBANK0:	
   579  006B                     _entrada:	
   580  006B                     	ds	1
   581                           
   582                           	psect	dataBANK0
   583  006C                     __pdataBANK0:	
   584  006C                     _cont:	
   585  006C                     	ds	1
   586                           
   587                           	psect	bssBANK1
   588  00A0                     __pbssBANK1:	
   589  00A0                     main@F1528:	
   590  00A0                     	ds	5
   591  00A5                     main@F1526:	
   592  00A5                     	ds	5
   593  00AA                     main@F1530:	
   594  00AA                     	ds	4
   595  00AE                     _contm:	
   596  00AE                     	ds	4
   597  00B2                     _adc22:	
   598  00B2                     	ds	4
   599  00B6                     _adc11:	
   600  00B6                     	ds	4
   601  00BA                     _adc2:	
   602  00BA                     	ds	1
   603  00BB                     _adc1:	
   604  00BB                     	ds	1
   605                           
   606                           	psect	clrtext
   607  000E                     clear_ram0:	
   608                           ;	Called with FSR containing the base address, and
   609                           ;	W with the last address+1
   610                           
   611  000E  0064               	clrwdt	;clear the watchdog before getting into this loop
   612  000F                     clrloop0:	
   613  000F  0180               	clrf	0	;clear RAM location pointed to by FSR
   614  0010  0A84               	incf	4,f	;increment pointer
   615  0011  0604               	xorwf	4,w	;XOR with final address
   616  0012  1903               	btfsc	3,2	;have we reached the end yet?
   617  0013  3400               	retlw	0	;all done for this memory range, return
   618  0014  0604               	xorwf	4,w	;XOR again to restore value
   619  0015  280F               	goto	clrloop0	;do the next byte
   620                           
   621                           	psect	cstackBANK1
   622  00BC                     __pcstackBANK1:	
   623  00BC                     main@s3:	
   624                           
   625                           ; 4 bytes @ 0x0
   626  00BC                     	ds	4
   627  00C0                     main@s1:	
   628                           
   629                           ; 5 bytes @ 0x4
   630  00C0                     	ds	5
   631  00C5                     main@s2:	
   632                           
   633                           ; 5 bytes @ 0x9
   634  00C5                     	ds	5
   635                           
   636                           	psect	cstackCOMMON
   637  0070                     __pcstackCOMMON:	
   638  0070                     ?_UART_Write:	
   639  0070                     ??_UART_Write:	
   640                           ; 1 bytes @ 0x0
   641                           
   642  0070                     ?_num_case:	
   643                           ; 1 bytes @ 0x0
   644                           
   645  0070                     ??_num_case:	
   646                           ; 1 bytes @ 0x0
   647                           
   648  0070                     ?_Lcd_Port:	
   649                           ; 1 bytes @ 0x0
   650                           
   651  0070                     ??_Lcd_Port:	
   652                           ; 1 bytes @ 0x0
   653                           
   654  0070                     ?_Lcd_Cmd:	
   655                           ; 1 bytes @ 0x0
   656                           
   657  0070                     ?_Lcd_Init:	
   658                           ; 1 bytes @ 0x0
   659                           
   660  0070                     ?_Lcd_Write_Char:	
   661                           ; 1 bytes @ 0x0
   662                           
   663  0070                     ?_ADC_CONFIG:	
   664                           ; 1 bytes @ 0x0
   665                           
   666  0070                     ?_main:	
   667                           ; 1 bytes @ 0x0
   668                           
   669  0070                     ?___bmul:	
   670                           ; 1 bytes @ 0x0
   671                           
   672  0070                     ?__Umul8_16:	
   673                           ; 1 bytes @ 0x0
   674                           
   675  0070                     ?___aldiv:	
   676                           ; 2 bytes @ 0x0
   677                           
   678  0070                     ?___fladd:	
   679                           ; 4 bytes @ 0x0
   680                           
   681  0070                     ?___xxtofl:	
   682                           ; 4 bytes @ 0x0
   683                           
   684  0070                     Lcd_Port@a:	
   685                           ; 4 bytes @ 0x0
   686                           
   687  0070                     ADC_CONFIG@justif:	
   688                           ; 1 bytes @ 0x0
   689                           
   690  0070                     ___bmul@multiplicand:	
   691                           ; 1 bytes @ 0x0
   692                           
   693  0070                     __Umul8_16@multiplicand:	
   694                           ; 1 bytes @ 0x0
   695                           
   696  0070                     ___aldiv@divisor:	
   697                           ; 1 bytes @ 0x0
   698                           
   699  0070                     ___fladd@b:	
   700                           ; 4 bytes @ 0x0
   701                           
   702  0070                     ___xxtofl@val:	
   703                           ; 4 bytes @ 0x0
   704                           
   705                           
   706                           ; 4 bytes @ 0x0
   707  0070                     	ds	1
   708  0071                     ??_Lcd_Cmd:	
   709  0071                     ??_Lcd_Write_Char:	
   710                           ; 1 bytes @ 0x1
   711                           
   712  0071                     ??_ADC_CONFIG:	
   713                           ; 1 bytes @ 0x1
   714                           
   715  0071                     ??___bmul:	
   716                           ; 1 bytes @ 0x1
   717                           
   718                           
   719                           ; 1 bytes @ 0x1
   720  0071                     	ds	1
   721  0072                     ??__Umul8_16:	
   722  0072                     Lcd_Write_Char@a:	
   723                           ; 1 bytes @ 0x2
   724                           
   725  0072                     num_case@num:	
   726                           ; 1 bytes @ 0x2
   727                           
   728  0072                     UART_Write@data:	
   729                           ; 1 bytes @ 0x2
   730                           
   731  0072                     ___bmul@product:	
   732                           ; 1 bytes @ 0x2
   733                           
   734                           
   735                           ; 1 bytes @ 0x2
   736  0072                     	ds	1
   737  0073                     ?_Lcd_Write_String:	
   738  0073                     Lcd_Cmd@a:	
   739                           ; 1 bytes @ 0x3
   740                           
   741  0073                     ADC_CONFIG@canal:	
   742                           ; 1 bytes @ 0x3
   743                           
   744  0073                     num_case@r:	
   745                           ; 1 bytes @ 0x3
   746                           
   747  0073                     ___bmul@multiplier:	
   748                           ; 1 bytes @ 0x3
   749                           
   750  0073                     Lcd_Write_String@a:	
   751                           ; 1 bytes @ 0x3
   752                           
   753                           
   754                           ; 2 bytes @ 0x3
   755  0073                     	ds	1
   756  0074                     ?_Lcd_Set_Cursor:	
   757  0074                     ??_Lcd_Init:	
   758                           ; 1 bytes @ 0x4
   759                           
   760  0074                     ??___xxtofl:	
   761                           ; 1 bytes @ 0x4
   762                           
   763  0074                     Lcd_Set_Cursor@b:	
   764                           ; 1 bytes @ 0x4
   765                           
   766  0074                     __Umul8_16@product:	
   767                           ; 1 bytes @ 0x4
   768                           
   769  0074                     ___aldiv@dividend:	
   770                           ; 2 bytes @ 0x4
   771                           
   772  0074                     ___fladd@a:	
   773                           ; 4 bytes @ 0x4
   774                           
   775                           
   776                           ; 4 bytes @ 0x4
   777  0074                     	ds	1
   778  0075                     ??_Lcd_Set_Cursor:	
   779  0075                     ??_Lcd_Write_String:	
   780                           ; 1 bytes @ 0x5
   781                           
   782  0075                     Lcd_Set_Cursor@a:	
   783                           ; 1 bytes @ 0x5
   784                           
   785                           
   786                           ; 1 bytes @ 0x5
   787  0075                     	ds	1
   788  0076                     __Umul8_16@word_mpld:	
   789                           
   790                           ; 2 bytes @ 0x6
   791  0076                     	ds	2
   792  0078                     ??___aldiv:	
   793  0078                     ___fladd@signs:	
   794                           ; 1 bytes @ 0x8
   795                           
   796  0078                     ___xxtofl@sign:	
   797                           ; 1 bytes @ 0x8
   798                           
   799  0078                     __Umul8_16@multiplier:	
   800                           ; 1 bytes @ 0x8
   801                           
   802  0078                     Lcd_Write_String@i:	
   803                           ; 1 bytes @ 0x8
   804                           
   805                           
   806                           ; 2 bytes @ 0x8
   807  0078                     	ds	1
   808  0079                     ___fladd@aexp:	
   809  0079                     ___xxtofl@exp:	
   810                           ; 1 bytes @ 0x9
   811                           
   812  0079                     UART_Init@x:	
   813                           ; 1 bytes @ 0x9
   814                           
   815                           
   816                           ; 2 bytes @ 0x9
   817  0079                     	ds	1
   818  007A                     ___fladd@bexp:	
   819  007A                     ___xxtofl@arg:	
   820                           ; 1 bytes @ 0xA
   821                           
   822                           
   823                           ; 4 bytes @ 0xA
   824  007A                     	ds	1
   825  007B                     ___fladd@grs:	
   826                           
   827                           ; 1 bytes @ 0xB
   828  007B                     	ds	3
   829  007E                     ??___flsub:	
   830                           
   831                           	psect	cstackBANK0
   832  0020                     __pcstackBANK0:	
   833                           ; 1 bytes @ 0xE
   834                           
   835  0020                     ??___fladd:	
   836  0020                     ?___fldiv:	
   837                           ; 1 bytes @ 0x0
   838                           
   839  0020                     ___aldiv@counter:	
   840                           ; 4 bytes @ 0x0
   841                           
   842  0020                     ___fldiv@a:	
   843                           ; 1 bytes @ 0x0
   844                           
   845                           
   846                           ; 4 bytes @ 0x0
   847  0020                     	ds	1
   848  0021                     ___aldiv@sign:	
   849                           
   850                           ; 1 bytes @ 0x1
   851  0021                     	ds	1
   852  0022                     ___aldiv@quotient:	
   853                           
   854                           ; 4 bytes @ 0x2
   855  0022                     	ds	2
   856  0024                     ___fldiv@b:	
   857                           
   858                           ; 4 bytes @ 0x4
   859  0024                     	ds	2
   860  0026                     ?_UART_Init:	
   861  0026                     UART_Init@baudrate:	
   862                           ; 1 bytes @ 0x6
   863                           
   864                           
   865                           ; 4 bytes @ 0x6
   866  0026                     	ds	2
   867  0028                     ??___fldiv:	
   868  0028                     ?___flsub:	
   869                           ; 1 bytes @ 0x8
   870                           
   871  0028                     ___flsub@a:	
   872                           ; 4 bytes @ 0x8
   873                           
   874                           
   875                           ; 4 bytes @ 0x8
   876  0028                     	ds	2
   877  002A                     ??_UART_Init:	
   878                           
   879                           ; 1 bytes @ 0xA
   880  002A                     	ds	2
   881  002C                     ___flsub@b:	
   882                           
   883                           ; 4 bytes @ 0xC
   884  002C                     	ds	1
   885  002D                     ___fldiv@rem:	
   886                           
   887                           ; 4 bytes @ 0xD
   888  002D                     	ds	3
   889  0030                     ?___flmul:	
   890  0030                     ___flmul@b:	
   891                           ; 4 bytes @ 0x10
   892                           
   893                           
   894                           ; 4 bytes @ 0x10
   895  0030                     	ds	1
   896  0031                     ___fldiv@sign:	
   897                           
   898                           ; 1 bytes @ 0x11
   899  0031                     	ds	1
   900  0032                     ___fldiv@new_exp:	
   901                           
   902                           ; 2 bytes @ 0x12
   903  0032                     	ds	2
   904  0034                     ___fldiv@grs:	
   905  0034                     ___flmul@a:	
   906                           ; 4 bytes @ 0x14
   907                           
   908                           
   909                           ; 4 bytes @ 0x14
   910  0034                     	ds	4
   911  0038                     ??___flmul:	
   912  0038                     ___fldiv@bexp:	
   913                           ; 1 bytes @ 0x18
   914                           
   915                           
   916                           ; 1 bytes @ 0x18
   917  0038                     	ds	1
   918  0039                     ___fldiv@aexp:	
   919                           
   920                           ; 1 bytes @ 0x19
   921  0039                     	ds	4
   922  003D                     ___flmul@sign:	
   923                           
   924                           ; 1 bytes @ 0x1D
   925  003D                     	ds	1
   926  003E                     ___flmul@grs:	
   927                           
   928                           ; 4 bytes @ 0x1E
   929  003E                     	ds	4
   930  0042                     ___flmul@aexp:	
   931                           
   932                           ; 1 bytes @ 0x22
   933  0042                     	ds	1
   934  0043                     ___flmul@bexp:	
   935                           
   936                           ; 1 bytes @ 0x23
   937  0043                     	ds	1
   938  0044                     ___flmul@prod:	
   939                           
   940                           ; 4 bytes @ 0x24
   941  0044                     	ds	4
   942  0048                     ___flmul@temp:	
   943                           
   944                           ; 2 bytes @ 0x28
   945  0048                     	ds	2
   946  004A                     ?___fltol:	
   947  004A                     ___fltol@f1:	
   948                           ; 4 bytes @ 0x2A
   949                           
   950                           
   951                           ; 4 bytes @ 0x2A
   952  004A                     	ds	4
   953  004E                     ??___fltol:	
   954                           
   955                           ; 1 bytes @ 0x2E
   956  004E                     	ds	5
   957  0053                     ___fltol@sign1:	
   958                           
   959                           ; 1 bytes @ 0x33
   960  0053                     	ds	1
   961  0054                     ___fltol@exp1:	
   962                           
   963                           ; 1 bytes @ 0x34
   964  0054                     	ds	1
   965  0055                     ?_int_stre:	
   966  0055                     ?_int_strd:	
   967                           ; 1 bytes @ 0x35
   968                           
   969  0055                     ?_int_strc:	
   970                           ; 1 bytes @ 0x35
   971                           
   972  0055                     int_stre@n:	
   973                           ; 1 bytes @ 0x35
   974                           
   975  0055                     int_strd@n:	
   976                           ; 4 bytes @ 0x35
   977                           
   978  0055                     int_strc@n:	
   979                           ; 4 bytes @ 0x35
   980                           
   981                           
   982                           ; 4 bytes @ 0x35
   983  0055                     	ds	4
   984  0059                     ??_int_stre:	
   985  0059                     ??_int_strd:	
   986                           ; 1 bytes @ 0x39
   987                           
   988  0059                     ??_int_strc:	
   989                           ; 1 bytes @ 0x39
   990                           
   991                           
   992                           ; 1 bytes @ 0x39
   993  0059                     	ds	6
   994  005F                     int_strc@c:	
   995                           
   996                           ; 1 bytes @ 0x3F
   997  005F                     	ds	1
   998  0060                     int_stre@c:	
   999  0060                     int_strd@c:	
  1000                           ; 1 bytes @ 0x40
  1001                           
  1002  0060                     int_strc@c3:	
  1003                           ; 1 bytes @ 0x40
  1004                           
  1005                           
  1006                           ; 1 bytes @ 0x40
  1007  0060                     	ds	1
  1008  0061                     int_stre@c1:	
  1009  0061                     int_strd@c2:	
  1010                           ; 1 bytes @ 0x41
  1011                           
  1012  0061                     int_strc@e:	
  1013                           ; 1 bytes @ 0x41
  1014                           
  1015                           
  1016                           ; 1 bytes @ 0x41
  1017  0061                     	ds	1
  1018  0062                     int_stre@e:	
  1019  0062                     int_strd@e:	
  1020                           ; 1 bytes @ 0x42
  1021                           
  1022  0062                     int_strc@d:	
  1023                           ; 1 bytes @ 0x42
  1024                           
  1025                           
  1026                           ; 1 bytes @ 0x42
  1027  0062                     	ds	1
  1028  0063                     int_stre@d:	
  1029  0063                     int_strd@d:	
  1030                           ; 1 bytes @ 0x43
  1031                           
  1032  0063                     int_strc@loca:	
  1033                           ; 1 bytes @ 0x43
  1034                           
  1035                           
  1036                           ; 4 bytes @ 0x43
  1037  0063                     	ds	1
  1038  0064                     int_stre@loca:	
  1039  0064                     int_strd@loca:	
  1040                           ; 1 bytes @ 0x44
  1041                           
  1042                           
  1043                           ; 1 bytes @ 0x44
  1044  0064                     	ds	3
  1045  0067                     ??_main:	
  1046                           
  1047                           ; 1 bytes @ 0x47
  1048  0067                     	ds	4
  1049                           
  1050                           	psect	maintext
  1051  0D83                     __pmaintext:	
  1052 ;;
  1053 ;;Main: autosize = 0, tempsize = 4, incstack = 0, save=0
  1054 ;;
  1055 ;; *************** function _main *****************
  1056 ;; Defined at:
  1057 ;;		line 62 in file "Lab3.c"
  1058 ;; Parameters:    Size  Location     Type
  1059 ;;		None
  1060 ;; Auto vars:     Size  Location     Type
  1061 ;;  s2              5    9[BANK1 ] unsigned char [5]
  1062 ;;  s1              5    4[BANK1 ] unsigned char [5]
  1063 ;;  s3              4    0[BANK1 ] unsigned char [4]
  1064 ;;  a               2    0        unsigned int 
  1065 ;; Return value:  Size  Location     Type
  1066 ;;                  1    wreg      void 
  1067 ;; Registers used:
  1068 ;;		wreg, fsr0l, fsr0h, status,2, status,0, btemp+1, pclath, cstack
  1069 ;; Tracked objects:
  1070 ;;		On entry : B00/0
  1071 ;;		On exit  : 0/0
  1072 ;;		Unchanged: 0/0
  1073 ;; Data sizes:     COMMON   BANK0   BANK1   BANK3   BANK2
  1074 ;;      Params:         0       0       0       0       0
  1075 ;;      Locals:         0       0      14       0       0
  1076 ;;      Temps:          0       4       0       0       0
  1077 ;;      Totals:         0       4      14       0       0
  1078 ;;Total ram usage:       18 bytes
  1079 ;; Hardware stack levels required when called:    3
  1080 ;; This function calls:
  1081 ;;		_ADC_CONFIG
  1082 ;;		_Lcd_Init
  1083 ;;		_Lcd_Set_Cursor
  1084 ;;		_Lcd_Write_String
  1085 ;;		_UART_Init
  1086 ;;		_UART_Write
  1087 ;;		___fldiv
  1088 ;;		___xxtofl
  1089 ;;		_int_strc
  1090 ;;		_int_strd
  1091 ;;		_int_stre
  1092 ;; This function is called by:
  1093 ;;		Startup code after reset
  1094 ;; This function uses a non-reentrant model
  1095 ;;
  1096                           
  1097                           
  1098                           ;psect for function _main
  1099  0D83                     _main:	
  1100  0D83                     l2902:	
  1101                           ;incstack = 0
  1102                           ; Regs used in _main: [wreg-fsr0h+status,2+status,0+btemp+1+pclath+cstack]
  1103                           
  1104                           
  1105                           ;Lab3.c: 63:     unsigned int a;;Lab3.c: 64:     ANSELH = 0;
  1106  0D83  1683               	bsf	3,5	;RP0=1, select bank3
  1107  0D84  1703               	bsf	3,6	;RP1=1, select bank3
  1108  0D85  0189               	clrf	9	;volatile
  1109                           
  1110                           ;Lab3.c: 65:     ANSEL = 0;
  1111  0D86  0188               	clrf	8	;volatile
  1112                           
  1113                           ;Lab3.c: 66:     TRISA = 0x00;
  1114  0D87  1683               	bsf	3,5	;RP0=1, select bank1
  1115  0D88  1303               	bcf	3,6	;RP1=0, select bank1
  1116  0D89  0185               	clrf	5	;volatile
  1117                           
  1118                           ;Lab3.c: 67:     TRISB = 0x00;
  1119  0D8A  0186               	clrf	6	;volatile
  1120                           
  1121                           ;Lab3.c: 68:     TRISC = 0x00;
  1122  0D8B  0187               	clrf	7	;volatile
  1123  0D8C                     l2904:	
  1124                           
  1125                           ;Lab3.c: 71:     ADC_CONFIG(12,0);
  1126  0D8C  01F0               	clrf	ADC_CONFIG@justif
  1127  0D8D  300C               	movlw	12
  1128  0D8E  120A  158A  2478  120A  158A  	fcall	_ADC_CONFIG
  1129  0D93                     l2906:	
  1130                           
  1131                           ;Lab3.c: 72:     ADC_CONFIG(10,0);
  1132  0D93  01F0               	clrf	ADC_CONFIG@justif
  1133  0D94  300A               	movlw	10
  1134  0D95  120A  158A  2478  120A  158A  	fcall	_ADC_CONFIG
  1135  0D9A                     l2908:	
  1136                           
  1137                           ;Lab3.c: 74:     Lcd_Init();
  1138  0D9A  160A  118A  26E0  120A  158A  	fcall	_Lcd_Init
  1139  0D9F                     l2910:	
  1140                           
  1141                           ;Lab3.c: 75:     UART_Init(9600);
  1142  0D9F  3000               	movlw	0
  1143  0DA0  1283               	bcf	3,5	;RP0=0, select bank0
  1144  0DA1  1303               	bcf	3,6	;RP1=0, select bank0
  1145  0DA2  00A9               	movwf	UART_Init@baudrate+3
  1146  0DA3  3000               	movlw	0
  1147  0DA4  00A8               	movwf	UART_Init@baudrate+2
  1148  0DA5  3025               	movlw	37
  1149  0DA6  00A7               	movwf	UART_Init@baudrate+1
  1150  0DA7  3080               	movlw	128
  1151  0DA8  00A6               	movwf	UART_Init@baudrate
  1152  0DA9  120A  158A  22B0  120A  158A  	fcall	_UART_Init
  1153  0DAE                     l2912:	
  1154                           
  1155                           ;Lab3.c: 78:     char s1[5] = "";
  1156  0DAE  30C0               	movlw	main@s1& (0+255)
  1157  0DAF  0084               	movwf	4
  1158  0DB0  3005               	movlw	5
  1159  0DB1  00FF               	movwf	btemp+1
  1160  0DB2                     u3530:	
  1161  0DB2  1383               	bcf	3,7	;select IRP bank1
  1162  0DB3  0180               	clrf	0
  1163  0DB4  0A84               	incf	4,f
  1164  0DB5  0BFF               	decfsz	btemp+1,f
  1165  0DB6  2DB2               	goto	u3530
  1166  0DB7                     l2914:	
  1167                           
  1168                           ;Lab3.c: 79:     char s2[5] = "";
  1169  0DB7  30C5               	movlw	main@s2& (0+255)
  1170  0DB8  0084               	movwf	4
  1171  0DB9  3005               	movlw	5
  1172  0DBA  00FF               	movwf	btemp+1
  1173  0DBB                     u3540:	
  1174  0DBB  0180               	clrf	0
  1175  0DBC  0A84               	incf	4,f
  1176  0DBD  0BFF               	decfsz	btemp+1,f
  1177  0DBE  2DBB               	goto	u3540
  1178  0DBF                     l2916:	
  1179                           
  1180                           ;Lab3.c: 80:     char s3[4] = "";
  1181  0DBF  3000               	movlw	0
  1182  0DC0  1683               	bsf	3,5	;RP0=1, select bank1
  1183  0DC1  1303               	bcf	3,6	;RP1=0, select bank1
  1184  0DC2  00BF               	movwf	(main@s3+3)^(0+128)
  1185  0DC3  3000               	movlw	0
  1186  0DC4  00BE               	movwf	(main@s3+2)^(0+128)
  1187  0DC5  3000               	movlw	0
  1188  0DC6  00BD               	movwf	(main@s3+1)^(0+128)
  1189  0DC7  3000               	movlw	0
  1190  0DC8  00BC               	movwf	main@s3^(0+128)
  1191  0DC9                     l2918:	
  1192                           
  1193                           ;Lab3.c: 85:         ADCON0bits.CHS = 10;
  1194  0DC9  1283               	bcf	3,5	;RP0=0, select bank0
  1195  0DCA  1303               	bcf	3,6	;RP1=0, select bank0
  1196  0DCB  081F               	movf	31,w	;volatile
  1197  0DCC  39C3               	andlw	-61
  1198  0DCD  3828               	iorlw	40
  1199  0DCE  009F               	movwf	31	;volatile
  1200  0DCF                     l2920:	
  1201                           
  1202                           ;Lab3.c: 86:         _delay((unsigned long)((500)*(4000000/4000000.0)));
  1203  0DCF  30A5               	movlw	165
  1204  0DD0  1283               	bcf	3,5	;RP0=0, select bank0
  1205  0DD1  1303               	bcf	3,6	;RP1=0, select bank0
  1206  0DD2  00E7               	movwf	??_main
  1207  0DD3                     u3577:	
  1208  0DD3  0BE7               	decfsz	??_main,f
  1209  0DD4  2DD3               	goto	u3577
  1210  0DD5  2DD6               	nop2
  1211  0DD6                     l2922:	
  1212                           
  1213                           ;Lab3.c: 87:         ADCON0bits.GO = 1;
  1214  0DD6  1283               	bcf	3,5	;RP0=0, select bank0
  1215  0DD7  1303               	bcf	3,6	;RP1=0, select bank0
  1216  0DD8  149F               	bsf	31,1	;volatile
  1217  0DD9                     l188:	
  1218                           ;Lab3.c: 88:         while(ADCON0bits.GO == 1){};
  1219                           
  1220  0DD9  189F               	btfsc	31,1	;volatile
  1221  0DDA  2DDC               	goto	u3551
  1222  0DDB  2DDD               	goto	u3550
  1223  0DDC                     u3551:	
  1224  0DDC  2DD9               	goto	l188
  1225  0DDD                     u3550:	
  1226  0DDD                     l2924:	
  1227                           
  1228                           ;Lab3.c: 89:         adc1 = ADRESH;
  1229  0DDD  081E               	movf	30,w	;volatile
  1230  0DDE  00E7               	movwf	??_main
  1231  0DDF  0867               	movf	??_main,w
  1232  0DE0  1683               	bsf	3,5	;RP0=1, select bank1
  1233  0DE1  1303               	bcf	3,6	;RP1=0, select bank1
  1234  0DE2  00BB               	movwf	_adc1^(0+128)
  1235  0DE3                     l2926:	
  1236                           
  1237                           ;Lab3.c: 90:         adc11 = adc1/51.0;
  1238  0DE3  3042               	movlw	66
  1239  0DE4  1283               	bcf	3,5	;RP0=0, select bank0
  1240  0DE5  1303               	bcf	3,6	;RP1=0, select bank0
  1241  0DE6  00A3               	movwf	___fldiv@a+3
  1242  0DE7  304C               	movlw	76
  1243  0DE8  00A2               	movwf	___fldiv@a+2
  1244  0DE9  3000               	movlw	0
  1245  0DEA  00A1               	movwf	___fldiv@a+1
  1246  0DEB  3000               	movlw	0
  1247  0DEC  00A0               	movwf	___fldiv@a
  1248  0DED  1683               	bsf	3,5	;RP0=1, select bank1
  1249  0DEE  1303               	bcf	3,6	;RP1=0, select bank1
  1250  0DEF  083B               	movf	_adc1^(0+128),w
  1251  0DF0  1283               	bcf	3,5	;RP0=0, select bank0
  1252  0DF1  1303               	bcf	3,6	;RP1=0, select bank0
  1253  0DF2  00E7               	movwf	??_main
  1254  0DF3  01E8               	clrf	??_main+1
  1255  0DF4  01E9               	clrf	??_main+2
  1256  0DF5  01EA               	clrf	??_main+3
  1257  0DF6  086A               	movf	??_main+3,w
  1258  0DF7  00F3               	movwf	___xxtofl@val+3
  1259  0DF8  0869               	movf	??_main+2,w
  1260  0DF9  00F2               	movwf	___xxtofl@val+2
  1261  0DFA  0868               	movf	??_main+1,w
  1262  0DFB  00F1               	movwf	___xxtofl@val+1
  1263  0DFC  0867               	movf	??_main,w
  1264  0DFD  00F0               	movwf	___xxtofl@val
  1265  0DFE  3001               	movlw	1
  1266  0DFF  120A  158A  21F6  120A  158A  	fcall	___xxtofl
  1267  0E04  0873               	movf	?___xxtofl+3,w
  1268  0E05  1283               	bcf	3,5	;RP0=0, select bank0
  1269  0E06  1303               	bcf	3,6	;RP1=0, select bank0
  1270  0E07  00A7               	movwf	___fldiv@b+3
  1271  0E08  0872               	movf	?___xxtofl+2,w
  1272  0E09  00A6               	movwf	___fldiv@b+2
  1273  0E0A  0871               	movf	?___xxtofl+1,w
  1274  0E0B  00A5               	movwf	___fldiv@b+1
  1275  0E0C  0870               	movf	?___xxtofl,w
  1276  0E0D  00A4               	movwf	___fldiv@b
  1277  0E0E  120A  118A  2016  120A  158A  	fcall	___fldiv
  1278  0E13  1283               	bcf	3,5	;RP0=0, select bank0
  1279  0E14  1303               	bcf	3,6	;RP1=0, select bank0
  1280  0E15  0823               	movf	?___fldiv+3,w
  1281  0E16  1683               	bsf	3,5	;RP0=1, select bank1
  1282  0E17  1303               	bcf	3,6	;RP1=0, select bank1
  1283  0E18  00B9               	movwf	(_adc11+3)^(0+128)
  1284  0E19  1283               	bcf	3,5	;RP0=0, select bank0
  1285  0E1A  1303               	bcf	3,6	;RP1=0, select bank0
  1286  0E1B  0822               	movf	?___fldiv+2,w
  1287  0E1C  1683               	bsf	3,5	;RP0=1, select bank1
  1288  0E1D  1303               	bcf	3,6	;RP1=0, select bank1
  1289  0E1E  00B8               	movwf	(_adc11+2)^(0+128)
  1290  0E1F  1283               	bcf	3,5	;RP0=0, select bank0
  1291  0E20  1303               	bcf	3,6	;RP1=0, select bank0
  1292  0E21  0821               	movf	?___fldiv+1,w
  1293  0E22  1683               	bsf	3,5	;RP0=1, select bank1
  1294  0E23  1303               	bcf	3,6	;RP1=0, select bank1
  1295  0E24  00B7               	movwf	(_adc11+1)^(0+128)
  1296  0E25  1283               	bcf	3,5	;RP0=0, select bank0
  1297  0E26  1303               	bcf	3,6	;RP1=0, select bank0
  1298  0E27  0820               	movf	?___fldiv,w
  1299  0E28  1683               	bsf	3,5	;RP0=1, select bank1
  1300  0E29  1303               	bcf	3,6	;RP1=0, select bank1
  1301  0E2A  00B6               	movwf	_adc11^(0+128)
  1302  0E2B                     l2928:	
  1303                           
  1304                           ;Lab3.c: 91:         PIR1bits.ADIF = 0;
  1305  0E2B  1283               	bcf	3,5	;RP0=0, select bank0
  1306  0E2C  1303               	bcf	3,6	;RP1=0, select bank0
  1307  0E2D  130C               	bcf	12,6	;volatile
  1308  0E2E                     l2930:	
  1309                           
  1310                           ;Lab3.c: 92:         ADCON0bits.CHS = 12;
  1311  0E2E  081F               	movf	31,w	;volatile
  1312  0E2F  39C3               	andlw	-61
  1313  0E30  3830               	iorlw	48
  1314  0E31  009F               	movwf	31	;volatile
  1315  0E32                     l2932:	
  1316                           
  1317                           ;Lab3.c: 93:         _delay((unsigned long)((500)*(4000000/4000000.0)));
  1318  0E32  30A5               	movlw	165
  1319  0E33  1283               	bcf	3,5	;RP0=0, select bank0
  1320  0E34  1303               	bcf	3,6	;RP1=0, select bank0
  1321  0E35  00E7               	movwf	??_main
  1322  0E36                     u3587:	
  1323  0E36  0BE7               	decfsz	??_main,f
  1324  0E37  2E36               	goto	u3587
  1325  0E38  2E39               	nop2
  1326  0E39                     l2934:	
  1327                           
  1328                           ;Lab3.c: 94:         ADCON0bits.GO = 1;
  1329  0E39  1283               	bcf	3,5	;RP0=0, select bank0
  1330  0E3A  1303               	bcf	3,6	;RP1=0, select bank0
  1331  0E3B  149F               	bsf	31,1	;volatile
  1332  0E3C                     l191:	
  1333                           ;Lab3.c: 95:         while(ADCON0bits.GO == 1){};
  1334                           
  1335  0E3C  189F               	btfsc	31,1	;volatile
  1336  0E3D  2E3F               	goto	u3561
  1337  0E3E  2E40               	goto	u3560
  1338  0E3F                     u3561:	
  1339  0E3F  2E3C               	goto	l191
  1340  0E40                     u3560:	
  1341  0E40                     l2936:	
  1342                           
  1343                           ;Lab3.c: 96:         adc2 = ADRESH;
  1344  0E40  081E               	movf	30,w	;volatile
  1345  0E41  00E7               	movwf	??_main
  1346  0E42  0867               	movf	??_main,w
  1347  0E43  1683               	bsf	3,5	;RP0=1, select bank1
  1348  0E44  1303               	bcf	3,6	;RP1=0, select bank1
  1349  0E45  00BA               	movwf	_adc2^(0+128)
  1350  0E46                     l2938:	
  1351                           
  1352                           ;Lab3.c: 97:         adc22 = adc2/51.0;
  1353  0E46  3042               	movlw	66
  1354  0E47  1283               	bcf	3,5	;RP0=0, select bank0
  1355  0E48  1303               	bcf	3,6	;RP1=0, select bank0
  1356  0E49  00A3               	movwf	___fldiv@a+3
  1357  0E4A  304C               	movlw	76
  1358  0E4B  00A2               	movwf	___fldiv@a+2
  1359  0E4C  3000               	movlw	0
  1360  0E4D  00A1               	movwf	___fldiv@a+1
  1361  0E4E  3000               	movlw	0
  1362  0E4F  00A0               	movwf	___fldiv@a
  1363  0E50  1683               	bsf	3,5	;RP0=1, select bank1
  1364  0E51  1303               	bcf	3,6	;RP1=0, select bank1
  1365  0E52  083A               	movf	_adc2^(0+128),w
  1366  0E53  1283               	bcf	3,5	;RP0=0, select bank0
  1367  0E54  1303               	bcf	3,6	;RP1=0, select bank0
  1368  0E55  00E7               	movwf	??_main
  1369  0E56  01E8               	clrf	??_main+1
  1370  0E57  01E9               	clrf	??_main+2
  1371  0E58  01EA               	clrf	??_main+3
  1372  0E59  086A               	movf	??_main+3,w
  1373  0E5A  00F3               	movwf	___xxtofl@val+3
  1374  0E5B  0869               	movf	??_main+2,w
  1375  0E5C  00F2               	movwf	___xxtofl@val+2
  1376  0E5D  0868               	movf	??_main+1,w
  1377  0E5E  00F1               	movwf	___xxtofl@val+1
  1378  0E5F  0867               	movf	??_main,w
  1379  0E60  00F0               	movwf	___xxtofl@val
  1380  0E61  3001               	movlw	1
  1381  0E62  120A  158A  21F6  120A  158A  	fcall	___xxtofl
  1382  0E67  0873               	movf	?___xxtofl+3,w
  1383  0E68  1283               	bcf	3,5	;RP0=0, select bank0
  1384  0E69  1303               	bcf	3,6	;RP1=0, select bank0
  1385  0E6A  00A7               	movwf	___fldiv@b+3
  1386  0E6B  0872               	movf	?___xxtofl+2,w
  1387  0E6C  00A6               	movwf	___fldiv@b+2
  1388  0E6D  0871               	movf	?___xxtofl+1,w
  1389  0E6E  00A5               	movwf	___fldiv@b+1
  1390  0E6F  0870               	movf	?___xxtofl,w
  1391  0E70  00A4               	movwf	___fldiv@b
  1392  0E71  120A  118A  2016  120A  158A  	fcall	___fldiv
  1393  0E76  1283               	bcf	3,5	;RP0=0, select bank0
  1394  0E77  1303               	bcf	3,6	;RP1=0, select bank0
  1395  0E78  0823               	movf	?___fldiv+3,w
  1396  0E79  1683               	bsf	3,5	;RP0=1, select bank1
  1397  0E7A  1303               	bcf	3,6	;RP1=0, select bank1
  1398  0E7B  00B5               	movwf	(_adc22+3)^(0+128)
  1399  0E7C  1283               	bcf	3,5	;RP0=0, select bank0
  1400  0E7D  1303               	bcf	3,6	;RP1=0, select bank0
  1401  0E7E  0822               	movf	?___fldiv+2,w
  1402  0E7F  1683               	bsf	3,5	;RP0=1, select bank1
  1403  0E80  1303               	bcf	3,6	;RP1=0, select bank1
  1404  0E81  00B4               	movwf	(_adc22+2)^(0+128)
  1405  0E82  1283               	bcf	3,5	;RP0=0, select bank0
  1406  0E83  1303               	bcf	3,6	;RP1=0, select bank0
  1407  0E84  0821               	movf	?___fldiv+1,w
  1408  0E85  1683               	bsf	3,5	;RP0=1, select bank1
  1409  0E86  1303               	bcf	3,6	;RP1=0, select bank1
  1410  0E87  00B3               	movwf	(_adc22+1)^(0+128)
  1411  0E88  1283               	bcf	3,5	;RP0=0, select bank0
  1412  0E89  1303               	bcf	3,6	;RP1=0, select bank0
  1413  0E8A  0820               	movf	?___fldiv,w
  1414  0E8B  1683               	bsf	3,5	;RP0=1, select bank1
  1415  0E8C  1303               	bcf	3,6	;RP1=0, select bank1
  1416  0E8D  00B2               	movwf	_adc22^(0+128)
  1417  0E8E                     l2940:	
  1418                           
  1419                           ;Lab3.c: 98:         PIR1bits.ADIF = 0;
  1420  0E8E  1283               	bcf	3,5	;RP0=0, select bank0
  1421  0E8F  1303               	bcf	3,6	;RP1=0, select bank0
  1422  0E90  130C               	bcf	12,6	;volatile
  1423  0E91                     l2942:	
  1424                           
  1425                           ;Lab3.c: 101:         Lcd_Set_Cursor(1,2);
  1426  0E91  3002               	movlw	2
  1427  0E92  00E7               	movwf	??_main
  1428  0E93  0867               	movf	??_main,w
  1429  0E94  00F4               	movwf	Lcd_Set_Cursor@b
  1430  0E95  3001               	movlw	1
  1431  0E96  160A  118A  25D9  120A  158A  	fcall	_Lcd_Set_Cursor
  1432  0E9B                     l2944:	
  1433                           
  1434                           ;Lab3.c: 102:         Lcd_Write_String("P1:");
  1435  0E9B  3001               	movlw	(low ((STR_1-__stringbase)| (0+32768)))& (0+255)
  1436  0E9C  00F3               	movwf	Lcd_Write_String@a
  1437  0E9D  3080               	movlw	128
  1438  0E9E  00F4               	movwf	Lcd_Write_String@a+1
  1439  0E9F  160A  118A  269E  120A  158A  	fcall	_Lcd_Write_String
  1440  0EA4                     l2946:	
  1441                           
  1442                           ;Lab3.c: 103:         Lcd_Set_Cursor(1,7);
  1443  0EA4  3007               	movlw	7
  1444  0EA5  1283               	bcf	3,5	;RP0=0, select bank0
  1445  0EA6  1303               	bcf	3,6	;RP1=0, select bank0
  1446  0EA7  00E7               	movwf	??_main
  1447  0EA8  0867               	movf	??_main,w
  1448  0EA9  00F4               	movwf	Lcd_Set_Cursor@b
  1449  0EAA  3001               	movlw	1
  1450  0EAB  160A  118A  25D9  120A  158A  	fcall	_Lcd_Set_Cursor
  1451  0EB0                     l2948:	
  1452                           
  1453                           ;Lab3.c: 104:         Lcd_Write_String("P2:");
  1454  0EB0  3005               	movlw	(low ((STR_2-__stringbase)| (0+32768)))& (0+255)
  1455  0EB1  00F3               	movwf	Lcd_Write_String@a
  1456  0EB2  3080               	movlw	128
  1457  0EB3  00F4               	movwf	Lcd_Write_String@a+1
  1458  0EB4  160A  118A  269E  120A  158A  	fcall	_Lcd_Write_String
  1459  0EB9                     l2950:	
  1460                           
  1461                           ;Lab3.c: 105:         Lcd_Set_Cursor(1,12);
  1462  0EB9  300C               	movlw	12
  1463  0EBA  1283               	bcf	3,5	;RP0=0, select bank0
  1464  0EBB  1303               	bcf	3,6	;RP1=0, select bank0
  1465  0EBC  00E7               	movwf	??_main
  1466  0EBD  0867               	movf	??_main,w
  1467  0EBE  00F4               	movwf	Lcd_Set_Cursor@b
  1468  0EBF  3001               	movlw	1
  1469  0EC0  160A  118A  25D9  120A  158A  	fcall	_Lcd_Set_Cursor
  1470  0EC5                     l2952:	
  1471                           
  1472                           ;Lab3.c: 106:         Lcd_Write_String("P3:");
  1473  0EC5  3009               	movlw	(low ((STR_3-__stringbase)| (0+32768)))& (0+255)
  1474  0EC6  00F3               	movwf	Lcd_Write_String@a
  1475  0EC7  3080               	movlw	128
  1476  0EC8  00F4               	movwf	Lcd_Write_String@a+1
  1477  0EC9  160A  118A  269E  120A  158A  	fcall	_Lcd_Write_String
  1478  0ECE                     l2954:	
  1479                           
  1480                           ;Lab3.c: 107:         Lcd_Set_Cursor(2,1);
  1481  0ECE  01F4               	clrf	Lcd_Set_Cursor@b
  1482  0ECF  0AF4               	incf	Lcd_Set_Cursor@b,f
  1483  0ED0  3002               	movlw	2
  1484  0ED1  160A  118A  25D9  120A  158A  	fcall	_Lcd_Set_Cursor
  1485  0ED6                     l2956:	
  1486                           
  1487                           ;Lab3.c: 108:         s1[0] = int_stre(adc11);
  1488  0ED6  1683               	bsf	3,5	;RP0=1, select bank1
  1489  0ED7  1303               	bcf	3,6	;RP1=0, select bank1
  1490  0ED8  0839               	movf	(_adc11+3)^(0+128),w
  1491  0ED9  1283               	bcf	3,5	;RP0=0, select bank0
  1492  0EDA  1303               	bcf	3,6	;RP1=0, select bank0
  1493  0EDB  00D8               	movwf	int_stre@n+3
  1494  0EDC  1683               	bsf	3,5	;RP0=1, select bank1
  1495  0EDD  1303               	bcf	3,6	;RP1=0, select bank1
  1496  0EDE  0838               	movf	(_adc11+2)^(0+128),w
  1497  0EDF  1283               	bcf	3,5	;RP0=0, select bank0
  1498  0EE0  1303               	bcf	3,6	;RP1=0, select bank0
  1499  0EE1  00D7               	movwf	int_stre@n+2
  1500  0EE2  1683               	bsf	3,5	;RP0=1, select bank1
  1501  0EE3  1303               	bcf	3,6	;RP1=0, select bank1
  1502  0EE4  0837               	movf	(_adc11+1)^(0+128),w
  1503  0EE5  1283               	bcf	3,5	;RP0=0, select bank0
  1504  0EE6  1303               	bcf	3,6	;RP1=0, select bank0
  1505  0EE7  00D6               	movwf	int_stre@n+1
  1506  0EE8  1683               	bsf	3,5	;RP0=1, select bank1
  1507  0EE9  1303               	bcf	3,6	;RP1=0, select bank1
  1508  0EEA  0836               	movf	_adc11^(0+128),w
  1509  0EEB  1283               	bcf	3,5	;RP0=0, select bank0
  1510  0EEC  1303               	bcf	3,6	;RP1=0, select bank0
  1511  0EED  00D5               	movwf	int_stre@n
  1512  0EEE  120A  158A  2156  120A  158A  	fcall	_int_stre
  1513  0EF3  1283               	bcf	3,5	;RP0=0, select bank0
  1514  0EF4  1303               	bcf	3,6	;RP1=0, select bank0
  1515  0EF5  00E7               	movwf	??_main
  1516  0EF6  0867               	movf	??_main,w
  1517  0EF7  1683               	bsf	3,5	;RP0=1, select bank1
  1518  0EF8  1303               	bcf	3,6	;RP1=0, select bank1
  1519  0EF9  00C0               	movwf	main@s1^(0+128)
  1520  0EFA                     l2958:	
  1521                           
  1522                           ;Lab3.c: 109:         s1[1]='.';
  1523  0EFA  302E               	movlw	46
  1524  0EFB  1283               	bcf	3,5	;RP0=0, select bank0
  1525  0EFC  1303               	bcf	3,6	;RP1=0, select bank0
  1526  0EFD  00E7               	movwf	??_main
  1527  0EFE  0867               	movf	??_main,w
  1528  0EFF  1683               	bsf	3,5	;RP0=1, select bank1
  1529  0F00  1303               	bcf	3,6	;RP1=0, select bank1
  1530  0F01  00C1               	movwf	(main@s1^(0+128)+1)
  1531  0F02                     l2960:	
  1532                           
  1533                           ;Lab3.c: 110:         s1[2] = int_strd(adc11);
  1534  0F02  0839               	movf	(_adc11+3)^(0+128),w
  1535  0F03  1283               	bcf	3,5	;RP0=0, select bank0
  1536  0F04  1303               	bcf	3,6	;RP1=0, select bank0
  1537  0F05  00D8               	movwf	int_strd@n+3
  1538  0F06  1683               	bsf	3,5	;RP0=1, select bank1
  1539  0F07  1303               	bcf	3,6	;RP1=0, select bank1
  1540  0F08  0838               	movf	(_adc11+2)^(0+128),w
  1541  0F09  1283               	bcf	3,5	;RP0=0, select bank0
  1542  0F0A  1303               	bcf	3,6	;RP1=0, select bank0
  1543  0F0B  00D7               	movwf	int_strd@n+2
  1544  0F0C  1683               	bsf	3,5	;RP0=1, select bank1
  1545  0F0D  1303               	bcf	3,6	;RP1=0, select bank1
  1546  0F0E  0837               	movf	(_adc11+1)^(0+128),w
  1547  0F0F  1283               	bcf	3,5	;RP0=0, select bank0
  1548  0F10  1303               	bcf	3,6	;RP1=0, select bank0
  1549  0F11  00D6               	movwf	int_strd@n+1
  1550  0F12  1683               	bsf	3,5	;RP0=1, select bank1
  1551  0F13  1303               	bcf	3,6	;RP1=0, select bank1
  1552  0F14  0836               	movf	_adc11^(0+128),w
  1553  0F15  1283               	bcf	3,5	;RP0=0, select bank0
  1554  0F16  1303               	bcf	3,6	;RP1=0, select bank0
  1555  0F17  00D5               	movwf	int_strd@n
  1556  0F18  120A  158A  20B6  120A  158A  	fcall	_int_strd
  1557  0F1D  1283               	bcf	3,5	;RP0=0, select bank0
  1558  0F1E  1303               	bcf	3,6	;RP1=0, select bank0
  1559  0F1F  00E7               	movwf	??_main
  1560  0F20  0867               	movf	??_main,w
  1561  0F21  1683               	bsf	3,5	;RP0=1, select bank1
  1562  0F22  1303               	bcf	3,6	;RP1=0, select bank1
  1563  0F23  00C2               	movwf	(main@s1^(0+128)+2)
  1564  0F24                     l2962:	
  1565                           
  1566                           ;Lab3.c: 111:         s1[3] = int_strc(adc11);
  1567  0F24  0839               	movf	(_adc11+3)^(0+128),w
  1568  0F25  1283               	bcf	3,5	;RP0=0, select bank0
  1569  0F26  1303               	bcf	3,6	;RP1=0, select bank0
  1570  0F27  00D8               	movwf	int_strc@n+3
  1571  0F28  1683               	bsf	3,5	;RP0=1, select bank1
  1572  0F29  1303               	bcf	3,6	;RP1=0, select bank1
  1573  0F2A  0838               	movf	(_adc11+2)^(0+128),w
  1574  0F2B  1283               	bcf	3,5	;RP0=0, select bank0
  1575  0F2C  1303               	bcf	3,6	;RP1=0, select bank0
  1576  0F2D  00D7               	movwf	int_strc@n+2
  1577  0F2E  1683               	bsf	3,5	;RP0=1, select bank1
  1578  0F2F  1303               	bcf	3,6	;RP1=0, select bank1
  1579  0F30  0837               	movf	(_adc11+1)^(0+128),w
  1580  0F31  1283               	bcf	3,5	;RP0=0, select bank0
  1581  0F32  1303               	bcf	3,6	;RP1=0, select bank0
  1582  0F33  00D6               	movwf	int_strc@n+1
  1583  0F34  1683               	bsf	3,5	;RP0=1, select bank1
  1584  0F35  1303               	bcf	3,6	;RP1=0, select bank1
  1585  0F36  0836               	movf	_adc11^(0+128),w
  1586  0F37  1283               	bcf	3,5	;RP0=0, select bank0
  1587  0F38  1303               	bcf	3,6	;RP1=0, select bank0
  1588  0F39  00D5               	movwf	int_strc@n
  1589  0F3A  120A  158A  238A  120A  158A  	fcall	_int_strc
  1590  0F3F  1283               	bcf	3,5	;RP0=0, select bank0
  1591  0F40  1303               	bcf	3,6	;RP1=0, select bank0
  1592  0F41  00E7               	movwf	??_main
  1593  0F42  0867               	movf	??_main,w
  1594  0F43  1683               	bsf	3,5	;RP0=1, select bank1
  1595  0F44  1303               	bcf	3,6	;RP1=0, select bank1
  1596  0F45  00C3               	movwf	(main@s1^(0+128)+3)
  1597  0F46                     l2964:	
  1598                           
  1599                           ;Lab3.c: 112:         Lcd_Write_String(s1);
  1600  0F46  30C0               	movlw	(low (main@s1| 0))& (0+255)
  1601  0F47  00F3               	movwf	Lcd_Write_String@a
  1602  0F48  3000               	movlw	0
  1603  0F49  00F4               	movwf	Lcd_Write_String@a+1
  1604  0F4A  160A  118A  269E  120A  158A  	fcall	_Lcd_Write_String
  1605  0F4F                     l2966:	
  1606                           
  1607                           ;Lab3.c: 113:         Lcd_Set_Cursor(2,6);
  1608  0F4F  3006               	movlw	6
  1609  0F50  1283               	bcf	3,5	;RP0=0, select bank0
  1610  0F51  1303               	bcf	3,6	;RP1=0, select bank0
  1611  0F52  00E7               	movwf	??_main
  1612  0F53  0867               	movf	??_main,w
  1613  0F54  00F4               	movwf	Lcd_Set_Cursor@b
  1614  0F55  3002               	movlw	2
  1615  0F56  160A  118A  25D9  120A  158A  	fcall	_Lcd_Set_Cursor
  1616  0F5B                     l2968:	
  1617                           
  1618                           ;Lab3.c: 114:         s2[0] = int_stre(adc22);
  1619  0F5B  1683               	bsf	3,5	;RP0=1, select bank1
  1620  0F5C  1303               	bcf	3,6	;RP1=0, select bank1
  1621  0F5D  0835               	movf	(_adc22+3)^(0+128),w
  1622  0F5E  1283               	bcf	3,5	;RP0=0, select bank0
  1623  0F5F  1303               	bcf	3,6	;RP1=0, select bank0
  1624  0F60  00D8               	movwf	int_stre@n+3
  1625  0F61  1683               	bsf	3,5	;RP0=1, select bank1
  1626  0F62  1303               	bcf	3,6	;RP1=0, select bank1
  1627  0F63  0834               	movf	(_adc22+2)^(0+128),w
  1628  0F64  1283               	bcf	3,5	;RP0=0, select bank0
  1629  0F65  1303               	bcf	3,6	;RP1=0, select bank0
  1630  0F66  00D7               	movwf	int_stre@n+2
  1631  0F67  1683               	bsf	3,5	;RP0=1, select bank1
  1632  0F68  1303               	bcf	3,6	;RP1=0, select bank1
  1633  0F69  0833               	movf	(_adc22+1)^(0+128),w
  1634  0F6A  1283               	bcf	3,5	;RP0=0, select bank0
  1635  0F6B  1303               	bcf	3,6	;RP1=0, select bank0
  1636  0F6C  00D6               	movwf	int_stre@n+1
  1637  0F6D  1683               	bsf	3,5	;RP0=1, select bank1
  1638  0F6E  1303               	bcf	3,6	;RP1=0, select bank1
  1639  0F6F  0832               	movf	_adc22^(0+128),w
  1640  0F70  1283               	bcf	3,5	;RP0=0, select bank0
  1641  0F71  1303               	bcf	3,6	;RP1=0, select bank0
  1642  0F72  00D5               	movwf	int_stre@n
  1643  0F73  120A  158A  2156  120A  158A  	fcall	_int_stre
  1644  0F78  1283               	bcf	3,5	;RP0=0, select bank0
  1645  0F79  1303               	bcf	3,6	;RP1=0, select bank0
  1646  0F7A  00E7               	movwf	??_main
  1647  0F7B  0867               	movf	??_main,w
  1648  0F7C  1683               	bsf	3,5	;RP0=1, select bank1
  1649  0F7D  1303               	bcf	3,6	;RP1=0, select bank1
  1650  0F7E  00C5               	movwf	main@s2^(0+128)
  1651  0F7F                     l2970:	
  1652                           
  1653                           ;Lab3.c: 115:         s2[1]='.';
  1654  0F7F  302E               	movlw	46
  1655  0F80  1283               	bcf	3,5	;RP0=0, select bank0
  1656  0F81  1303               	bcf	3,6	;RP1=0, select bank0
  1657  0F82  00E7               	movwf	??_main
  1658  0F83  0867               	movf	??_main,w
  1659  0F84  1683               	bsf	3,5	;RP0=1, select bank1
  1660  0F85  1303               	bcf	3,6	;RP1=0, select bank1
  1661  0F86  00C6               	movwf	(main@s2^(0+128)+1)
  1662  0F87                     l2972:	
  1663                           
  1664                           ;Lab3.c: 116:         s2[2] = int_strd(adc22);
  1665  0F87  0835               	movf	(_adc22+3)^(0+128),w
  1666  0F88  1283               	bcf	3,5	;RP0=0, select bank0
  1667  0F89  1303               	bcf	3,6	;RP1=0, select bank0
  1668  0F8A  00D8               	movwf	int_strd@n+3
  1669  0F8B  1683               	bsf	3,5	;RP0=1, select bank1
  1670  0F8C  1303               	bcf	3,6	;RP1=0, select bank1
  1671  0F8D  0834               	movf	(_adc22+2)^(0+128),w
  1672  0F8E  1283               	bcf	3,5	;RP0=0, select bank0
  1673  0F8F  1303               	bcf	3,6	;RP1=0, select bank0
  1674  0F90  00D7               	movwf	int_strd@n+2
  1675  0F91  1683               	bsf	3,5	;RP0=1, select bank1
  1676  0F92  1303               	bcf	3,6	;RP1=0, select bank1
  1677  0F93  0833               	movf	(_adc22+1)^(0+128),w
  1678  0F94  1283               	bcf	3,5	;RP0=0, select bank0
  1679  0F95  1303               	bcf	3,6	;RP1=0, select bank0
  1680  0F96  00D6               	movwf	int_strd@n+1
  1681  0F97  1683               	bsf	3,5	;RP0=1, select bank1
  1682  0F98  1303               	bcf	3,6	;RP1=0, select bank1
  1683  0F99  0832               	movf	_adc22^(0+128),w
  1684  0F9A  1283               	bcf	3,5	;RP0=0, select bank0
  1685  0F9B  1303               	bcf	3,6	;RP1=0, select bank0
  1686  0F9C  00D5               	movwf	int_strd@n
  1687  0F9D  120A  158A  20B6  120A  158A  	fcall	_int_strd
  1688  0FA2  1283               	bcf	3,5	;RP0=0, select bank0
  1689  0FA3  1303               	bcf	3,6	;RP1=0, select bank0
  1690  0FA4  00E7               	movwf	??_main
  1691  0FA5  0867               	movf	??_main,w
  1692  0FA6  1683               	bsf	3,5	;RP0=1, select bank1
  1693  0FA7  1303               	bcf	3,6	;RP1=0, select bank1
  1694  0FA8  00C7               	movwf	(main@s2^(0+128)+2)
  1695  0FA9                     l2974:	
  1696                           
  1697                           ;Lab3.c: 117:         s2[3] = int_strc(adc22);
  1698  0FA9  0835               	movf	(_adc22+3)^(0+128),w
  1699  0FAA  1283               	bcf	3,5	;RP0=0, select bank0
  1700  0FAB  1303               	bcf	3,6	;RP1=0, select bank0
  1701  0FAC  00D8               	movwf	int_strc@n+3
  1702  0FAD  1683               	bsf	3,5	;RP0=1, select bank1
  1703  0FAE  1303               	bcf	3,6	;RP1=0, select bank1
  1704  0FAF  0834               	movf	(_adc22+2)^(0+128),w
  1705  0FB0  1283               	bcf	3,5	;RP0=0, select bank0
  1706  0FB1  1303               	bcf	3,6	;RP1=0, select bank0
  1707  0FB2  00D7               	movwf	int_strc@n+2
  1708  0FB3  1683               	bsf	3,5	;RP0=1, select bank1
  1709  0FB4  1303               	bcf	3,6	;RP1=0, select bank1
  1710  0FB5  0833               	movf	(_adc22+1)^(0+128),w
  1711  0FB6  1283               	bcf	3,5	;RP0=0, select bank0
  1712  0FB7  1303               	bcf	3,6	;RP1=0, select bank0
  1713  0FB8  00D6               	movwf	int_strc@n+1
  1714  0FB9  1683               	bsf	3,5	;RP0=1, select bank1
  1715  0FBA  1303               	bcf	3,6	;RP1=0, select bank1
  1716  0FBB  0832               	movf	_adc22^(0+128),w
  1717  0FBC  1283               	bcf	3,5	;RP0=0, select bank0
  1718  0FBD  1303               	bcf	3,6	;RP1=0, select bank0
  1719  0FBE  00D5               	movwf	int_strc@n
  1720  0FBF  120A  158A  238A  120A  158A  	fcall	_int_strc
  1721  0FC4  1283               	bcf	3,5	;RP0=0, select bank0
  1722  0FC5  1303               	bcf	3,6	;RP1=0, select bank0
  1723  0FC6  00E7               	movwf	??_main
  1724  0FC7  0867               	movf	??_main,w
  1725  0FC8  1683               	bsf	3,5	;RP0=1, select bank1
  1726  0FC9  1303               	bcf	3,6	;RP1=0, select bank1
  1727  0FCA  00C8               	movwf	(main@s2^(0+128)+3)
  1728  0FCB                     l2976:	
  1729                           
  1730                           ;Lab3.c: 118:         Lcd_Write_String(s2);
  1731  0FCB  30C5               	movlw	(low (main@s2| 0))& (0+255)
  1732  0FCC  00F3               	movwf	Lcd_Write_String@a
  1733  0FCD  3000               	movlw	0
  1734  0FCE  00F4               	movwf	Lcd_Write_String@a+1
  1735  0FCF  160A  118A  269E  120A  158A  	fcall	_Lcd_Write_String
  1736  0FD4                     l2978:	
  1737                           
  1738                           ;Lab3.c: 129:         _delay((unsigned long)((500)*(4000000/4000.0)));
  1739  0FD4  3003               	movlw	3
  1740  0FD5  1283               	bcf	3,5	;RP0=0, select bank0
  1741  0FD6  1303               	bcf	3,6	;RP1=0, select bank0
  1742  0FD7  00E9               	movwf	??_main+2
  1743  0FD8  308A               	movlw	138
  1744  0FD9  00E8               	movwf	??_main+1
  1745  0FDA  3055               	movlw	85
  1746  0FDB  00E7               	movwf	??_main
  1747  0FDC                     u3597:	
  1748  0FDC  0BE7               	decfsz	??_main,f
  1749  0FDD  2FDC               	goto	u3597
  1750  0FDE  0BE8               	decfsz	??_main+1,f
  1751  0FDF  2FDC               	goto	u3597
  1752  0FE0  0BE9               	decfsz	??_main+2,f
  1753  0FE1  2FDC               	goto	u3597
  1754  0FE2                     l2980:	
  1755                           
  1756                           ;Lab3.c: 133:         UART_Write(adc1);
  1757  0FE2  1683               	bsf	3,5	;RP0=1, select bank1
  1758  0FE3  1303               	bcf	3,6	;RP1=0, select bank1
  1759  0FE4  083B               	movf	_adc1^(0+128),w
  1760  0FE5  160A  118A  25C4  120A  158A  	fcall	_UART_Write
  1761  0FEA                     l2982:	
  1762                           
  1763                           ;Lab3.c: 134:         UART_Write(adc2);
  1764  0FEA  1683               	bsf	3,5	;RP0=1, select bank1
  1765  0FEB  1303               	bcf	3,6	;RP1=0, select bank1
  1766  0FEC  083A               	movf	_adc2^(0+128),w
  1767  0FED  160A  118A  25C4  120A  158A  	fcall	_UART_Write
  1768  0FF2                     l2984:	
  1769                           
  1770                           ;Lab3.c: 138:         _delay((unsigned long)((100)*(4000000/4000.0)));
  1771  0FF2  3082               	movlw	130
  1772  0FF3  1283               	bcf	3,5	;RP0=0, select bank0
  1773  0FF4  1303               	bcf	3,6	;RP1=0, select bank0
  1774  0FF5  00E8               	movwf	??_main+1
  1775  0FF6  30DD               	movlw	221
  1776  0FF7  00E7               	movwf	??_main
  1777  0FF8                     u3607:	
  1778  0FF8  0BE7               	decfsz	??_main,f
  1779  0FF9  2FF8               	goto	u3607
  1780  0FFA  0BE8               	decfsz	??_main+1,f
  1781  0FFB  2FF8               	goto	u3607
  1782  0FFC  2DC9               	goto	l2918
  1783  0FFD  120A  118A  2800   	ljmp	start
  1784  1000                     __end_of_main:	
  1785                           
  1786                           	psect	text1
  1787  0956                     __ptext1:	
  1788 ;; *************** function _int_stre *****************
  1789 ;; Defined at:
  1790 ;;		line 144 in file "Lab3.c"
  1791 ;; Parameters:    Size  Location     Type
  1792 ;;  n               4   53[BANK0 ] float 
  1793 ;; Auto vars:     Size  Location     Type
  1794 ;;  loca            1   68[BANK0 ] unsigned char 
  1795 ;;  d               1   67[BANK0 ] unsigned char 
  1796 ;;  e               1   66[BANK0 ] unsigned char 
  1797 ;;  c1              1   65[BANK0 ] unsigned char 
  1798 ;;  c               1   64[BANK0 ] unsigned char 
  1799 ;;  c3              1    0        unsigned char 
  1800 ;;  c2              1    0        unsigned char 
  1801 ;; Return value:  Size  Location     Type
  1802 ;;                  1    wreg      unsigned char 
  1803 ;; Registers used:
  1804 ;;		wreg, fsr0l, fsr0h, status,2, status,0, btemp+1, pclath, cstack
  1805 ;; Tracked objects:
  1806 ;;		On entry : 0/0
  1807 ;;		On exit  : 0/0
  1808 ;;		Unchanged: 0/0
  1809 ;; Data sizes:     COMMON   BANK0   BANK1   BANK3   BANK2
  1810 ;;      Params:         0       4       0       0       0
  1811 ;;      Locals:         0       7       0       0       0
  1812 ;;      Temps:          0       5       0       0       0
  1813 ;;      Totals:         0      16       0       0       0
  1814 ;;Total ram usage:       16 bytes
  1815 ;; Hardware stack levels used:    1
  1816 ;; Hardware stack levels required when called:    2
  1817 ;; This function calls:
  1818 ;;		___bmul
  1819 ;;		___flmul
  1820 ;;		___flsub
  1821 ;;		___fltol
  1822 ;;		___xxtofl
  1823 ;;		_num_case
  1824 ;; This function is called by:
  1825 ;;		_main
  1826 ;; This function uses a non-reentrant model
  1827 ;;
  1828                           
  1829                           
  1830                           ;psect for function _int_stre
  1831  0956                     _int_stre:	
  1832  0956                     l2692:	
  1833                           ;incstack = 0
  1834                           ; Regs used in _int_stre: [wreg-fsr0h+status,2+status,0+btemp+1+pclath+cstack]
  1835                           
  1836                           
  1837                           ;Lab3.c: 145:     uint8_t e;;Lab3.c: 146:     uint8_t d;;Lab3.c: 147:     uint8_t c;;Lab
      +                          3.c: 148:     uint8_t loca;;Lab3.c: 149:     char c1;;Lab3.c: 150:     char c2;;Lab3.c: 
      +                          151:     char c3;;Lab3.c: 153:     e = n;
  1838  0956  1283               	bcf	3,5	;RP0=0, select bank0
  1839  0957  1303               	bcf	3,6	;RP1=0, select bank0
  1840  0958  0858               	movf	int_stre@n+3,w
  1841  0959  00CD               	movwf	___fltol@f1+3
  1842  095A  0857               	movf	int_stre@n+2,w
  1843  095B  00CC               	movwf	___fltol@f1+2
  1844  095C  0856               	movf	int_stre@n+1,w
  1845  095D  00CB               	movwf	___fltol@f1+1
  1846  095E  0855               	movf	int_stre@n,w
  1847  095F  00CA               	movwf	___fltol@f1
  1848  0960  160A  118A  2784  120A  158A  	fcall	___fltol
  1849  0965  1283               	bcf	3,5	;RP0=0, select bank0
  1850  0966  1303               	bcf	3,6	;RP1=0, select bank0
  1851  0967  084A               	movf	?___fltol,w
  1852  0968  00D9               	movwf	??_int_stre
  1853  0969  0859               	movf	??_int_stre,w
  1854  096A  00E2               	movwf	int_stre@e
  1855  096B                     l2694:	
  1856                           
  1857                           ;Lab3.c: 154:     c1 = num_case(e);
  1858  096B  0862               	movf	int_stre@e,w
  1859  096C  160A  118A  2726  120A  158A  	fcall	_num_case
  1860  0971  1283               	bcf	3,5	;RP0=0, select bank0
  1861  0972  1303               	bcf	3,6	;RP1=0, select bank0
  1862  0973  00D9               	movwf	??_int_stre
  1863  0974  0859               	movf	??_int_stre,w
  1864  0975  00E1               	movwf	int_stre@c1
  1865  0976                     l2696:	
  1866                           
  1867                           ;Lab3.c: 155:     loca = (n - e)*10;
  1868  0976  0858               	movf	int_stre@n+3,w
  1869  0977  00AF               	movwf	___flsub@b+3
  1870  0978  0857               	movf	int_stre@n+2,w
  1871  0979  00AE               	movwf	___flsub@b+2
  1872  097A  0856               	movf	int_stre@n+1,w
  1873  097B  00AD               	movwf	___flsub@b+1
  1874  097C  0855               	movf	int_stre@n,w
  1875  097D  00AC               	movwf	___flsub@b
  1876  097E  0862               	movf	int_stre@e,w
  1877  097F  00D9               	movwf	??_int_stre
  1878  0980  01DA               	clrf	??_int_stre+1
  1879  0981  01DB               	clrf	??_int_stre+2
  1880  0982  01DC               	clrf	??_int_stre+3
  1881  0983  085C               	movf	??_int_stre+3,w
  1882  0984  00F3               	movwf	___xxtofl@val+3
  1883  0985  085B               	movf	??_int_stre+2,w
  1884  0986  00F2               	movwf	___xxtofl@val+2
  1885  0987  085A               	movf	??_int_stre+1,w
  1886  0988  00F1               	movwf	___xxtofl@val+1
  1887  0989  0859               	movf	??_int_stre,w
  1888  098A  00F0               	movwf	___xxtofl@val
  1889  098B  3001               	movlw	1
  1890  098C  120A  158A  21F6  120A  158A  	fcall	___xxtofl
  1891  0991  0873               	movf	?___xxtofl+3,w
  1892  0992  1283               	bcf	3,5	;RP0=0, select bank0
  1893  0993  1303               	bcf	3,6	;RP1=0, select bank0
  1894  0994  00AB               	movwf	___flsub@a+3
  1895  0995  0872               	movf	?___xxtofl+2,w
  1896  0996  00AA               	movwf	___flsub@a+2
  1897  0997  0871               	movf	?___xxtofl+1,w
  1898  0998  00A9               	movwf	___flsub@a+1
  1899  0999  0870               	movf	?___xxtofl,w
  1900  099A  00A8               	movwf	___flsub@a
  1901  099B  160A  118A  2615  120A  158A  	fcall	___flsub
  1902  09A0  1283               	bcf	3,5	;RP0=0, select bank0
  1903  09A1  1303               	bcf	3,6	;RP1=0, select bank0
  1904  09A2  082B               	movf	?___flsub+3,w
  1905  09A3  00B7               	movwf	___flmul@a+3
  1906  09A4  082A               	movf	?___flsub+2,w
  1907  09A5  00B6               	movwf	___flmul@a+2
  1908  09A6  0829               	movf	?___flsub+1,w
  1909  09A7  00B5               	movwf	___flmul@a+1
  1910  09A8  0828               	movf	?___flsub,w
  1911  09A9  00B4               	movwf	___flmul@a
  1912  09AA  3041               	movlw	65
  1913  09AB  00B3               	movwf	___flmul@b+3
  1914  09AC  3020               	movlw	32
  1915  09AD  00B2               	movwf	___flmul@b+2
  1916  09AE  3000               	movlw	0
  1917  09AF  00B1               	movwf	___flmul@b+1
  1918  09B0  3000               	movlw	0
  1919  09B1  00B0               	movwf	___flmul@b
  1920  09B2  120A  118A  248B  120A  158A  	fcall	___flmul
  1921  09B7  1283               	bcf	3,5	;RP0=0, select bank0
  1922  09B8  1303               	bcf	3,6	;RP1=0, select bank0
  1923  09B9  0833               	movf	?___flmul+3,w
  1924  09BA  00CD               	movwf	___fltol@f1+3
  1925  09BB  0832               	movf	?___flmul+2,w
  1926  09BC  00CC               	movwf	___fltol@f1+2
  1927  09BD  0831               	movf	?___flmul+1,w
  1928  09BE  00CB               	movwf	___fltol@f1+1
  1929  09BF  0830               	movf	?___flmul,w
  1930  09C0  00CA               	movwf	___fltol@f1
  1931  09C1  160A  118A  2784  120A  158A  	fcall	___fltol
  1932  09C6  1283               	bcf	3,5	;RP0=0, select bank0
  1933  09C7  1303               	bcf	3,6	;RP1=0, select bank0
  1934  09C8  084A               	movf	?___fltol,w
  1935  09C9  00DD               	movwf	??_int_stre+4
  1936  09CA  085D               	movf	??_int_stre+4,w
  1937  09CB  00E4               	movwf	int_stre@loca
  1938  09CC                     l2698:	
  1939                           
  1940                           ;Lab3.c: 156:     d = loca;
  1941  09CC  0864               	movf	int_stre@loca,w
  1942  09CD  00D9               	movwf	??_int_stre
  1943  09CE  0859               	movf	??_int_stre,w
  1944  09CF  00E3               	movwf	int_stre@d
  1945  09D0                     l2700:	
  1946  09D0  0863               	movf	int_stre@d,w
  1947  09D1  160A  118A  2726  120A  158A  	fcall	_num_case
  1948  09D6                     l2702:	
  1949                           
  1950                           ;Lab3.c: 158:     loca = (loca-d)*10;
  1951  09D6  300A               	movlw	10
  1952  09D7  1283               	bcf	3,5	;RP0=0, select bank0
  1953  09D8  1303               	bcf	3,6	;RP1=0, select bank0
  1954  09D9  00D9               	movwf	??_int_stre
  1955  09DA  0859               	movf	??_int_stre,w
  1956  09DB  00F0               	movwf	___bmul@multiplicand
  1957  09DC  0863               	movf	int_stre@d,w
  1958  09DD  0264               	subwf	int_stre@loca,w
  1959  09DE  120A  158A  2004  120A  158A  	fcall	___bmul
  1960  09E3  1283               	bcf	3,5	;RP0=0, select bank0
  1961  09E4  1303               	bcf	3,6	;RP1=0, select bank0
  1962  09E5  00DA               	movwf	??_int_stre+1
  1963  09E6  085A               	movf	??_int_stre+1,w
  1964  09E7  00E4               	movwf	int_stre@loca
  1965  09E8                     l2704:	
  1966                           
  1967                           ;Lab3.c: 159:     c = loca;
  1968  09E8  0864               	movf	int_stre@loca,w
  1969  09E9  00D9               	movwf	??_int_stre
  1970  09EA  0859               	movf	??_int_stre,w
  1971  09EB  00E0               	movwf	int_stre@c
  1972  09EC                     l2706:	
  1973  09EC  0860               	movf	int_stre@c,w
  1974  09ED  160A  118A  2726  120A  158A  	fcall	_num_case
  1975  09F2                     l2708:	
  1976                           
  1977                           ;Lab3.c: 161:     return c1;
  1978  09F2  1283               	bcf	3,5	;RP0=0, select bank0
  1979  09F3  1303               	bcf	3,6	;RP1=0, select bank0
  1980  09F4  0861               	movf	int_stre@c1,w
  1981  09F5                     l199:	
  1982  09F5  0008               	return
  1983  09F6                     __end_of_int_stre:	
  1984                           
  1985                           	psect	text2
  1986  08B6                     __ptext2:	
  1987 ;; *************** function _int_strd *****************
  1988 ;; Defined at:
  1989 ;;		line 164 in file "Lab3.c"
  1990 ;; Parameters:    Size  Location     Type
  1991 ;;  n               4   53[BANK0 ] float 
  1992 ;; Auto vars:     Size  Location     Type
  1993 ;;  loca            1   68[BANK0 ] unsigned char 
  1994 ;;  d               1   67[BANK0 ] unsigned char 
  1995 ;;  e               1   66[BANK0 ] unsigned char 
  1996 ;;  c2              1   65[BANK0 ] unsigned char 
  1997 ;;  c               1   64[BANK0 ] unsigned char 
  1998 ;;  c3              1    0        unsigned char 
  1999 ;;  c1              1    0        unsigned char 
  2000 ;; Return value:  Size  Location     Type
  2001 ;;                  1    wreg      unsigned char 
  2002 ;; Registers used:
  2003 ;;		wreg, fsr0l, fsr0h, status,2, status,0, btemp+1, pclath, cstack
  2004 ;; Tracked objects:
  2005 ;;		On entry : 0/0
  2006 ;;		On exit  : 0/0
  2007 ;;		Unchanged: 0/0
  2008 ;; Data sizes:     COMMON   BANK0   BANK1   BANK3   BANK2
  2009 ;;      Params:         0       4       0       0       0
  2010 ;;      Locals:         0       7       0       0       0
  2011 ;;      Temps:          0       5       0       0       0
  2012 ;;      Totals:         0      16       0       0       0
  2013 ;;Total ram usage:       16 bytes
  2014 ;; Hardware stack levels used:    1
  2015 ;; Hardware stack levels required when called:    2
  2016 ;; This function calls:
  2017 ;;		___bmul
  2018 ;;		___flmul
  2019 ;;		___flsub
  2020 ;;		___fltol
  2021 ;;		___xxtofl
  2022 ;;		_num_case
  2023 ;; This function is called by:
  2024 ;;		_main
  2025 ;; This function uses a non-reentrant model
  2026 ;;
  2027                           
  2028                           
  2029                           ;psect for function _int_strd
  2030  08B6                     _int_strd:	
  2031  08B6                     l2712:	
  2032                           ;incstack = 0
  2033                           ; Regs used in _int_strd: [wreg-fsr0h+status,2+status,0+btemp+1+pclath+cstack]
  2034                           
  2035                           
  2036                           ;Lab3.c: 165:     uint8_t e;;Lab3.c: 166:     uint8_t d;;Lab3.c: 167:     uint8_t c;;Lab
      +                          3.c: 168:     uint8_t loca;;Lab3.c: 169:     char c1;;Lab3.c: 170:     char c2;;Lab3.c: 
      +                          171:     char c3;;Lab3.c: 173:     e = n;
  2037  08B6  1283               	bcf	3,5	;RP0=0, select bank0
  2038  08B7  1303               	bcf	3,6	;RP1=0, select bank0
  2039  08B8  0858               	movf	int_strd@n+3,w
  2040  08B9  00CD               	movwf	___fltol@f1+3
  2041  08BA  0857               	movf	int_strd@n+2,w
  2042  08BB  00CC               	movwf	___fltol@f1+2
  2043  08BC  0856               	movf	int_strd@n+1,w
  2044  08BD  00CB               	movwf	___fltol@f1+1
  2045  08BE  0855               	movf	int_strd@n,w
  2046  08BF  00CA               	movwf	___fltol@f1
  2047  08C0  160A  118A  2784  120A  158A  	fcall	___fltol
  2048  08C5  1283               	bcf	3,5	;RP0=0, select bank0
  2049  08C6  1303               	bcf	3,6	;RP1=0, select bank0
  2050  08C7  084A               	movf	?___fltol,w
  2051  08C8  00D9               	movwf	??_int_strd
  2052  08C9  0859               	movf	??_int_strd,w
  2053  08CA  00E2               	movwf	int_strd@e
  2054  08CB                     l2714:	
  2055  08CB  0862               	movf	int_strd@e,w
  2056  08CC  160A  118A  2726  120A  158A  	fcall	_num_case
  2057  08D1                     l2716:	
  2058                           
  2059                           ;Lab3.c: 175:     loca = (n - e)*10;
  2060  08D1  1283               	bcf	3,5	;RP0=0, select bank0
  2061  08D2  1303               	bcf	3,6	;RP1=0, select bank0
  2062  08D3  0858               	movf	int_strd@n+3,w
  2063  08D4  00AF               	movwf	___flsub@b+3
  2064  08D5  0857               	movf	int_strd@n+2,w
  2065  08D6  00AE               	movwf	___flsub@b+2
  2066  08D7  0856               	movf	int_strd@n+1,w
  2067  08D8  00AD               	movwf	___flsub@b+1
  2068  08D9  0855               	movf	int_strd@n,w
  2069  08DA  00AC               	movwf	___flsub@b
  2070  08DB  0862               	movf	int_strd@e,w
  2071  08DC  00D9               	movwf	??_int_strd
  2072  08DD  01DA               	clrf	??_int_strd+1
  2073  08DE  01DB               	clrf	??_int_strd+2
  2074  08DF  01DC               	clrf	??_int_strd+3
  2075  08E0  085C               	movf	??_int_strd+3,w
  2076  08E1  00F3               	movwf	___xxtofl@val+3
  2077  08E2  085B               	movf	??_int_strd+2,w
  2078  08E3  00F2               	movwf	___xxtofl@val+2
  2079  08E4  085A               	movf	??_int_strd+1,w
  2080  08E5  00F1               	movwf	___xxtofl@val+1
  2081  08E6  0859               	movf	??_int_strd,w
  2082  08E7  00F0               	movwf	___xxtofl@val
  2083  08E8  3001               	movlw	1
  2084  08E9  120A  158A  21F6  120A  158A  	fcall	___xxtofl
  2085  08EE  0873               	movf	?___xxtofl+3,w
  2086  08EF  1283               	bcf	3,5	;RP0=0, select bank0
  2087  08F0  1303               	bcf	3,6	;RP1=0, select bank0
  2088  08F1  00AB               	movwf	___flsub@a+3
  2089  08F2  0872               	movf	?___xxtofl+2,w
  2090  08F3  00AA               	movwf	___flsub@a+2
  2091  08F4  0871               	movf	?___xxtofl+1,w
  2092  08F5  00A9               	movwf	___flsub@a+1
  2093  08F6  0870               	movf	?___xxtofl,w
  2094  08F7  00A8               	movwf	___flsub@a
  2095  08F8  160A  118A  2615  120A  158A  	fcall	___flsub
  2096  08FD  1283               	bcf	3,5	;RP0=0, select bank0
  2097  08FE  1303               	bcf	3,6	;RP1=0, select bank0
  2098  08FF  082B               	movf	?___flsub+3,w
  2099  0900  00B7               	movwf	___flmul@a+3
  2100  0901  082A               	movf	?___flsub+2,w
  2101  0902  00B6               	movwf	___flmul@a+2
  2102  0903  0829               	movf	?___flsub+1,w
  2103  0904  00B5               	movwf	___flmul@a+1
  2104  0905  0828               	movf	?___flsub,w
  2105  0906  00B4               	movwf	___flmul@a
  2106  0907  3041               	movlw	65
  2107  0908  00B3               	movwf	___flmul@b+3
  2108  0909  3020               	movlw	32
  2109  090A  00B2               	movwf	___flmul@b+2
  2110  090B  3000               	movlw	0
  2111  090C  00B1               	movwf	___flmul@b+1
  2112  090D  3000               	movlw	0
  2113  090E  00B0               	movwf	___flmul@b
  2114  090F  120A  118A  248B  120A  158A  	fcall	___flmul
  2115  0914  1283               	bcf	3,5	;RP0=0, select bank0
  2116  0915  1303               	bcf	3,6	;RP1=0, select bank0
  2117  0916  0833               	movf	?___flmul+3,w
  2118  0917  00CD               	movwf	___fltol@f1+3
  2119  0918  0832               	movf	?___flmul+2,w
  2120  0919  00CC               	movwf	___fltol@f1+2
  2121  091A  0831               	movf	?___flmul+1,w
  2122  091B  00CB               	movwf	___fltol@f1+1
  2123  091C  0830               	movf	?___flmul,w
  2124  091D  00CA               	movwf	___fltol@f1
  2125  091E  160A  118A  2784  120A  158A  	fcall	___fltol
  2126  0923  1283               	bcf	3,5	;RP0=0, select bank0
  2127  0924  1303               	bcf	3,6	;RP1=0, select bank0
  2128  0925  084A               	movf	?___fltol,w
  2129  0926  00DD               	movwf	??_int_strd+4
  2130  0927  085D               	movf	??_int_strd+4,w
  2131  0928  00E4               	movwf	int_strd@loca
  2132  0929                     l2718:	
  2133                           
  2134                           ;Lab3.c: 176:     d = loca;
  2135  0929  0864               	movf	int_strd@loca,w
  2136  092A  00D9               	movwf	??_int_strd
  2137  092B  0859               	movf	??_int_strd,w
  2138  092C  00E3               	movwf	int_strd@d
  2139  092D                     l2720:	
  2140                           
  2141                           ;Lab3.c: 177:     c2 = num_case(d);
  2142  092D  0863               	movf	int_strd@d,w
  2143  092E  160A  118A  2726  120A  158A  	fcall	_num_case
  2144  0933  1283               	bcf	3,5	;RP0=0, select bank0
  2145  0934  1303               	bcf	3,6	;RP1=0, select bank0
  2146  0935  00D9               	movwf	??_int_strd
  2147  0936  0859               	movf	??_int_strd,w
  2148  0937  00E1               	movwf	int_strd@c2
  2149  0938                     l2722:	
  2150                           
  2151                           ;Lab3.c: 178:     loca = (loca-d)*10;
  2152  0938  300A               	movlw	10
  2153  0939  00D9               	movwf	??_int_strd
  2154  093A  0859               	movf	??_int_strd,w
  2155  093B  00F0               	movwf	___bmul@multiplicand
  2156  093C  0863               	movf	int_strd@d,w
  2157  093D  0264               	subwf	int_strd@loca,w
  2158  093E  120A  158A  2004  120A  158A  	fcall	___bmul
  2159  0943  1283               	bcf	3,5	;RP0=0, select bank0
  2160  0944  1303               	bcf	3,6	;RP1=0, select bank0
  2161  0945  00DA               	movwf	??_int_strd+1
  2162  0946  085A               	movf	??_int_strd+1,w
  2163  0947  00E4               	movwf	int_strd@loca
  2164  0948                     l2724:	
  2165                           
  2166                           ;Lab3.c: 179:     c = loca;
  2167  0948  0864               	movf	int_strd@loca,w
  2168  0949  00D9               	movwf	??_int_strd
  2169  094A  0859               	movf	??_int_strd,w
  2170  094B  00E0               	movwf	int_strd@c
  2171  094C                     l2726:	
  2172  094C  0860               	movf	int_strd@c,w
  2173  094D  160A  118A  2726  120A  158A  	fcall	_num_case
  2174  0952                     l2728:	
  2175                           
  2176                           ;Lab3.c: 181:     return c2;
  2177  0952  1283               	bcf	3,5	;RP0=0, select bank0
  2178  0953  1303               	bcf	3,6	;RP1=0, select bank0
  2179  0954  0861               	movf	int_strd@c2,w
  2180  0955                     l202:	
  2181  0955  0008               	return
  2182  0956                     __end_of_int_strd:	
  2183                           
  2184                           	psect	text3
  2185  0804                     __ptext3:	
  2186 ;; *************** function ___bmul *****************
  2187 ;; Defined at:
  2188 ;;		line 4 in file "C:\Program Files (x86)\Microchip\xc8\v2.10\pic\sources\c90\common\Umul8.c"
  2189 ;; Parameters:    Size  Location     Type
  2190 ;;  multiplier      1    wreg     unsigned char 
  2191 ;;  multiplicand    1    0[COMMON] unsigned char 
  2192 ;; Auto vars:     Size  Location     Type
  2193 ;;  multiplier      1    3[COMMON] unsigned char 
  2194 ;;  product         1    2[COMMON] unsigned char 
  2195 ;; Return value:  Size  Location     Type
  2196 ;;                  1    wreg      unsigned char 
  2197 ;; Registers used:
  2198 ;;		wreg, status,2, status,0
  2199 ;; Tracked objects:
  2200 ;;		On entry : 0/0
  2201 ;;		On exit  : 0/0
  2202 ;;		Unchanged: 0/0
  2203 ;; Data sizes:     COMMON   BANK0   BANK1   BANK3   BANK2
  2204 ;;      Params:         1       0       0       0       0
  2205 ;;      Locals:         2       0       0       0       0
  2206 ;;      Temps:          1       0       0       0       0
  2207 ;;      Totals:         4       0       0       0       0
  2208 ;;Total ram usage:        4 bytes
  2209 ;; Hardware stack levels used:    1
  2210 ;; This function calls:
  2211 ;;		Nothing
  2212 ;; This function is called by:
  2213 ;;		_int_stre
  2214 ;;		_int_strd
  2215 ;;		_b0
  2216 ;; This function uses a non-reentrant model
  2217 ;;
  2218                           
  2219                           
  2220                           ;psect for function ___bmul
  2221  0804                     ___bmul:	
  2222                           
  2223                           ;incstack = 0
  2224                           ; Regs used in ___bmul: [wreg+status,2+status,0]
  2225                           ;___bmul@multiplier stored from wreg
  2226  0804  00F3               	movwf	___bmul@multiplier
  2227  0805                     l2270:	
  2228  0805  01F2               	clrf	___bmul@product
  2229  0806                     l2272:	
  2230  0806  1C73               	btfss	___bmul@multiplier,0
  2231  0807  2809               	goto	u2371
  2232  0808  280A               	goto	u2370
  2233  0809                     u2371:	
  2234  0809  280E               	goto	l2276
  2235  080A                     u2370:	
  2236  080A                     l2274:	
  2237  080A  0870               	movf	___bmul@multiplicand,w
  2238  080B  00F1               	movwf	??___bmul
  2239  080C  0871               	movf	??___bmul,w
  2240  080D  07F2               	addwf	___bmul@product,f
  2241  080E                     l2276:	
  2242  080E  1003               	clrc
  2243  080F  0DF0               	rlf	___bmul@multiplicand,f
  2244  0810                     l2278:	
  2245  0810  1003               	clrc
  2246  0811  0CF3               	rrf	___bmul@multiplier,f
  2247  0812  0873               	movf	___bmul@multiplier,w
  2248  0813  1D03               	btfss	3,2
  2249  0814  2816               	goto	u2381
  2250  0815  2817               	goto	u2380
  2251  0816                     u2381:	
  2252  0816  2806               	goto	l2272
  2253  0817                     u2380:	
  2254  0817                     l2280:	
  2255  0817  0872               	movf	___bmul@product,w
  2256  0818                     l396:	
  2257  0818  0008               	return
  2258  0819                     __end_of___bmul:	
  2259                           
  2260                           	psect	text4
  2261  0B8A                     __ptext4:	
  2262 ;; *************** function _int_strc *****************
  2263 ;; Defined at:
  2264 ;;		line 183 in file "Lab3.c"
  2265 ;; Parameters:    Size  Location     Type
  2266 ;;  n               4   53[BANK0 ] float 
  2267 ;; Auto vars:     Size  Location     Type
  2268 ;;  loca            4   67[BANK0 ] float 
  2269 ;;  d               1   66[BANK0 ] unsigned char 
  2270 ;;  e               1   65[BANK0 ] unsigned char 
  2271 ;;  c3              1   64[BANK0 ] unsigned char 
  2272 ;;  c               1   63[BANK0 ] unsigned char 
  2273 ;;  c2              1    0        unsigned char 
  2274 ;;  c1              1    0        unsigned char 
  2275 ;; Return value:  Size  Location     Type
  2276 ;;                  1    wreg      unsigned char 
  2277 ;; Registers used:
  2278 ;;		wreg, fsr0l, fsr0h, status,2, status,0, btemp+1, pclath, cstack
  2279 ;; Tracked objects:
  2280 ;;		On entry : 0/0
  2281 ;;		On exit  : 0/0
  2282 ;;		Unchanged: 0/0
  2283 ;; Data sizes:     COMMON   BANK0   BANK1   BANK3   BANK2
  2284 ;;      Params:         0       4       0       0       0
  2285 ;;      Locals:         0      10       0       0       0
  2286 ;;      Temps:          0       4       0       0       0
  2287 ;;      Totals:         0      18       0       0       0
  2288 ;;Total ram usage:       18 bytes
  2289 ;; Hardware stack levels used:    1
  2290 ;; Hardware stack levels required when called:    2
  2291 ;; This function calls:
  2292 ;;		___flmul
  2293 ;;		___flsub
  2294 ;;		___fltol
  2295 ;;		___xxtofl
  2296 ;;		_num_case
  2297 ;; This function is called by:
  2298 ;;		_main
  2299 ;; This function uses a non-reentrant model
  2300 ;;
  2301                           
  2302                           
  2303                           ;psect for function _int_strc
  2304  0B8A                     _int_strc:	
  2305  0B8A                     l2732:	
  2306                           ;incstack = 0
  2307                           ; Regs used in _int_strc: [wreg-fsr0h+status,2+status,0+btemp+1+pclath+cstack]
  2308                           
  2309                           
  2310                           ;Lab3.c: 184:     uint8_t e;;Lab3.c: 185:     uint8_t d;;Lab3.c: 186:     uint8_t c;;Lab
      +                          3.c: 187:     float loca;;Lab3.c: 188:     char c1;;Lab3.c: 189:     char c2;;Lab3.c: 19
      +                          0:     char c3;;Lab3.c: 192:     e = n;
  2311  0B8A  1283               	bcf	3,5	;RP0=0, select bank0
  2312  0B8B  1303               	bcf	3,6	;RP1=0, select bank0
  2313  0B8C  0858               	movf	int_strc@n+3,w
  2314  0B8D  00CD               	movwf	___fltol@f1+3
  2315  0B8E  0857               	movf	int_strc@n+2,w
  2316  0B8F  00CC               	movwf	___fltol@f1+2
  2317  0B90  0856               	movf	int_strc@n+1,w
  2318  0B91  00CB               	movwf	___fltol@f1+1
  2319  0B92  0855               	movf	int_strc@n,w
  2320  0B93  00CA               	movwf	___fltol@f1
  2321  0B94  160A  118A  2784  120A  158A  	fcall	___fltol
  2322  0B99  1283               	bcf	3,5	;RP0=0, select bank0
  2323  0B9A  1303               	bcf	3,6	;RP1=0, select bank0
  2324  0B9B  084A               	movf	?___fltol,w
  2325  0B9C  00D9               	movwf	??_int_strc
  2326  0B9D  0859               	movf	??_int_strc,w
  2327  0B9E  00E1               	movwf	int_strc@e
  2328  0B9F                     l2734:	
  2329  0B9F  0861               	movf	int_strc@e,w
  2330  0BA0  160A  118A  2726  120A  158A  	fcall	_num_case
  2331  0BA5                     l2736:	
  2332                           
  2333                           ;Lab3.c: 194:     loca = (n - e)*10;
  2334  0BA5  3041               	movlw	65
  2335  0BA6  1283               	bcf	3,5	;RP0=0, select bank0
  2336  0BA7  1303               	bcf	3,6	;RP1=0, select bank0
  2337  0BA8  00B3               	movwf	___flmul@b+3
  2338  0BA9  3020               	movlw	32
  2339  0BAA  00B2               	movwf	___flmul@b+2
  2340  0BAB  3000               	movlw	0
  2341  0BAC  00B1               	movwf	___flmul@b+1
  2342  0BAD  3000               	movlw	0
  2343  0BAE  00B0               	movwf	___flmul@b
  2344  0BAF  0861               	movf	int_strc@e,w
  2345  0BB0  00D9               	movwf	??_int_strc
  2346  0BB1  01DA               	clrf	??_int_strc+1
  2347  0BB2  01DB               	clrf	??_int_strc+2
  2348  0BB3  01DC               	clrf	??_int_strc+3
  2349  0BB4  085C               	movf	??_int_strc+3,w
  2350  0BB5  00F3               	movwf	___xxtofl@val+3
  2351  0BB6  085B               	movf	??_int_strc+2,w
  2352  0BB7  00F2               	movwf	___xxtofl@val+2
  2353  0BB8  085A               	movf	??_int_strc+1,w
  2354  0BB9  00F1               	movwf	___xxtofl@val+1
  2355  0BBA  0859               	movf	??_int_strc,w
  2356  0BBB  00F0               	movwf	___xxtofl@val
  2357  0BBC  3001               	movlw	1
  2358  0BBD  120A  158A  21F6  120A  158A  	fcall	___xxtofl
  2359  0BC2  0873               	movf	?___xxtofl+3,w
  2360  0BC3  1283               	bcf	3,5	;RP0=0, select bank0
  2361  0BC4  1303               	bcf	3,6	;RP1=0, select bank0
  2362  0BC5  00AB               	movwf	___flsub@a+3
  2363  0BC6  0872               	movf	?___xxtofl+2,w
  2364  0BC7  00AA               	movwf	___flsub@a+2
  2365  0BC8  0871               	movf	?___xxtofl+1,w
  2366  0BC9  00A9               	movwf	___flsub@a+1
  2367  0BCA  0870               	movf	?___xxtofl,w
  2368  0BCB  00A8               	movwf	___flsub@a
  2369  0BCC  0858               	movf	int_strc@n+3,w
  2370  0BCD  00AF               	movwf	___flsub@b+3
  2371  0BCE  0857               	movf	int_strc@n+2,w
  2372  0BCF  00AE               	movwf	___flsub@b+2
  2373  0BD0  0856               	movf	int_strc@n+1,w
  2374  0BD1  00AD               	movwf	___flsub@b+1
  2375  0BD2  0855               	movf	int_strc@n,w
  2376  0BD3  00AC               	movwf	___flsub@b
  2377  0BD4  160A  118A  2615  120A  158A  	fcall	___flsub
  2378  0BD9  1283               	bcf	3,5	;RP0=0, select bank0
  2379  0BDA  1303               	bcf	3,6	;RP1=0, select bank0
  2380  0BDB  082B               	movf	?___flsub+3,w
  2381  0BDC  00B7               	movwf	___flmul@a+3
  2382  0BDD  082A               	movf	?___flsub+2,w
  2383  0BDE  00B6               	movwf	___flmul@a+2
  2384  0BDF  0829               	movf	?___flsub+1,w
  2385  0BE0  00B5               	movwf	___flmul@a+1
  2386  0BE1  0828               	movf	?___flsub,w
  2387  0BE2  00B4               	movwf	___flmul@a
  2388  0BE3  120A  118A  248B  120A  158A  	fcall	___flmul
  2389  0BE8  1283               	bcf	3,5	;RP0=0, select bank0
  2390  0BE9  1303               	bcf	3,6	;RP1=0, select bank0
  2391  0BEA  0833               	movf	?___flmul+3,w
  2392  0BEB  00E6               	movwf	int_strc@loca+3
  2393  0BEC  0832               	movf	?___flmul+2,w
  2394  0BED  00E5               	movwf	int_strc@loca+2
  2395  0BEE  0831               	movf	?___flmul+1,w
  2396  0BEF  00E4               	movwf	int_strc@loca+1
  2397  0BF0  0830               	movf	?___flmul,w
  2398  0BF1  00E3               	movwf	int_strc@loca
  2399  0BF2                     l2738:	
  2400                           
  2401                           ;Lab3.c: 195:     d = loca;
  2402  0BF2  0866               	movf	int_strc@loca+3,w
  2403  0BF3  00CD               	movwf	___fltol@f1+3
  2404  0BF4  0865               	movf	int_strc@loca+2,w
  2405  0BF5  00CC               	movwf	___fltol@f1+2
  2406  0BF6  0864               	movf	int_strc@loca+1,w
  2407  0BF7  00CB               	movwf	___fltol@f1+1
  2408  0BF8  0863               	movf	int_strc@loca,w
  2409  0BF9  00CA               	movwf	___fltol@f1
  2410  0BFA  160A  118A  2784  120A  158A  	fcall	___fltol
  2411  0BFF  1283               	bcf	3,5	;RP0=0, select bank0
  2412  0C00  1303               	bcf	3,6	;RP1=0, select bank0
  2413  0C01  084A               	movf	?___fltol,w
  2414  0C02  00D9               	movwf	??_int_strc
  2415  0C03  0859               	movf	??_int_strc,w
  2416  0C04  00E2               	movwf	int_strc@d
  2417  0C05                     l2740:	
  2418  0C05  0862               	movf	int_strc@d,w
  2419  0C06  160A  118A  2726  120A  158A  	fcall	_num_case
  2420                           
  2421                           ;Lab3.c: 197:     loca = (loca-d)*10;
  2422  0C0B  3041               	movlw	65
  2423  0C0C  1283               	bcf	3,5	;RP0=0, select bank0
  2424  0C0D  1303               	bcf	3,6	;RP1=0, select bank0
  2425  0C0E  00B3               	movwf	___flmul@b+3
  2426  0C0F  3020               	movlw	32
  2427  0C10  00B2               	movwf	___flmul@b+2
  2428  0C11  3000               	movlw	0
  2429  0C12  00B1               	movwf	___flmul@b+1
  2430  0C13  3000               	movlw	0
  2431  0C14  00B0               	movwf	___flmul@b
  2432  0C15  0862               	movf	int_strc@d,w
  2433  0C16  00D9               	movwf	??_int_strc
  2434  0C17  01DA               	clrf	??_int_strc+1
  2435  0C18  01DB               	clrf	??_int_strc+2
  2436  0C19  01DC               	clrf	??_int_strc+3
  2437  0C1A  085C               	movf	??_int_strc+3,w
  2438  0C1B  00F3               	movwf	___xxtofl@val+3
  2439  0C1C  085B               	movf	??_int_strc+2,w
  2440  0C1D  00F2               	movwf	___xxtofl@val+2
  2441  0C1E  085A               	movf	??_int_strc+1,w
  2442  0C1F  00F1               	movwf	___xxtofl@val+1
  2443  0C20  0859               	movf	??_int_strc,w
  2444  0C21  00F0               	movwf	___xxtofl@val
  2445  0C22  3001               	movlw	1
  2446  0C23  120A  158A  21F6  120A  158A  	fcall	___xxtofl
  2447  0C28  0873               	movf	?___xxtofl+3,w
  2448  0C29  1283               	bcf	3,5	;RP0=0, select bank0
  2449  0C2A  1303               	bcf	3,6	;RP1=0, select bank0
  2450  0C2B  00AB               	movwf	___flsub@a+3
  2451  0C2C  0872               	movf	?___xxtofl+2,w
  2452  0C2D  00AA               	movwf	___flsub@a+2
  2453  0C2E  0871               	movf	?___xxtofl+1,w
  2454  0C2F  00A9               	movwf	___flsub@a+1
  2455  0C30  0870               	movf	?___xxtofl,w
  2456  0C31  00A8               	movwf	___flsub@a
  2457  0C32  0866               	movf	int_strc@loca+3,w
  2458  0C33  00AF               	movwf	___flsub@b+3
  2459  0C34  0865               	movf	int_strc@loca+2,w
  2460  0C35  00AE               	movwf	___flsub@b+2
  2461  0C36  0864               	movf	int_strc@loca+1,w
  2462  0C37  00AD               	movwf	___flsub@b+1
  2463  0C38  0863               	movf	int_strc@loca,w
  2464  0C39  00AC               	movwf	___flsub@b
  2465  0C3A  160A  118A  2615  120A  158A  	fcall	___flsub
  2466  0C3F  1283               	bcf	3,5	;RP0=0, select bank0
  2467  0C40  1303               	bcf	3,6	;RP1=0, select bank0
  2468  0C41  082B               	movf	?___flsub+3,w
  2469  0C42  00B7               	movwf	___flmul@a+3
  2470  0C43  082A               	movf	?___flsub+2,w
  2471  0C44  00B6               	movwf	___flmul@a+2
  2472  0C45  0829               	movf	?___flsub+1,w
  2473  0C46  00B5               	movwf	___flmul@a+1
  2474  0C47  0828               	movf	?___flsub,w
  2475  0C48  00B4               	movwf	___flmul@a
  2476  0C49  120A  118A  248B  120A  158A  	fcall	___flmul
  2477  0C4E  1283               	bcf	3,5	;RP0=0, select bank0
  2478  0C4F  1303               	bcf	3,6	;RP1=0, select bank0
  2479  0C50  0833               	movf	?___flmul+3,w
  2480  0C51  00E6               	movwf	int_strc@loca+3
  2481  0C52  0832               	movf	?___flmul+2,w
  2482  0C53  00E5               	movwf	int_strc@loca+2
  2483  0C54  0831               	movf	?___flmul+1,w
  2484  0C55  00E4               	movwf	int_strc@loca+1
  2485  0C56  0830               	movf	?___flmul,w
  2486  0C57  00E3               	movwf	int_strc@loca
  2487  0C58                     l2742:	
  2488                           
  2489                           ;Lab3.c: 198:     c = loca;
  2490  0C58  0866               	movf	int_strc@loca+3,w
  2491  0C59  00CD               	movwf	___fltol@f1+3
  2492  0C5A  0865               	movf	int_strc@loca+2,w
  2493  0C5B  00CC               	movwf	___fltol@f1+2
  2494  0C5C  0864               	movf	int_strc@loca+1,w
  2495  0C5D  00CB               	movwf	___fltol@f1+1
  2496  0C5E  0863               	movf	int_strc@loca,w
  2497  0C5F  00CA               	movwf	___fltol@f1
  2498  0C60  160A  118A  2784  120A  158A  	fcall	___fltol
  2499  0C65  1283               	bcf	3,5	;RP0=0, select bank0
  2500  0C66  1303               	bcf	3,6	;RP1=0, select bank0
  2501  0C67  084A               	movf	?___fltol,w
  2502  0C68  00D9               	movwf	??_int_strc
  2503  0C69  0859               	movf	??_int_strc,w
  2504  0C6A  00DF               	movwf	int_strc@c
  2505  0C6B                     l2744:	
  2506                           
  2507                           ;Lab3.c: 199:     c3 = num_case(c);
  2508  0C6B  085F               	movf	int_strc@c,w
  2509  0C6C  160A  118A  2726  120A  158A  	fcall	_num_case
  2510  0C71  1283               	bcf	3,5	;RP0=0, select bank0
  2511  0C72  1303               	bcf	3,6	;RP1=0, select bank0
  2512  0C73  00D9               	movwf	??_int_strc
  2513  0C74  0859               	movf	??_int_strc,w
  2514  0C75  00E0               	movwf	int_strc@c3
  2515  0C76                     l2746:	
  2516                           
  2517                           ;Lab3.c: 200:     return c3;
  2518  0C76  0860               	movf	int_strc@c3,w
  2519  0C77                     l205:	
  2520  0C77  0008               	return
  2521  0C78                     __end_of_int_strc:	
  2522                           
  2523                           	psect	text5
  2524  1726                     __ptext5:	
  2525 ;; *************** function _num_case *****************
  2526 ;; Defined at:
  2527 ;;		line 241 in file "Lab3.c"
  2528 ;; Parameters:    Size  Location     Type
  2529 ;;  num             1    wreg     unsigned char 
  2530 ;; Auto vars:     Size  Location     Type
  2531 ;;  num             1    2[COMMON] unsigned char 
  2532 ;;  r               1    3[COMMON] unsigned char 
  2533 ;; Return value:  Size  Location     Type
  2534 ;;                  1    wreg      unsigned char 
  2535 ;; Registers used:
  2536 ;;		wreg, fsr0l, fsr0h, status,2, status,0
  2537 ;; Tracked objects:
  2538 ;;		On entry : 0/0
  2539 ;;		On exit  : 0/0
  2540 ;;		Unchanged: 0/0
  2541 ;; Data sizes:     COMMON   BANK0   BANK1   BANK3   BANK2
  2542 ;;      Params:         0       0       0       0       0
  2543 ;;      Locals:         2       0       0       0       0
  2544 ;;      Temps:          2       0       0       0       0
  2545 ;;      Totals:         4       0       0       0       0
  2546 ;;Total ram usage:        4 bytes
  2547 ;; Hardware stack levels used:    1
  2548 ;; This function calls:
  2549 ;;		Nothing
  2550 ;; This function is called by:
  2551 ;;		_int_stre
  2552 ;;		_int_strd
  2553 ;;		_int_strc
  2554 ;;		_b2
  2555 ;;		_b1
  2556 ;;		_b0
  2557 ;; This function uses a non-reentrant model
  2558 ;;
  2559                           
  2560                           
  2561                           ;psect for function _num_case
  2562  1726                     _num_case:	
  2563                           
  2564                           ;incstack = 0
  2565                           ; Regs used in _num_case: [wreg-fsr0h+status,2+status,0]
  2566                           ;num_case@num stored from wreg
  2567  1726  00F2               	movwf	num_case@num
  2568  1727                     l2236:	
  2569                           
  2570                           ;Lab3.c: 242:     char r;;Lab3.c: 243:     switch(num){
  2571  1727  2F5A               	goto	l2260
  2572  1728                     l2238:	
  2573                           
  2574                           ;Lab3.c: 245:             r = '0';
  2575  1728  3030               	movlw	48
  2576  1729  00F0               	movwf	??_num_case
  2577  172A  0870               	movf	??_num_case,w
  2578  172B  00F3               	movwf	num_case@r
  2579                           
  2580                           ;Lab3.c: 246:             break;
  2581  172C  2F82               	goto	l2262
  2582  172D                     l2240:	
  2583                           
  2584                           ;Lab3.c: 248:             r = '1';
  2585  172D  3031               	movlw	49
  2586  172E  00F0               	movwf	??_num_case
  2587  172F  0870               	movf	??_num_case,w
  2588  1730  00F3               	movwf	num_case@r
  2589                           
  2590                           ;Lab3.c: 249:             break;
  2591  1731  2F82               	goto	l2262
  2592  1732                     l2242:	
  2593                           
  2594                           ;Lab3.c: 251:             r = '2';
  2595  1732  3032               	movlw	50
  2596  1733  00F0               	movwf	??_num_case
  2597  1734  0870               	movf	??_num_case,w
  2598  1735  00F3               	movwf	num_case@r
  2599                           
  2600                           ;Lab3.c: 252:             break;
  2601  1736  2F82               	goto	l2262
  2602  1737                     l2244:	
  2603                           
  2604                           ;Lab3.c: 254:             r = '3';
  2605  1737  3033               	movlw	51
  2606  1738  00F0               	movwf	??_num_case
  2607  1739  0870               	movf	??_num_case,w
  2608  173A  00F3               	movwf	num_case@r
  2609                           
  2610                           ;Lab3.c: 255:             break;
  2611  173B  2F82               	goto	l2262
  2612  173C                     l2246:	
  2613                           
  2614                           ;Lab3.c: 257:             r = '4';
  2615  173C  3034               	movlw	52
  2616  173D  00F0               	movwf	??_num_case
  2617  173E  0870               	movf	??_num_case,w
  2618  173F  00F3               	movwf	num_case@r
  2619                           
  2620                           ;Lab3.c: 258:             break;
  2621  1740  2F82               	goto	l2262
  2622  1741                     l2248:	
  2623                           
  2624                           ;Lab3.c: 260:             r = '5';
  2625  1741  3035               	movlw	53
  2626  1742  00F0               	movwf	??_num_case
  2627  1743  0870               	movf	??_num_case,w
  2628  1744  00F3               	movwf	num_case@r
  2629                           
  2630                           ;Lab3.c: 261:             break;
  2631  1745  2F82               	goto	l2262
  2632  1746                     l2250:	
  2633                           
  2634                           ;Lab3.c: 263:             r = '6';
  2635  1746  3036               	movlw	54
  2636  1747  00F0               	movwf	??_num_case
  2637  1748  0870               	movf	??_num_case,w
  2638  1749  00F3               	movwf	num_case@r
  2639                           
  2640                           ;Lab3.c: 264:             break;
  2641  174A  2F82               	goto	l2262
  2642  174B                     l2252:	
  2643                           
  2644                           ;Lab3.c: 266:             r = '7';
  2645  174B  3037               	movlw	55
  2646  174C  00F0               	movwf	??_num_case
  2647  174D  0870               	movf	??_num_case,w
  2648  174E  00F3               	movwf	num_case@r
  2649                           
  2650                           ;Lab3.c: 267:             break;
  2651  174F  2F82               	goto	l2262
  2652  1750                     l2254:	
  2653                           
  2654                           ;Lab3.c: 269:             r = '8';
  2655  1750  3038               	movlw	56
  2656  1751  00F0               	movwf	??_num_case
  2657  1752  0870               	movf	??_num_case,w
  2658  1753  00F3               	movwf	num_case@r
  2659                           
  2660                           ;Lab3.c: 270:             break;
  2661  1754  2F82               	goto	l2262
  2662  1755                     l2256:	
  2663                           
  2664                           ;Lab3.c: 272:             r = '9';
  2665  1755  3039               	movlw	57
  2666  1756  00F0               	movwf	??_num_case
  2667  1757  0870               	movf	??_num_case,w
  2668  1758  00F3               	movwf	num_case@r
  2669                           
  2670                           ;Lab3.c: 273:             break;
  2671  1759  2F82               	goto	l2262
  2672  175A                     l2260:	
  2673  175A  0872               	movf	num_case@num,w
  2674  175B  00F0               	movwf	??_num_case
  2675  175C  01F1               	clrf	??_num_case+1
  2676                           
  2677                           ; Switch on 2 bytes has been partitioned into a top level switch of size 1, and 1 sub-sw
      +                          itches
  2678                           ; Switch size 1, requested type "simple"
  2679                           ; Number of cases is 1, Range of values is 0 to 0
  2680                           ; switch strategies available:
  2681                           ; Name         Instructions Cycles
  2682                           ; simple_byte            4     3 (average)
  2683                           ; direct_byte           11     8 (fixed)
  2684                           ; jumptable            260     6 (fixed)
  2685                           ;	Chosen strategy is simple_byte
  2686  175D  0871               	movf	??_num_case+1,w
  2687  175E  3A00               	xorlw	0	; case 0
  2688  175F  1903               	skipnz
  2689  1760  2F62               	goto	l3074
  2690  1761  2F82               	goto	l2262
  2691  1762                     l3074:	
  2692                           
  2693                           ; Switch size 1, requested type "simple"
  2694                           ; Number of cases is 10, Range of values is 0 to 9
  2695                           ; switch strategies available:
  2696                           ; Name         Instructions Cycles
  2697                           ; simple_byte           31    16 (average)
  2698                           ; direct_byte           38     8 (fixed)
  2699                           ; jumptable            260     6 (fixed)
  2700                           ;	Chosen strategy is simple_byte
  2701  1762  0870               	movf	??_num_case,w
  2702  1763  3A00               	xorlw	0	; case 0
  2703  1764  1903               	skipnz
  2704  1765  2F28               	goto	l2238
  2705  1766  3A01               	xorlw	1	; case 1
  2706  1767  1903               	skipnz
  2707  1768  2F2D               	goto	l2240
  2708  1769  3A03               	xorlw	3	; case 2
  2709  176A  1903               	skipnz
  2710  176B  2F32               	goto	l2242
  2711  176C  3A01               	xorlw	1	; case 3
  2712  176D  1903               	skipnz
  2713  176E  2F37               	goto	l2244
  2714  176F  3A07               	xorlw	7	; case 4
  2715  1770  1903               	skipnz
  2716  1771  2F3C               	goto	l2246
  2717  1772  3A01               	xorlw	1	; case 5
  2718  1773  1903               	skipnz
  2719  1774  2F41               	goto	l2248
  2720  1775  3A03               	xorlw	3	; case 6
  2721  1776  1903               	skipnz
  2722  1777  2F46               	goto	l2250
  2723  1778  3A01               	xorlw	1	; case 7
  2724  1779  1903               	skipnz
  2725  177A  2F4B               	goto	l2252
  2726  177B  3A0F               	xorlw	15	; case 8
  2727  177C  1903               	skipnz
  2728  177D  2F50               	goto	l2254
  2729  177E  3A01               	xorlw	1	; case 9
  2730  177F  1903               	skipnz
  2731  1780  2F55               	goto	l2256
  2732  1781  2F82               	goto	l2262
  2733  1782                     l2262:	
  2734                           
  2735                           ;Lab3.c: 275:     return r;
  2736  1782  0873               	movf	num_case@r,w
  2737  1783                     l229:	
  2738  1783  0008               	return
  2739  1784                     __end_of_num_case:	
  2740                           
  2741                           	psect	text6
  2742  09F6                     __ptext6:	
  2743 ;; *************** function ___xxtofl *****************
  2744 ;; Defined at:
  2745 ;;		line 10 in file "C:\Program Files (x86)\Microchip\xc8\v2.10\pic\sources\c90\common\xxtofl.c"
  2746 ;; Parameters:    Size  Location     Type
  2747 ;;  sign            1    wreg     unsigned char 
  2748 ;;  val             4    0[COMMON] long 
  2749 ;; Auto vars:     Size  Location     Type
  2750 ;;  sign            1    8[COMMON] unsigned char 
  2751 ;;  arg             4   10[COMMON] unsigned long 
  2752 ;;  exp             1    9[COMMON] unsigned char 
  2753 ;; Return value:  Size  Location     Type
  2754 ;;                  4    0[COMMON] unsigned char 
  2755 ;; Registers used:
  2756 ;;		wreg, status,2, status,0
  2757 ;; Tracked objects:
  2758 ;;		On entry : 0/0
  2759 ;;		On exit  : 0/0
  2760 ;;		Unchanged: 0/0
  2761 ;; Data sizes:     COMMON   BANK0   BANK1   BANK3   BANK2
  2762 ;;      Params:         4       0       0       0       0
  2763 ;;      Locals:         6       0       0       0       0
  2764 ;;      Temps:          4       0       0       0       0
  2765 ;;      Totals:        14       0       0       0       0
  2766 ;;Total ram usage:       14 bytes
  2767 ;; Hardware stack levels used:    1
  2768 ;; This function calls:
  2769 ;;		Nothing
  2770 ;; This function is called by:
  2771 ;;		_main
  2772 ;;		_int_stre
  2773 ;;		_int_strd
  2774 ;;		_int_strc
  2775 ;;		_b1
  2776 ;;		_b0
  2777 ;; This function uses a non-reentrant model
  2778 ;;
  2779                           
  2780                           
  2781                           ;psect for function ___xxtofl
  2782  09F6                     ___xxtofl:	
  2783                           
  2784                           ;incstack = 0
  2785                           ; Regs used in ___xxtofl: [wreg+status,2+status,0]
  2786                           ;___xxtofl@sign stored from wreg
  2787  09F6  00F8               	movwf	___xxtofl@sign
  2788  09F7                     l2506:	
  2789  09F7  0878               	movf	___xxtofl@sign,w
  2790  09F8  1903               	btfsc	3,2
  2791  09F9  29FB               	goto	u2961
  2792  09FA  29FC               	goto	u2960
  2793  09FB                     u2961:	
  2794  09FB  2A10               	goto	l2512
  2795  09FC                     u2960:	
  2796  09FC                     l2508:	
  2797  09FC  1FF3               	btfss	___xxtofl@val+3,7
  2798  09FD  29FF               	goto	u2971
  2799  09FE  2A00               	goto	u2970
  2800  09FF                     u2971:	
  2801  09FF  2A10               	goto	l2512
  2802  0A00                     u2970:	
  2803  0A00                     l2510:	
  2804  0A00  0970               	comf	___xxtofl@val,w
  2805  0A01  00FA               	movwf	___xxtofl@arg
  2806  0A02  0971               	comf	___xxtofl@val+1,w
  2807  0A03  00FB               	movwf	___xxtofl@arg+1
  2808  0A04  0972               	comf	___xxtofl@val+2,w
  2809  0A05  00FC               	movwf	___xxtofl@arg+2
  2810  0A06  0973               	comf	___xxtofl@val+3,w
  2811  0A07  00FD               	movwf	___xxtofl@arg+3
  2812  0A08  0AFA               	incf	___xxtofl@arg,f
  2813  0A09  1903               	skipnz
  2814  0A0A  0AFB               	incf	___xxtofl@arg+1,f
  2815  0A0B  1903               	skipnz
  2816  0A0C  0AFC               	incf	___xxtofl@arg+2,f
  2817  0A0D  1903               	skipnz
  2818  0A0E  0AFD               	incf	___xxtofl@arg+3,f
  2819  0A0F  2A18               	goto	l797
  2820  0A10                     l2512:	
  2821  0A10  0873               	movf	___xxtofl@val+3,w
  2822  0A11  00FD               	movwf	___xxtofl@arg+3
  2823  0A12  0872               	movf	___xxtofl@val+2,w
  2824  0A13  00FC               	movwf	___xxtofl@arg+2
  2825  0A14  0871               	movf	___xxtofl@val+1,w
  2826  0A15  00FB               	movwf	___xxtofl@arg+1
  2827  0A16  0870               	movf	___xxtofl@val,w
  2828  0A17  00FA               	movwf	___xxtofl@arg
  2829  0A18                     l797:	
  2830  0A18  0873               	movf	___xxtofl@val+3,w
  2831  0A19  0472               	iorwf	___xxtofl@val+2,w
  2832  0A1A  0471               	iorwf	___xxtofl@val+1,w
  2833  0A1B  0470               	iorwf	___xxtofl@val,w
  2834  0A1C  1D03               	skipz
  2835  0A1D  2A1F               	goto	u2981
  2836  0A1E  2A20               	goto	u2980
  2837  0A1F                     u2981:	
  2838  0A1F  2A29               	goto	l2518
  2839  0A20                     u2980:	
  2840  0A20                     l2514:	
  2841  0A20  3000               	movlw	0
  2842  0A21  00F3               	movwf	?___xxtofl+3
  2843  0A22  3000               	movlw	0
  2844  0A23  00F2               	movwf	?___xxtofl+2
  2845  0A24  3000               	movlw	0
  2846  0A25  00F1               	movwf	?___xxtofl+1
  2847  0A26  3000               	movlw	0
  2848  0A27  00F0               	movwf	?___xxtofl
  2849  0A28  2AAF               	goto	l799
  2850  0A29                     l2518:	
  2851  0A29  3096               	movlw	150
  2852  0A2A  00F4               	movwf	??___xxtofl
  2853  0A2B  0874               	movf	??___xxtofl,w
  2854  0A2C  00F9               	movwf	___xxtofl@exp
  2855  0A2D  2A3B               	goto	l2522
  2856  0A2E                     l2520:	
  2857  0A2E  3001               	movlw	1
  2858  0A2F  00F4               	movwf	??___xxtofl
  2859  0A30  0874               	movf	??___xxtofl,w
  2860  0A31  07F9               	addwf	___xxtofl@exp,f
  2861  0A32  3001               	movlw	1
  2862  0A33                     u2995:	
  2863  0A33  1003               	clrc
  2864  0A34  0CFD               	rrf	___xxtofl@arg+3,f
  2865  0A35  0CFC               	rrf	___xxtofl@arg+2,f
  2866  0A36  0CFB               	rrf	___xxtofl@arg+1,f
  2867  0A37  0CFA               	rrf	___xxtofl@arg,f
  2868  0A38  3EFF               	addlw	-1
  2869  0A39  1D03               	skipz
  2870  0A3A  2A33               	goto	u2995
  2871  0A3B                     l2522:	
  2872  0A3B  30FE               	movlw	254
  2873  0A3C  057D               	andwf	___xxtofl@arg+3,w
  2874  0A3D  1D03               	btfss	3,2
  2875  0A3E  2A40               	goto	u3001
  2876  0A3F  2A41               	goto	u3000
  2877  0A40                     u3001:	
  2878  0A40  2A2E               	goto	l2520
  2879  0A41                     u3000:	
  2880  0A41  2A5D               	goto	l803
  2881  0A42                     l2524:	
  2882  0A42  3001               	movlw	1
  2883  0A43  00F4               	movwf	??___xxtofl
  2884  0A44  0874               	movf	??___xxtofl,w
  2885  0A45  07F9               	addwf	___xxtofl@exp,f
  2886  0A46                     l2526:	
  2887  0A46  3001               	movlw	1
  2888  0A47  07FA               	addwf	___xxtofl@arg,f
  2889  0A48  3000               	movlw	0
  2890  0A49  1803               	skipnc
  2891  0A4A  3001               	movlw	1
  2892  0A4B  07FB               	addwf	___xxtofl@arg+1,f
  2893  0A4C  3000               	movlw	0
  2894  0A4D  1803               	skipnc
  2895  0A4E  3001               	movlw	1
  2896  0A4F  07FC               	addwf	___xxtofl@arg+2,f
  2897  0A50  3000               	movlw	0
  2898  0A51  1803               	skipnc
  2899  0A52  3001               	movlw	1
  2900  0A53  07FD               	addwf	___xxtofl@arg+3,f
  2901  0A54                     l2528:	
  2902  0A54  3001               	movlw	1
  2903  0A55                     u3015:	
  2904  0A55  1003               	clrc
  2905  0A56  0CFD               	rrf	___xxtofl@arg+3,f
  2906  0A57  0CFC               	rrf	___xxtofl@arg+2,f
  2907  0A58  0CFB               	rrf	___xxtofl@arg+1,f
  2908  0A59  0CFA               	rrf	___xxtofl@arg,f
  2909  0A5A  3EFF               	addlw	-1
  2910  0A5B  1D03               	skipz
  2911  0A5C  2A55               	goto	u3015
  2912  0A5D                     l803:	
  2913  0A5D  30FF               	movlw	255
  2914  0A5E  057D               	andwf	___xxtofl@arg+3,w
  2915  0A5F  1D03               	btfss	3,2
  2916  0A60  2A62               	goto	u3021
  2917  0A61  2A63               	goto	u3020
  2918  0A62                     u3021:	
  2919  0A62  2A42               	goto	l2524
  2920  0A63                     u3020:	
  2921  0A63  2A6F               	goto	l2532
  2922  0A64                     l2530:	
  2923  0A64  3001               	movlw	1
  2924  0A65  02F9               	subwf	___xxtofl@exp,f
  2925  0A66  3001               	movlw	1
  2926  0A67  00F4               	movwf	??___xxtofl
  2927  0A68                     u3035:	
  2928  0A68  1003               	clrc
  2929  0A69  0DFA               	rlf	___xxtofl@arg,f
  2930  0A6A  0DFB               	rlf	___xxtofl@arg+1,f
  2931  0A6B  0DFC               	rlf	___xxtofl@arg+2,f
  2932  0A6C  0DFD               	rlf	___xxtofl@arg+3,f
  2933  0A6D  0BF4               	decfsz	??___xxtofl,f
  2934  0A6E  2A68               	goto	u3035
  2935  0A6F                     l2532:	
  2936  0A6F  1BFC               	btfsc	___xxtofl@arg+2,7
  2937  0A70  2A72               	goto	u3041
  2938  0A71  2A73               	goto	u3040
  2939  0A72                     u3041:	
  2940  0A72  2A79               	goto	l810
  2941  0A73                     u3040:	
  2942  0A73                     l2534:	
  2943  0A73  3002               	movlw	2
  2944  0A74  0279               	subwf	___xxtofl@exp,w
  2945  0A75  1803               	skipnc
  2946  0A76  2A78               	goto	u3051
  2947  0A77  2A79               	goto	u3050
  2948  0A78                     u3051:	
  2949  0A78  2A64               	goto	l2530
  2950  0A79                     u3050:	
  2951  0A79                     l810:	
  2952  0A79  1879               	btfsc	___xxtofl@exp,0
  2953  0A7A  2A7C               	goto	u3061
  2954  0A7B  2A7D               	goto	u3060
  2955  0A7C                     u3061:	
  2956  0A7C  2A85               	goto	l811
  2957  0A7D                     u3060:	
  2958  0A7D                     l2536:	
  2959  0A7D  30FF               	movlw	255
  2960  0A7E  05FA               	andwf	___xxtofl@arg,f
  2961  0A7F  30FF               	movlw	255
  2962  0A80  05FB               	andwf	___xxtofl@arg+1,f
  2963  0A81  307F               	movlw	127
  2964  0A82  05FC               	andwf	___xxtofl@arg+2,f
  2965  0A83  30FF               	movlw	255
  2966  0A84  05FD               	andwf	___xxtofl@arg+3,f
  2967  0A85                     l811:	
  2968  0A85  1003               	clrc
  2969  0A86  0CF9               	rrf	___xxtofl@exp,f
  2970  0A87                     l2538:	
  2971  0A87  0879               	movf	___xxtofl@exp,w
  2972  0A88  00F4               	movwf	??___xxtofl
  2973  0A89  01F5               	clrf	??___xxtofl+1
  2974  0A8A  01F6               	clrf	??___xxtofl+2
  2975  0A8B  01F7               	clrf	??___xxtofl+3
  2976  0A8C  3018               	movlw	24
  2977  0A8D                     u3075:	
  2978  0A8D  1003               	clrc
  2979  0A8E  0DF4               	rlf	??___xxtofl,f
  2980  0A8F  0DF5               	rlf	??___xxtofl+1,f
  2981  0A90  0DF6               	rlf	??___xxtofl+2,f
  2982  0A91  0DF7               	rlf	??___xxtofl+3,f
  2983  0A92                     u3070:	
  2984  0A92  3EFF               	addlw	-1
  2985  0A93  1D03               	skipz
  2986  0A94  2A8D               	goto	u3075
  2987  0A95  0874               	movf	??___xxtofl,w
  2988  0A96  04FA               	iorwf	___xxtofl@arg,f
  2989  0A97  0875               	movf	??___xxtofl+1,w
  2990  0A98  04FB               	iorwf	___xxtofl@arg+1,f
  2991  0A99  0876               	movf	??___xxtofl+2,w
  2992  0A9A  04FC               	iorwf	___xxtofl@arg+2,f
  2993  0A9B  0877               	movf	??___xxtofl+3,w
  2994  0A9C  04FD               	iorwf	___xxtofl@arg+3,f
  2995  0A9D                     l2540:	
  2996  0A9D  0878               	movf	___xxtofl@sign,w
  2997  0A9E  1903               	btfsc	3,2
  2998  0A9F  2AA1               	goto	u3081
  2999  0AA0  2AA2               	goto	u3080
  3000  0AA1                     u3081:	
  3001  0AA1  2AA7               	goto	l2546
  3002  0AA2                     u3080:	
  3003  0AA2                     l2542:	
  3004  0AA2  1FF3               	btfss	___xxtofl@val+3,7
  3005  0AA3  2AA5               	goto	u3091
  3006  0AA4  2AA6               	goto	u3090
  3007  0AA5                     u3091:	
  3008  0AA5  2AA7               	goto	l2546
  3009  0AA6                     u3090:	
  3010  0AA6                     l2544:	
  3011  0AA6  17FD               	bsf	___xxtofl@arg+3,7
  3012  0AA7                     l2546:	
  3013  0AA7  087D               	movf	___xxtofl@arg+3,w
  3014  0AA8  00F3               	movwf	?___xxtofl+3
  3015  0AA9  087C               	movf	___xxtofl@arg+2,w
  3016  0AAA  00F2               	movwf	?___xxtofl+2
  3017  0AAB  087B               	movf	___xxtofl@arg+1,w
  3018  0AAC  00F1               	movwf	?___xxtofl+1
  3019  0AAD  087A               	movf	___xxtofl@arg,w
  3020  0AAE  00F0               	movwf	?___xxtofl
  3021  0AAF                     l799:	
  3022  0AAF  0008               	return
  3023  0AB0                     __end_of___xxtofl:	
  3024                           
  3025                           	psect	text7
  3026  1784                     __ptext7:	
  3027 ;; *************** function ___fltol *****************
  3028 ;; Defined at:
  3029 ;;		line 43 in file "C:\Program Files (x86)\Microchip\xc8\v2.10\pic\sources\c90\common\fltol.c"
  3030 ;; Parameters:    Size  Location     Type
  3031 ;;  f1              4   42[BANK0 ] unsigned char 
  3032 ;; Auto vars:     Size  Location     Type
  3033 ;;  exp1            1   52[BANK0 ] unsigned char 
  3034 ;;  sign1           1   51[BANK0 ] unsigned char 
  3035 ;; Return value:  Size  Location     Type
  3036 ;;                  4   42[BANK0 ] long 
  3037 ;; Registers used:
  3038 ;;		wreg, status,2, status,0
  3039 ;; Tracked objects:
  3040 ;;		On entry : 0/0
  3041 ;;		On exit  : 0/0
  3042 ;;		Unchanged: 0/0
  3043 ;; Data sizes:     COMMON   BANK0   BANK1   BANK3   BANK2
  3044 ;;      Params:         0       4       0       0       0
  3045 ;;      Locals:         0       2       0       0       0
  3046 ;;      Temps:          0       5       0       0       0
  3047 ;;      Totals:         0      11       0       0       0
  3048 ;;Total ram usage:       11 bytes
  3049 ;; Hardware stack levels used:    1
  3050 ;; This function calls:
  3051 ;;		Nothing
  3052 ;; This function is called by:
  3053 ;;		_int_stre
  3054 ;;		_int_strd
  3055 ;;		_int_strc
  3056 ;;		_b2
  3057 ;;		_b1
  3058 ;;		_b0
  3059 ;; This function uses a non-reentrant model
  3060 ;;
  3061                           
  3062                           
  3063                           ;psect for function ___fltol
  3064  1784                     ___fltol:	
  3065  1784                     l2324:	
  3066                           ;incstack = 0
  3067                           ; Regs used in ___fltol: [wreg+status,2+status,0]
  3068                           
  3069  1784  1003               	clrc
  3070  1785  1283               	bcf	3,5	;RP0=0, select bank0
  3071  1786  1303               	bcf	3,6	;RP1=0, select bank0
  3072  1787  0D4C               	rlf	___fltol@f1+2,w
  3073  1788  0D4D               	rlf	___fltol@f1+3,w
  3074  1789  00CE               	movwf	??___fltol
  3075  178A  084E               	movf	??___fltol,w
  3076  178B  00D4               	movwf	___fltol@exp1
  3077  178C  0854               	movf	___fltol@exp1,w
  3078  178D  1D03               	btfss	3,2
  3079  178E  2F90               	goto	u2491
  3080  178F  2F91               	goto	u2490
  3081  1790                     u2491:	
  3082  1790  2F9A               	goto	l2330
  3083  1791                     u2490:	
  3084  1791                     l2326:	
  3085  1791  3000               	movlw	0
  3086  1792  00CD               	movwf	?___fltol+3
  3087  1793  3000               	movlw	0
  3088  1794  00CC               	movwf	?___fltol+2
  3089  1795  3000               	movlw	0
  3090  1796  00CB               	movwf	?___fltol+1
  3091  1797  3000               	movlw	0
  3092  1798  00CA               	movwf	?___fltol
  3093  1799  2FFF               	goto	l556
  3094  179A                     l2330:	
  3095  179A  084A               	movf	___fltol@f1,w
  3096  179B  00CE               	movwf	??___fltol
  3097  179C  084B               	movf	___fltol@f1+1,w
  3098  179D  00CF               	movwf	??___fltol+1
  3099  179E  084C               	movf	___fltol@f1+2,w
  3100  179F  00D0               	movwf	??___fltol+2
  3101  17A0  084D               	movf	___fltol@f1+3,w
  3102  17A1  00D1               	movwf	??___fltol+3
  3103  17A2  301F               	movlw	31
  3104  17A3                     u2505:	
  3105  17A3  1003               	clrc
  3106  17A4  0CD1               	rrf	??___fltol+3,f
  3107  17A5  0CD0               	rrf	??___fltol+2,f
  3108  17A6  0CCF               	rrf	??___fltol+1,f
  3109  17A7  0CCE               	rrf	??___fltol,f
  3110  17A8                     u2500:	
  3111  17A8  3EFF               	addlw	-1
  3112  17A9  1D03               	skipz
  3113  17AA  2FA3               	goto	u2505
  3114  17AB  084E               	movf	??___fltol,w
  3115  17AC  00D2               	movwf	??___fltol+4
  3116  17AD  0852               	movf	??___fltol+4,w
  3117  17AE  00D3               	movwf	___fltol@sign1
  3118  17AF                     l2332:	
  3119  17AF  17CC               	bsf	___fltol@f1+2,7
  3120  17B0                     l2334:	
  3121  17B0  30FF               	movlw	255
  3122  17B1  05CA               	andwf	___fltol@f1,f
  3123  17B2  30FF               	movlw	255
  3124  17B3  05CB               	andwf	___fltol@f1+1,f
  3125  17B4  30FF               	movlw	255
  3126  17B5  05CC               	andwf	___fltol@f1+2,f
  3127  17B6  3000               	movlw	0
  3128  17B7  05CD               	andwf	___fltol@f1+3,f
  3129  17B8                     l2336:	
  3130  17B8  3096               	movlw	150
  3131  17B9  02D4               	subwf	___fltol@exp1,f
  3132  17BA                     l2338:	
  3133  17BA  1FD4               	btfss	___fltol@exp1,7
  3134  17BB  2FBD               	goto	u2511
  3135  17BC  2FBE               	goto	u2510
  3136  17BD                     u2511:	
  3137  17BD  2FD8               	goto	l2348
  3138  17BE                     u2510:	
  3139  17BE                     l2340:	
  3140  17BE  0854               	movf	___fltol@exp1,w
  3141  17BF  3A80               	xorlw	128
  3142  17C0  3E97               	addlw	151
  3143  17C1  1803               	skipnc
  3144  17C2  2FC4               	goto	u2521
  3145  17C3  2FC5               	goto	u2520
  3146  17C4                     u2521:	
  3147  17C4  2FC6               	goto	l2346
  3148  17C5                     u2520:	
  3149  17C5  2F91               	goto	l2326
  3150  17C6                     l2346:	
  3151  17C6  3001               	movlw	1
  3152  17C7                     u2535:	
  3153  17C7  1003               	clrc
  3154  17C8  0CCD               	rrf	___fltol@f1+3,f
  3155  17C9  0CCC               	rrf	___fltol@f1+2,f
  3156  17CA  0CCB               	rrf	___fltol@f1+1,f
  3157  17CB  0CCA               	rrf	___fltol@f1,f
  3158  17CC  3EFF               	addlw	-1
  3159  17CD  1D03               	skipz
  3160  17CE  2FC7               	goto	u2535
  3161  17CF  3001               	movlw	1
  3162  17D0  00CE               	movwf	??___fltol
  3163  17D1  084E               	movf	??___fltol,w
  3164  17D2  07D4               	addwf	___fltol@exp1,f
  3165  17D3  1D03               	btfss	3,2
  3166  17D4  2FD6               	goto	u2541
  3167  17D5  2FD7               	goto	u2540
  3168  17D6                     u2541:	
  3169  17D6  2FC6               	goto	l2346
  3170  17D7                     u2540:	
  3171  17D7  2FEF               	goto	l2356
  3172  17D8                     l2348:	
  3173  17D8  3020               	movlw	32
  3174  17D9  0254               	subwf	___fltol@exp1,w
  3175  17DA  1C03               	skipc
  3176  17DB  2FDD               	goto	u2551
  3177  17DC  2FDE               	goto	u2550
  3178  17DD                     u2551:	
  3179  17DD  2FEA               	goto	l563
  3180  17DE                     u2550:	
  3181  17DE  2F91               	goto	l2326
  3182  17DF                     l2354:	
  3183  17DF  3001               	movlw	1
  3184  17E0  00CE               	movwf	??___fltol
  3185  17E1                     u2565:	
  3186  17E1  1003               	clrc
  3187  17E2  0DCA               	rlf	___fltol@f1,f
  3188  17E3  0DCB               	rlf	___fltol@f1+1,f
  3189  17E4  0DCC               	rlf	___fltol@f1+2,f
  3190  17E5  0DCD               	rlf	___fltol@f1+3,f
  3191  17E6  0BCE               	decfsz	??___fltol,f
  3192  17E7  2FE1               	goto	u2565
  3193  17E8  3001               	movlw	1
  3194  17E9  02D4               	subwf	___fltol@exp1,f
  3195  17EA                     l563:	
  3196  17EA  0854               	movf	___fltol@exp1,w
  3197  17EB  1D03               	btfss	3,2
  3198  17EC  2FEE               	goto	u2571
  3199  17ED  2FEF               	goto	u2570
  3200  17EE                     u2571:	
  3201  17EE  2FDF               	goto	l2354
  3202  17EF                     u2570:	
  3203  17EF                     l2356:	
  3204  17EF  0853               	movf	___fltol@sign1,w
  3205  17F0  1903               	btfsc	3,2
  3206  17F1  2FF3               	goto	u2581
  3207  17F2  2FF4               	goto	u2580
  3208  17F3                     u2581:	
  3209  17F3  2FFF               	goto	l566
  3210  17F4                     u2580:	
  3211  17F4                     l2358:	
  3212  17F4  09CA               	comf	___fltol@f1,f
  3213  17F5  09CB               	comf	___fltol@f1+1,f
  3214  17F6  09CC               	comf	___fltol@f1+2,f
  3215  17F7  09CD               	comf	___fltol@f1+3,f
  3216  17F8  0ACA               	incf	___fltol@f1,f
  3217  17F9  1903               	skipnz
  3218  17FA  0ACB               	incf	___fltol@f1+1,f
  3219  17FB  1903               	skipnz
  3220  17FC  0ACC               	incf	___fltol@f1+2,f
  3221  17FD  1903               	skipnz
  3222  17FE  0ACD               	incf	___fltol@f1+3,f
  3223  17FF                     l566:	
  3224  17FF                     l556:	
  3225  17FF  0008               	return
  3226  1800                     __end_of___fltol:	
  3227                           
  3228                           	psect	text8
  3229  1615                     __ptext8:	
  3230 ;; *************** function ___flsub *****************
  3231 ;; Defined at:
  3232 ;;		line 242 in file "C:\Program Files (x86)\Microchip\xc8\v2.10\pic\sources\c90\common\sprcadd.c"
  3233 ;; Parameters:    Size  Location     Type
  3234 ;;  a               4    8[BANK0 ] long 
  3235 ;;  b               4   12[BANK0 ] long 
  3236 ;; Auto vars:     Size  Location     Type
  3237 ;;		None
  3238 ;; Return value:  Size  Location     Type
  3239 ;;                  4    8[BANK0 ] long 
  3240 ;; Registers used:
  3241 ;;		wreg, status,2, status,0, btemp+1, pclath, cstack
  3242 ;; Tracked objects:
  3243 ;;		On entry : 0/0
  3244 ;;		On exit  : 0/0
  3245 ;;		Unchanged: 0/0
  3246 ;; Data sizes:     COMMON   BANK0   BANK1   BANK3   BANK2
  3247 ;;      Params:         0       8       0       0       0
  3248 ;;      Locals:         0       0       0       0       0
  3249 ;;      Temps:          0       0       0       0       0
  3250 ;;      Totals:         0       8       0       0       0
  3251 ;;Total ram usage:        8 bytes
  3252 ;; Hardware stack levels used:    1
  3253 ;; Hardware stack levels required when called:    1
  3254 ;; This function calls:
  3255 ;;		___fladd
  3256 ;; This function is called by:
  3257 ;;		_int_stre
  3258 ;;		_int_strd
  3259 ;;		_int_strc
  3260 ;;		_b1
  3261 ;;		_b0
  3262 ;; This function uses a non-reentrant model
  3263 ;;
  3264                           
  3265                           
  3266                           ;psect for function ___flsub
  3267  1615                     ___flsub:	
  3268  1615                     l2360:	
  3269                           ;incstack = 0
  3270                           ; Regs used in ___flsub: [wreg+status,2+status,0+btemp+1+pclath+cstack]
  3271                           
  3272  1615  3080               	movlw	128
  3273  1616  1283               	bcf	3,5	;RP0=0, select bank0
  3274  1617  1303               	bcf	3,6	;RP1=0, select bank0
  3275  1618  06AB               	xorwf	___flsub@a+3,f
  3276  1619                     l2362:	
  3277  1619  082F               	movf	___flsub@b+3,w
  3278  161A  00F3               	movwf	___fladd@b+3
  3279  161B  082E               	movf	___flsub@b+2,w
  3280  161C  00F2               	movwf	___fladd@b+2
  3281  161D  082D               	movf	___flsub@b+1,w
  3282  161E  00F1               	movwf	___fladd@b+1
  3283  161F  082C               	movf	___flsub@b,w
  3284  1620  00F0               	movwf	___fladd@b
  3285  1621  082B               	movf	___flsub@a+3,w
  3286  1622  00F7               	movwf	___fladd@a+3
  3287  1623  082A               	movf	___flsub@a+2,w
  3288  1624  00F6               	movwf	___fladd@a+2
  3289  1625  0829               	movf	___flsub@a+1,w
  3290  1626  00F5               	movwf	___fladd@a+1
  3291  1627  0828               	movf	___flsub@a,w
  3292  1628  00F4               	movwf	___fladd@a
  3293  1629  120A  118A  21F3  160A  118A  	fcall	___fladd
  3294  162E  0873               	movf	?___fladd+3,w
  3295  162F  1283               	bcf	3,5	;RP0=0, select bank0
  3296  1630  1303               	bcf	3,6	;RP1=0, select bank0
  3297  1631  00AB               	movwf	?___flsub+3
  3298  1632  0872               	movf	?___fladd+2,w
  3299  1633  00AA               	movwf	?___flsub+2
  3300  1634  0871               	movf	?___fladd+1,w
  3301  1635  00A9               	movwf	?___flsub+1
  3302  1636  0870               	movf	?___fladd,w
  3303  1637  00A8               	movwf	?___flsub
  3304  1638                     l709:	
  3305  1638  0008               	return
  3306  1639                     __end_of___flsub:	
  3307                           
  3308                           	psect	text9
  3309  01F3                     __ptext9:	
  3310 ;; *************** function ___fladd *****************
  3311 ;; Defined at:
  3312 ;;		line 10 in file "C:\Program Files (x86)\Microchip\xc8\v2.10\pic\sources\c90\common\sprcadd.c"
  3313 ;; Parameters:    Size  Location     Type
  3314 ;;  b               4    0[COMMON] long 
  3315 ;;  a               4    4[COMMON] long 
  3316 ;; Auto vars:     Size  Location     Type
  3317 ;;  grs             1   11[COMMON] unsigned char 
  3318 ;;  bexp            1   10[COMMON] unsigned char 
  3319 ;;  aexp            1    9[COMMON] unsigned char 
  3320 ;;  signs           1    8[COMMON] unsigned char 
  3321 ;; Return value:  Size  Location     Type
  3322 ;;                  4    0[COMMON] unsigned char 
  3323 ;; Registers used:
  3324 ;;		wreg, status,2, status,0, btemp+1
  3325 ;; Tracked objects:
  3326 ;;		On entry : 0/0
  3327 ;;		On exit  : 0/0
  3328 ;;		Unchanged: 0/0
  3329 ;; Data sizes:     COMMON   BANK0   BANK1   BANK3   BANK2
  3330 ;;      Params:         8       0       0       0       0
  3331 ;;      Locals:         4       0       0       0       0
  3332 ;;      Temps:          0       8       0       0       0
  3333 ;;      Totals:        12       8       0       0       0
  3334 ;;Total ram usage:       20 bytes
  3335 ;; Hardware stack levels used:    1
  3336 ;; This function calls:
  3337 ;;		Nothing
  3338 ;; This function is called by:
  3339 ;;		___flsub
  3340 ;; This function uses a non-reentrant model
  3341 ;;
  3342                           
  3343                           
  3344                           ;psect for function ___fladd
  3345  01F3                     ___fladd:	
  3346  01F3                     l2006:	
  3347                           ;incstack = 0
  3348                           ; Regs used in ___fladd: [wreg+status,2+status,0+btemp+1]
  3349                           
  3350  01F3  0873               	movf	___fladd@b+3,w
  3351  01F4  3980               	andlw	128
  3352  01F5  1283               	bcf	3,5	;RP0=0, select bank0
  3353  01F6  1303               	bcf	3,6	;RP1=0, select bank0
  3354  01F7  00A0               	movwf	??___fladd
  3355  01F8  0820               	movf	??___fladd,w
  3356  01F9  00F8               	movwf	___fladd@signs
  3357  01FA                     l2008:	
  3358  01FA  0873               	movf	___fladd@b+3,w
  3359  01FB  00A0               	movwf	??___fladd
  3360  01FC  0720               	addwf	??___fladd,w
  3361  01FD  00A1               	movwf	??___fladd+1
  3362  01FE  0821               	movf	??___fladd+1,w
  3363  01FF  00FA               	movwf	___fladd@bexp
  3364  0200                     l2010:	
  3365  0200  1FF2               	btfss	___fladd@b+2,7
  3366  0201  2A03               	goto	u1881
  3367  0202  2A04               	goto	u1880
  3368  0203                     u1881:	
  3369  0203  2A05               	goto	l2014
  3370  0204                     u1880:	
  3371  0204                     l2012:	
  3372  0204  147A               	bsf	___fladd@bexp,0
  3373  0205                     l2014:	
  3374  0205  087A               	movf	___fladd@bexp,w
  3375  0206  1903               	btfsc	3,2
  3376  0207  2A09               	goto	u1891
  3377  0208  2A0A               	goto	u1890
  3378  0209                     u1891:	
  3379  0209  2A1A               	goto	l2024
  3380  020A                     u1890:	
  3381  020A                     l2016:	
  3382  020A  0A7A               	incf	___fladd@bexp,w
  3383  020B  1D03               	btfss	3,2
  3384  020C  2A0E               	goto	u1901
  3385  020D  2A0F               	goto	u1900
  3386  020E                     u1901:	
  3387  020E  2A17               	goto	l2020
  3388  020F                     u1900:	
  3389  020F                     l2018:	
  3390  020F  3000               	movlw	0
  3391  0210  00F3               	movwf	___fladd@b+3
  3392  0211  3000               	movlw	0
  3393  0212  00F2               	movwf	___fladd@b+2
  3394  0213  3000               	movlw	0
  3395  0214  00F1               	movwf	___fladd@b+1
  3396  0215  3000               	movlw	0
  3397  0216  00F0               	movwf	___fladd@b
  3398  0217                     l2020:	
  3399  0217  17F2               	bsf	___fladd@b+2,7
  3400  0218                     l2022:	
  3401  0218  01F3               	clrf	___fladd@b+3
  3402  0219  2A22               	goto	l2026
  3403  021A                     l2024:	
  3404  021A  3000               	movlw	0
  3405  021B  00F3               	movwf	___fladd@b+3
  3406  021C  3000               	movlw	0
  3407  021D  00F2               	movwf	___fladd@b+2
  3408  021E  3000               	movlw	0
  3409  021F  00F1               	movwf	___fladd@b+1
  3410  0220  3000               	movlw	0
  3411  0221  00F0               	movwf	___fladd@b
  3412  0222                     l2026:	
  3413  0222  0877               	movf	___fladd@a+3,w
  3414  0223  3980               	andlw	128
  3415  0224  00A0               	movwf	??___fladd
  3416  0225  0820               	movf	??___fladd,w
  3417  0226  00F9               	movwf	___fladd@aexp
  3418  0227                     l2028:	
  3419  0227  0879               	movf	___fladd@aexp,w
  3420  0228  0678               	xorwf	___fladd@signs,w
  3421  0229  1903               	skipnz
  3422  022A  2A2C               	goto	u1911
  3423  022B  2A2D               	goto	u1910
  3424  022C                     u1911:	
  3425  022C  2A2E               	goto	l2032
  3426  022D                     u1910:	
  3427  022D                     l2030:	
  3428  022D  1778               	bsf	___fladd@signs,6
  3429  022E                     l2032:	
  3430  022E  0877               	movf	___fladd@a+3,w
  3431  022F  00A0               	movwf	??___fladd
  3432  0230  0720               	addwf	??___fladd,w
  3433  0231  00A1               	movwf	??___fladd+1
  3434  0232  0821               	movf	??___fladd+1,w
  3435  0233  00F9               	movwf	___fladd@aexp
  3436  0234                     l2034:	
  3437  0234  1FF6               	btfss	___fladd@a+2,7
  3438  0235  2A37               	goto	u1921
  3439  0236  2A38               	goto	u1920
  3440  0237                     u1921:	
  3441  0237  2A39               	goto	l2038
  3442  0238                     u1920:	
  3443  0238                     l2036:	
  3444  0238  1479               	bsf	___fladd@aexp,0
  3445  0239                     l2038:	
  3446  0239  0879               	movf	___fladd@aexp,w
  3447  023A  1903               	btfsc	3,2
  3448  023B  2A3D               	goto	u1931
  3449  023C  2A3E               	goto	u1930
  3450  023D                     u1931:	
  3451  023D  2A4E               	goto	l2048
  3452  023E                     u1930:	
  3453  023E                     l2040:	
  3454  023E  0A79               	incf	___fladd@aexp,w
  3455  023F  1D03               	btfss	3,2
  3456  0240  2A42               	goto	u1941
  3457  0241  2A43               	goto	u1940
  3458  0242                     u1941:	
  3459  0242  2A4B               	goto	l2044
  3460  0243                     u1940:	
  3461  0243                     l2042:	
  3462  0243  3000               	movlw	0
  3463  0244  00F7               	movwf	___fladd@a+3
  3464  0245  3000               	movlw	0
  3465  0246  00F6               	movwf	___fladd@a+2
  3466  0247  3000               	movlw	0
  3467  0248  00F5               	movwf	___fladd@a+1
  3468  0249  3000               	movlw	0
  3469  024A  00F4               	movwf	___fladd@a
  3470  024B                     l2044:	
  3471  024B  17F6               	bsf	___fladd@a+2,7
  3472  024C                     l2046:	
  3473  024C  01F7               	clrf	___fladd@a+3
  3474  024D  2A56               	goto	l663
  3475  024E                     l2048:	
  3476  024E  3000               	movlw	0
  3477  024F  00F7               	movwf	___fladd@a+3
  3478  0250  3000               	movlw	0
  3479  0251  00F6               	movwf	___fladd@a+2
  3480  0252  3000               	movlw	0
  3481  0253  00F5               	movwf	___fladd@a+1
  3482  0254  3000               	movlw	0
  3483  0255  00F4               	movwf	___fladd@a
  3484  0256                     l663:	
  3485  0256  087A               	movf	___fladd@bexp,w
  3486  0257  0279               	subwf	___fladd@aexp,w
  3487  0258  1803               	skipnc
  3488  0259  2A5B               	goto	u1951
  3489  025A  2A5C               	goto	u1950
  3490  025B                     u1951:	
  3491  025B  2AA0               	goto	l2084
  3492  025C                     u1950:	
  3493  025C                     l2050:	
  3494  025C  1F78               	btfss	___fladd@signs,6
  3495  025D  2A5F               	goto	u1961
  3496  025E  2A60               	goto	u1960
  3497  025F                     u1961:	
  3498  025F  2A64               	goto	l2054
  3499  0260                     u1960:	
  3500  0260                     l2052:	
  3501  0260  3080               	movlw	128
  3502  0261  00A0               	movwf	??___fladd
  3503  0262  0820               	movf	??___fladd,w
  3504  0263  06F8               	xorwf	___fladd@signs,f
  3505  0264                     l2054:	
  3506  0264  087A               	movf	___fladd@bexp,w
  3507  0265  00A0               	movwf	??___fladd
  3508  0266  0820               	movf	??___fladd,w
  3509  0267  00FB               	movwf	___fladd@grs
  3510  0268                     l2056:	
  3511  0268  0879               	movf	___fladd@aexp,w
  3512  0269  00A0               	movwf	??___fladd
  3513  026A  0820               	movf	??___fladd,w
  3514  026B  00FA               	movwf	___fladd@bexp
  3515  026C                     l2058:	
  3516  026C  087B               	movf	___fladd@grs,w
  3517  026D  00A0               	movwf	??___fladd
  3518  026E  0820               	movf	??___fladd,w
  3519  026F  00F9               	movwf	___fladd@aexp
  3520  0270                     l2060:	
  3521  0270  0870               	movf	___fladd@b,w
  3522  0271  00A0               	movwf	??___fladd
  3523  0272  0820               	movf	??___fladd,w
  3524  0273  00FB               	movwf	___fladd@grs
  3525  0274                     l2062:	
  3526  0274  0874               	movf	___fladd@a,w
  3527  0275  00A0               	movwf	??___fladd
  3528  0276  0820               	movf	??___fladd,w
  3529  0277  00F0               	movwf	___fladd@b
  3530  0278                     l2064:	
  3531  0278  087B               	movf	___fladd@grs,w
  3532  0279  00A0               	movwf	??___fladd
  3533  027A  0820               	movf	??___fladd,w
  3534  027B  00F4               	movwf	___fladd@a
  3535  027C                     l2066:	
  3536  027C  0871               	movf	___fladd@b+1,w
  3537  027D  00A0               	movwf	??___fladd
  3538  027E  0820               	movf	??___fladd,w
  3539  027F  00FB               	movwf	___fladd@grs
  3540  0280                     l2068:	
  3541  0280  0875               	movf	___fladd@a+1,w
  3542  0281  00A0               	movwf	??___fladd
  3543  0282  0820               	movf	??___fladd,w
  3544  0283  00F1               	movwf	___fladd@b+1
  3545  0284                     l2070:	
  3546  0284  087B               	movf	___fladd@grs,w
  3547  0285  00A0               	movwf	??___fladd
  3548  0286  0820               	movf	??___fladd,w
  3549  0287  00F5               	movwf	___fladd@a+1
  3550  0288                     l2072:	
  3551  0288  0872               	movf	___fladd@b+2,w
  3552  0289  00A0               	movwf	??___fladd
  3553  028A  0820               	movf	??___fladd,w
  3554  028B  00FB               	movwf	___fladd@grs
  3555  028C                     l2074:	
  3556  028C  0876               	movf	___fladd@a+2,w
  3557  028D  00A0               	movwf	??___fladd
  3558  028E  0820               	movf	??___fladd,w
  3559  028F  00F2               	movwf	___fladd@b+2
  3560  0290                     l2076:	
  3561  0290  087B               	movf	___fladd@grs,w
  3562  0291  00A0               	movwf	??___fladd
  3563  0292  0820               	movf	??___fladd,w
  3564  0293  00F6               	movwf	___fladd@a+2
  3565  0294                     l2078:	
  3566  0294  0873               	movf	___fladd@b+3,w
  3567  0295  00A0               	movwf	??___fladd
  3568  0296  0820               	movf	??___fladd,w
  3569  0297  00FB               	movwf	___fladd@grs
  3570  0298                     l2080:	
  3571  0298  0877               	movf	___fladd@a+3,w
  3572  0299  00A0               	movwf	??___fladd
  3573  029A  0820               	movf	??___fladd,w
  3574  029B  00F3               	movwf	___fladd@b+3
  3575  029C                     l2082:	
  3576  029C  087B               	movf	___fladd@grs,w
  3577  029D  00A0               	movwf	??___fladd
  3578  029E  0820               	movf	??___fladd,w
  3579  029F  00F7               	movwf	___fladd@a+3
  3580  02A0                     l2084:	
  3581  02A0  01FB               	clrf	___fladd@grs
  3582  02A1                     l2086:	
  3583  02A1  0879               	movf	___fladd@aexp,w
  3584  02A2  00A0               	movwf	??___fladd
  3585  02A3  01A1               	clrf	??___fladd+1
  3586  02A4  0821               	movf	??___fladd+1,w
  3587  02A5  00A3               	movwf	??___fladd+3
  3588  02A6  087A               	movf	___fladd@bexp,w
  3589  02A7  0220               	subwf	??___fladd,w
  3590  02A8  00A2               	movwf	??___fladd+2
  3591  02A9  1C03               	skipc
  3592  02AA  03A3               	decf	??___fladd+3,f
  3593  02AB  0823               	movf	??___fladd+3,w
  3594  02AC  3A80               	xorlw	128
  3595  02AD  00FF               	movwf	btemp+1
  3596  02AE  3080               	movlw	128
  3597  02AF  027F               	subwf	btemp+1,w
  3598  02B0  1D03               	skipz
  3599  02B1  2AB4               	goto	u1975
  3600  02B2  301A               	movlw	26
  3601  02B3  0222               	subwf	??___fladd+2,w
  3602  02B4                     u1975:	
  3603  02B4  1C03               	skipc
  3604  02B5  2AB7               	goto	u1971
  3605  02B6  2AB8               	goto	u1970
  3606  02B7                     u1971:	
  3607  02B7  2AF9               	goto	l2102
  3608  02B8                     u1970:	
  3609  02B8                     l2088:	
  3610  02B8  0873               	movf	___fladd@b+3,w
  3611  02B9  0472               	iorwf	___fladd@b+2,w
  3612  02BA  0471               	iorwf	___fladd@b+1,w
  3613  02BB  0470               	iorwf	___fladd@b,w
  3614  02BC  1D03               	skipz
  3615  02BD  2ABF               	goto	u1981
  3616  02BE  2AC1               	goto	u1980
  3617  02BF                     u1981:	
  3618  02BF  3001               	movlw	1
  3619  02C0  2AC2               	goto	u1990
  3620  02C1                     u1980:	
  3621  02C1  3000               	movlw	0
  3622  02C2                     u1990:	
  3623  02C2  1283               	bcf	3,5	;RP0=0, select bank0
  3624  02C3  1303               	bcf	3,6	;RP1=0, select bank0
  3625  02C4  00A0               	movwf	??___fladd
  3626  02C5  0820               	movf	??___fladd,w
  3627  02C6  00FB               	movwf	___fladd@grs
  3628  02C7  3000               	movlw	0
  3629  02C8  00F3               	movwf	___fladd@b+3
  3630  02C9  3000               	movlw	0
  3631  02CA  00F2               	movwf	___fladd@b+2
  3632  02CB  3000               	movlw	0
  3633  02CC  00F1               	movwf	___fladd@b+1
  3634  02CD  3000               	movlw	0
  3635  02CE  00F0               	movwf	___fladd@b
  3636  02CF  0879               	movf	___fladd@aexp,w
  3637  02D0  00A0               	movwf	??___fladd
  3638  02D1  0820               	movf	??___fladd,w
  3639  02D2  00FA               	movwf	___fladd@bexp
  3640  02D3  2AFF               	goto	l667
  3641  02D4                     l669:	
  3642  02D4  1C7B               	btfss	___fladd@grs,0
  3643  02D5  2AD7               	goto	u2001
  3644  02D6  2AD8               	goto	u2000
  3645  02D7                     u2001:	
  3646  02D7  2AE3               	goto	l2092
  3647  02D8                     u2000:	
  3648  02D8                     l2090:	
  3649  02D8  087B               	movf	___fladd@grs,w
  3650  02D9  1283               	bcf	3,5	;RP0=0, select bank0
  3651  02DA  1303               	bcf	3,6	;RP1=0, select bank0
  3652  02DB  00A0               	movwf	??___fladd
  3653  02DC  1003               	clrc
  3654  02DD  0C20               	rrf	??___fladd,w
  3655  02DE  3801               	iorlw	1
  3656  02DF  00A1               	movwf	??___fladd+1
  3657  02E0  0821               	movf	??___fladd+1,w
  3658  02E1  00FB               	movwf	___fladd@grs
  3659  02E2  2AE5               	goto	l2094
  3660  02E3                     l2092:	
  3661  02E3  1003               	clrc
  3662  02E4  0CFB               	rrf	___fladd@grs,f
  3663  02E5                     l2094:	
  3664  02E5  1C70               	btfss	___fladd@b,0
  3665  02E6  2AE8               	goto	u2011
  3666  02E7  2AE9               	goto	u2010
  3667  02E8                     u2011:	
  3668  02E8  2AEA               	goto	l2098
  3669  02E9                     u2010:	
  3670  02E9                     l2096:	
  3671  02E9  17FB               	bsf	___fladd@grs,7
  3672  02EA                     l2098:	
  3673  02EA  3001               	movlw	1
  3674  02EB  1283               	bcf	3,5	;RP0=0, select bank0
  3675  02EC  1303               	bcf	3,6	;RP1=0, select bank0
  3676  02ED  00A0               	movwf	??___fladd
  3677  02EE                     u2025:	
  3678  02EE  0D73               	rlf	___fladd@b+3,w
  3679  02EF  0CF3               	rrf	___fladd@b+3,f
  3680  02F0  0CF2               	rrf	___fladd@b+2,f
  3681  02F1  0CF1               	rrf	___fladd@b+1,f
  3682  02F2  0CF0               	rrf	___fladd@b,f
  3683  02F3  0BA0               	decfsz	??___fladd& (0+127),f
  3684  02F4  2AEE               	goto	u2025
  3685  02F5                     l2100:	
  3686  02F5  3001               	movlw	1
  3687  02F6  00A0               	movwf	??___fladd
  3688  02F7  0820               	movf	??___fladd,w
  3689  02F8  07FA               	addwf	___fladd@bexp,f
  3690  02F9                     l2102:	
  3691  02F9  0879               	movf	___fladd@aexp,w
  3692  02FA  027A               	subwf	___fladd@bexp,w
  3693  02FB  1C03               	skipc
  3694  02FC  2AFE               	goto	u2031
  3695  02FD  2AFF               	goto	u2030
  3696  02FE                     u2031:	
  3697  02FE  2AD4               	goto	l669
  3698  02FF                     u2030:	
  3699  02FF                     l667:	
  3700  02FF  1B78               	btfsc	___fladd@signs,6
  3701  0300  2B02               	goto	u2041
  3702  0301  2B03               	goto	u2040
  3703  0302                     u2041:	
  3704  0302  2B52               	goto	l2128
  3705  0303                     u2040:	
  3706  0303                     l2104:	
  3707  0303  087A               	movf	___fladd@bexp,w
  3708  0304  1D03               	btfss	3,2
  3709  0305  2B07               	goto	u2051
  3710  0306  2B08               	goto	u2050
  3711  0307                     u2051:	
  3712  0307  2B11               	goto	l2110
  3713  0308                     u2050:	
  3714  0308                     l2106:	
  3715  0308  3000               	movlw	0
  3716  0309  00F3               	movwf	?___fladd+3
  3717  030A  3000               	movlw	0
  3718  030B  00F2               	movwf	?___fladd+2
  3719  030C  3000               	movlw	0
  3720  030D  00F1               	movwf	?___fladd+1
  3721  030E  3000               	movlw	0
  3722  030F  00F0               	movwf	?___fladd
  3723  0310  2C8A               	goto	l676
  3724  0311                     l2110:	
  3725  0311  0874               	movf	___fladd@a,w
  3726  0312  07F0               	addwf	___fladd@b,f
  3727  0313  0875               	movf	___fladd@a+1,w
  3728  0314  1103               	clrz
  3729  0315  1803               	skipnc
  3730  0316  3E01               	addlw	1
  3731  0317  1903               	skipnz
  3732  0318  2B1A               	goto	u2061
  3733  0319  07F1               	addwf	___fladd@b+1,f
  3734  031A                     u2061:	
  3735  031A  0876               	movf	___fladd@a+2,w
  3736  031B  1103               	clrz
  3737  031C  1803               	skipnc
  3738  031D  3E01               	addlw	1
  3739  031E  1903               	skipnz
  3740  031F  2B21               	goto	u2062
  3741  0320  07F2               	addwf	___fladd@b+2,f
  3742  0321                     u2062:	
  3743  0321  0877               	movf	___fladd@a+3,w
  3744  0322  1103               	clrz
  3745  0323  1803               	skipnc
  3746  0324  3E01               	addlw	1
  3747  0325  1903               	skipnz
  3748  0326  2B28               	goto	u2063
  3749  0327  07F3               	addwf	___fladd@b+3,f
  3750  0328                     u2063:	
  3751  0328                     l2112:	
  3752  0328  1C73               	btfss	___fladd@b+3,0
  3753  0329  2B2B               	goto	u2071
  3754  032A  2B2C               	goto	u2070
  3755  032B                     u2071:	
  3756  032B  2C0A               	goto	l2162
  3757  032C                     u2070:	
  3758  032C                     l2114:	
  3759  032C  1C7B               	btfss	___fladd@grs,0
  3760  032D  2B2F               	goto	u2081
  3761  032E  2B30               	goto	u2080
  3762  032F                     u2081:	
  3763  032F  2B3B               	goto	l2118
  3764  0330                     u2080:	
  3765  0330                     l2116:	
  3766  0330  087B               	movf	___fladd@grs,w
  3767  0331  1283               	bcf	3,5	;RP0=0, select bank0
  3768  0332  1303               	bcf	3,6	;RP1=0, select bank0
  3769  0333  00A0               	movwf	??___fladd
  3770  0334  1003               	clrc
  3771  0335  0C20               	rrf	??___fladd,w
  3772  0336  3801               	iorlw	1
  3773  0337  00A1               	movwf	??___fladd+1
  3774  0338  0821               	movf	??___fladd+1,w
  3775  0339  00FB               	movwf	___fladd@grs
  3776  033A  2B3D               	goto	l2120
  3777  033B                     l2118:	
  3778  033B  1003               	clrc
  3779  033C  0CFB               	rrf	___fladd@grs,f
  3780  033D                     l2120:	
  3781  033D  1C70               	btfss	___fladd@b,0
  3782  033E  2B40               	goto	u2091
  3783  033F  2B41               	goto	u2090
  3784  0340                     u2091:	
  3785  0340  2B42               	goto	l2124
  3786  0341                     u2090:	
  3787  0341                     l2122:	
  3788  0341  17FB               	bsf	___fladd@grs,7
  3789  0342                     l2124:	
  3790  0342  3001               	movlw	1
  3791  0343  1283               	bcf	3,5	;RP0=0, select bank0
  3792  0344  1303               	bcf	3,6	;RP1=0, select bank0
  3793  0345  00A0               	movwf	??___fladd
  3794  0346                     u2105:	
  3795  0346  0D73               	rlf	___fladd@b+3,w
  3796  0347  0CF3               	rrf	___fladd@b+3,f
  3797  0348  0CF2               	rrf	___fladd@b+2,f
  3798  0349  0CF1               	rrf	___fladd@b+1,f
  3799  034A  0CF0               	rrf	___fladd@b,f
  3800  034B  0BA0               	decfsz	??___fladd& (0+127),f
  3801  034C  2B46               	goto	u2105
  3802  034D                     l2126:	
  3803  034D  3001               	movlw	1
  3804  034E  00A0               	movwf	??___fladd
  3805  034F  0820               	movf	??___fladd,w
  3806  0350  07FA               	addwf	___fladd@bexp,f
  3807  0351  2C0A               	goto	l2162
  3808  0352                     l2128:	
  3809  0352  0873               	movf	___fladd@b+3,w
  3810  0353  3A80               	xorlw	128
  3811  0354  00FF               	movwf	btemp+1
  3812  0355  0877               	movf	___fladd@a+3,w
  3813  0356  3A80               	xorlw	128
  3814  0357  027F               	subwf	btemp+1,w
  3815  0358  1D03               	skipz
  3816  0359  2B64               	goto	u2113
  3817  035A  0876               	movf	___fladd@a+2,w
  3818  035B  0272               	subwf	___fladd@b+2,w
  3819  035C  1D03               	skipz
  3820  035D  2B64               	goto	u2113
  3821  035E  0875               	movf	___fladd@a+1,w
  3822  035F  0271               	subwf	___fladd@b+1,w
  3823  0360  1D03               	skipz
  3824  0361  2B64               	goto	u2113
  3825  0362  0874               	movf	___fladd@a,w
  3826  0363  0270               	subwf	___fladd@b,w
  3827  0364                     u2113:	
  3828  0364  1803               	skipnc
  3829  0365  2B67               	goto	u2111
  3830  0366  2B68               	goto	u2110
  3831  0367                     u2111:	
  3832  0367  2BC2               	goto	l2138
  3833  0368                     u2110:	
  3834  0368                     l2130:	
  3835  0368  30FF               	movlw	255
  3836  0369  1283               	bcf	3,5	;RP0=0, select bank0
  3837  036A  1303               	bcf	3,6	;RP1=0, select bank0
  3838  036B  00A0               	movwf	??___fladd
  3839  036C  30FF               	movlw	255
  3840  036D  00A1               	movwf	??___fladd+1
  3841  036E  30FF               	movlw	255
  3842  036F  00A2               	movwf	??___fladd+2
  3843  0370  30FF               	movlw	255
  3844  0371  00A3               	movwf	??___fladd+3
  3845  0372  0874               	movf	___fladd@a,w
  3846  0373  00A4               	movwf	??___fladd+4
  3847  0374  0875               	movf	___fladd@a+1,w
  3848  0375  00A5               	movwf	??___fladd+5
  3849  0376  0876               	movf	___fladd@a+2,w
  3850  0377  00A6               	movwf	??___fladd+6
  3851  0378  0877               	movf	___fladd@a+3,w
  3852  0379  00A7               	movwf	??___fladd+7
  3853  037A  0870               	movf	___fladd@b,w
  3854  037B  02A4               	subwf	??___fladd+4,f
  3855  037C  0871               	movf	___fladd@b+1,w
  3856  037D  1C03               	skipc
  3857  037E  0F71               	incfsz	___fladd@b+1,w
  3858  037F  2B81               	goto	u2121
  3859  0380  2B82               	goto	u2122
  3860  0381                     u2121:	
  3861  0381  02A5               	subwf	??___fladd+5,f
  3862  0382                     u2122:	
  3863  0382  0872               	movf	___fladd@b+2,w
  3864  0383  1C03               	skipc
  3865  0384  0F72               	incfsz	___fladd@b+2,w
  3866  0385  2B87               	goto	u2123
  3867  0386  2B88               	goto	u2124
  3868  0387                     u2123:	
  3869  0387  02A6               	subwf	??___fladd+6,f
  3870  0388                     u2124:	
  3871  0388  0873               	movf	___fladd@b+3,w
  3872  0389  1C03               	skipc
  3873  038A  0F73               	incfsz	___fladd@b+3,w
  3874  038B  2B8D               	goto	u2125
  3875  038C  2B8E               	goto	u2126
  3876  038D                     u2125:	
  3877  038D  02A7               	subwf	??___fladd+7,f
  3878  038E                     u2126:	
  3879  038E  0824               	movf	??___fladd+4,w
  3880  038F  07A0               	addwf	??___fladd,f
  3881  0390  0825               	movf	??___fladd+5,w
  3882  0391  1803               	skipnc
  3883  0392  0F25               	incfsz	??___fladd+5,w
  3884  0393  2B95               	goto	u2130
  3885  0394  2B96               	goto	u2131
  3886  0395                     u2130:	
  3887  0395  07A1               	addwf	??___fladd+1,f
  3888  0396                     u2131:	
  3889  0396  0826               	movf	??___fladd+6,w
  3890  0397  1803               	skipnc
  3891  0398  0F26               	incfsz	??___fladd+6,w
  3892  0399  2B9B               	goto	u2132
  3893  039A  2B9C               	goto	u2133
  3894  039B                     u2132:	
  3895  039B  07A2               	addwf	??___fladd+2,f
  3896  039C                     u2133:	
  3897  039C  0827               	movf	??___fladd+7,w
  3898  039D  1803               	skipnc
  3899  039E  0A27               	incf	??___fladd+7,w
  3900  039F  07A3               	addwf	??___fladd+3,f
  3901  03A0  0823               	movf	??___fladd+3,w
  3902  03A1  00F3               	movwf	___fladd@b+3
  3903  03A2  0822               	movf	??___fladd+2,w
  3904  03A3  00F2               	movwf	___fladd@b+2
  3905  03A4  0821               	movf	??___fladd+1,w
  3906  03A5  00F1               	movwf	___fladd@b+1
  3907  03A6  0820               	movf	??___fladd,w
  3908  03A7  00F0               	movwf	___fladd@b
  3909  03A8                     l2132:	
  3910  03A8  3080               	movlw	128
  3911  03A9  00A0               	movwf	??___fladd
  3912  03AA  0820               	movf	??___fladd,w
  3913  03AB  06F8               	xorwf	___fladd@signs,f
  3914  03AC  09FB               	comf	___fladd@grs,f
  3915  03AD  0AFB               	incf	___fladd@grs,f
  3916  03AE                     l2134:	
  3917  03AE  087B               	movf	___fladd@grs,w
  3918  03AF  1D03               	btfss	3,2
  3919  03B0  2BB2               	goto	u2141
  3920  03B1  2BB3               	goto	u2140
  3921  03B2                     u2141:	
  3922  03B2  2BD0               	goto	l684
  3923  03B3                     u2140:	
  3924  03B3                     l2136:	
  3925  03B3  3001               	movlw	1
  3926  03B4  07F0               	addwf	___fladd@b,f
  3927  03B5  3000               	movlw	0
  3928  03B6  1803               	skipnc
  3929  03B7  3001               	movlw	1
  3930  03B8  07F1               	addwf	___fladd@b+1,f
  3931  03B9  3000               	movlw	0
  3932  03BA  1803               	skipnc
  3933  03BB  3001               	movlw	1
  3934  03BC  07F2               	addwf	___fladd@b+2,f
  3935  03BD  3000               	movlw	0
  3936  03BE  1803               	skipnc
  3937  03BF  3001               	movlw	1
  3938  03C0  07F3               	addwf	___fladd@b+3,f
  3939  03C1  2BD0               	goto	l684
  3940  03C2                     l2138:	
  3941  03C2  0874               	movf	___fladd@a,w
  3942  03C3  02F0               	subwf	___fladd@b,f
  3943  03C4  0875               	movf	___fladd@a+1,w
  3944  03C5  1C03               	skipc
  3945  03C6  0F75               	incfsz	___fladd@a+1,w
  3946  03C7  02F1               	subwf	___fladd@b+1,f
  3947  03C8  0876               	movf	___fladd@a+2,w
  3948  03C9  1C03               	skipc
  3949  03CA  0F76               	incfsz	___fladd@a+2,w
  3950  03CB  02F2               	subwf	___fladd@b+2,f
  3951  03CC  0877               	movf	___fladd@a+3,w
  3952  03CD  1C03               	skipc
  3953  03CE  0F77               	incfsz	___fladd@a+3,w
  3954  03CF  02F3               	subwf	___fladd@b+3,f
  3955  03D0                     l684:	
  3956  03D0  0873               	movf	___fladd@b+3,w
  3957  03D1  0472               	iorwf	___fladd@b+2,w
  3958  03D2  0471               	iorwf	___fladd@b+1,w
  3959  03D3  0470               	iorwf	___fladd@b,w
  3960  03D4  1D03               	skipz
  3961  03D5  2BD7               	goto	u2151
  3962  03D6  2BD8               	goto	u2150
  3963  03D7                     u2151:	
  3964  03D7  2C06               	goto	l2160
  3965  03D8                     u2150:	
  3966  03D8                     l2140:	
  3967  03D8  087B               	movf	___fladd@grs,w
  3968  03D9  1D03               	btfss	3,2
  3969  03DA  2BDC               	goto	u2161
  3970  03DB  2BDD               	goto	u2160
  3971  03DC                     u2161:	
  3972  03DC  2C06               	goto	l2160
  3973  03DD                     u2160:	
  3974  03DD                     l2142:	
  3975  03DD  3000               	movlw	0
  3976  03DE  00F3               	movwf	?___fladd+3
  3977  03DF  3000               	movlw	0
  3978  03E0  00F2               	movwf	?___fladd+2
  3979  03E1  3000               	movlw	0
  3980  03E2  00F1               	movwf	?___fladd+1
  3981  03E3  3000               	movlw	0
  3982  03E4  00F0               	movwf	?___fladd
  3983  03E5  2C8A               	goto	l676
  3984  03E6                     l2146:	
  3985  03E6  3001               	movlw	1
  3986  03E7  1283               	bcf	3,5	;RP0=0, select bank0
  3987  03E8  1303               	bcf	3,6	;RP1=0, select bank0
  3988  03E9  00A0               	movwf	??___fladd
  3989  03EA                     u2175:	
  3990  03EA  1003               	clrc
  3991  03EB  0DF0               	rlf	___fladd@b,f
  3992  03EC  0DF1               	rlf	___fladd@b+1,f
  3993  03ED  0DF2               	rlf	___fladd@b+2,f
  3994  03EE  0DF3               	rlf	___fladd@b+3,f
  3995  03EF  0BA0               	decfsz	??___fladd,f
  3996  03F0  2BEA               	goto	u2175
  3997  03F1                     l2148:	
  3998  03F1  1FFB               	btfss	___fladd@grs,7
  3999  03F2  2BF4               	goto	u2181
  4000  03F3  2BF5               	goto	u2180
  4001  03F4                     u2181:	
  4002  03F4  2BF6               	goto	l688
  4003  03F5                     u2180:	
  4004  03F5                     l2150:	
  4005  03F5  1470               	bsf	___fladd@b,0
  4006  03F6                     l688:	
  4007  03F6  1C7B               	btfss	___fladd@grs,0
  4008  03F7  2BF9               	goto	u2191
  4009  03F8  2BFA               	goto	u2190
  4010  03F9                     u2191:	
  4011  03F9  2BFD               	goto	l2154
  4012  03FA                     u2190:	
  4013  03FA                     l2152:	
  4014  03FA  1403               	setc
  4015  03FB  0DFB               	rlf	___fladd@grs,f
  4016  03FC  2BFF               	goto	l2156
  4017  03FD                     l2154:	
  4018  03FD  1003               	clrc
  4019  03FE  0DFB               	rlf	___fladd@grs,f
  4020  03FF                     l2156:	
  4021  03FF  087A               	movf	___fladd@bexp,w
  4022  0400  1903               	btfsc	3,2
  4023  0401  2C03               	goto	u2201
  4024  0402  2C04               	goto	u2200
  4025  0403                     u2201:	
  4026  0403  2C06               	goto	l2160
  4027  0404                     u2200:	
  4028  0404                     l2158:	
  4029  0404  3001               	movlw	1
  4030  0405  02FA               	subwf	___fladd@bexp,f
  4031  0406                     l2160:	
  4032  0406  1FF2               	btfss	___fladd@b+2,7
  4033  0407  2C09               	goto	u2211
  4034  0408  2C0A               	goto	u2210
  4035  0409                     u2211:	
  4036  0409  2BE6               	goto	l2146
  4037  040A                     u2210:	
  4038  040A                     l2162:	
  4039  040A  01F9               	clrf	___fladd@aexp
  4040  040B                     l2164:	
  4041  040B  1FFB               	btfss	___fladd@grs,7
  4042  040C  2C0E               	goto	u2221
  4043  040D  2C0F               	goto	u2220
  4044  040E                     u2221:	
  4045  040E  2C1D               	goto	l2172
  4046  040F                     u2220:	
  4047  040F                     l2166:	
  4048  040F  087B               	movf	___fladd@grs,w
  4049  0410  397F               	andlw	127
  4050  0411  1903               	btfsc	3,2
  4051  0412  2C14               	goto	u2231
  4052  0413  2C15               	goto	u2230
  4053  0414                     u2231:	
  4054  0414  2C18               	goto	l694
  4055  0415                     u2230:	
  4056  0415                     l2168:	
  4057  0415  01F9               	clrf	___fladd@aexp
  4058  0416  0AF9               	incf	___fladd@aexp,f
  4059  0417  2C1D               	goto	l2172
  4060  0418                     l694:	
  4061  0418  1C70               	btfss	___fladd@b,0
  4062  0419  2C1B               	goto	u2241
  4063  041A  2C1C               	goto	u2240
  4064  041B                     u2241:	
  4065  041B  2C1D               	goto	l2172
  4066  041C                     u2240:	
  4067  041C  2C15               	goto	l2168
  4068  041D                     l2172:	
  4069  041D  0879               	movf	___fladd@aexp,w
  4070  041E  1903               	btfsc	3,2
  4071  041F  2C21               	goto	u2251
  4072  0420  2C22               	goto	u2250
  4073  0421                     u2251:	
  4074  0421  2C58               	goto	l697
  4075  0422                     u2250:	
  4076  0422                     l2174:	
  4077  0422  3001               	movlw	1
  4078  0423  07F0               	addwf	___fladd@b,f
  4079  0424  3000               	movlw	0
  4080  0425  1803               	skipnc
  4081  0426  3001               	movlw	1
  4082  0427  07F1               	addwf	___fladd@b+1,f
  4083  0428  3000               	movlw	0
  4084  0429  1803               	skipnc
  4085  042A  3001               	movlw	1
  4086  042B  07F2               	addwf	___fladd@b+2,f
  4087  042C  3000               	movlw	0
  4088  042D  1803               	skipnc
  4089  042E  3001               	movlw	1
  4090  042F  07F3               	addwf	___fladd@b+3,f
  4091  0430                     l2176:	
  4092  0430  1C73               	btfss	___fladd@b+3,0
  4093  0431  2C33               	goto	u2261
  4094  0432  2C34               	goto	u2260
  4095  0433                     u2261:	
  4096  0433  2C58               	goto	l697
  4097  0434                     u2260:	
  4098  0434                     l2178:	
  4099  0434  0870               	movf	___fladd@b,w
  4100  0435  1283               	bcf	3,5	;RP0=0, select bank0
  4101  0436  1303               	bcf	3,6	;RP1=0, select bank0
  4102  0437  00A0               	movwf	??___fladd
  4103  0438  0871               	movf	___fladd@b+1,w
  4104  0439  00A1               	movwf	??___fladd+1
  4105  043A  0872               	movf	___fladd@b+2,w
  4106  043B  00A2               	movwf	??___fladd+2
  4107  043C  0873               	movf	___fladd@b+3,w
  4108  043D  00A3               	movwf	??___fladd+3
  4109  043E  3001               	movlw	1
  4110  043F  00A4               	movwf	??___fladd+4
  4111  0440                     u2275:	
  4112  0440  0D23               	rlf	??___fladd+3,w
  4113  0441  0CA3               	rrf	??___fladd+3,f
  4114  0442  0CA2               	rrf	??___fladd+2,f
  4115  0443  0CA1               	rrf	??___fladd+1,f
  4116  0444  0CA0               	rrf	??___fladd,f
  4117  0445                     u2270:	
  4118  0445  0BA4               	decfsz	??___fladd+4,f
  4119  0446  2C40               	goto	u2275
  4120  0447  0823               	movf	??___fladd+3,w
  4121  0448  00F3               	movwf	___fladd@b+3
  4122  0449  0822               	movf	??___fladd+2,w
  4123  044A  00F2               	movwf	___fladd@b+2
  4124  044B  0821               	movf	??___fladd+1,w
  4125  044C  00F1               	movwf	___fladd@b+1
  4126  044D  0820               	movf	??___fladd,w
  4127  044E  00F0               	movwf	___fladd@b
  4128  044F  0A7A               	incf	___fladd@bexp,w
  4129  0450  1903               	btfsc	3,2
  4130  0451  2C53               	goto	u2281
  4131  0452  2C54               	goto	u2280
  4132  0453                     u2281:	
  4133  0453  2C58               	goto	l697
  4134  0454                     u2280:	
  4135  0454                     l2180:	
  4136  0454  3001               	movlw	1
  4137  0455  00A0               	movwf	??___fladd
  4138  0456  0820               	movf	??___fladd,w
  4139  0457  07FA               	addwf	___fladd@bexp,f
  4140  0458                     l697:	
  4141  0458  0A7A               	incf	___fladd@bexp,w
  4142  0459  1903               	btfsc	3,2
  4143  045A  2C5C               	goto	u2291
  4144  045B  2C5D               	goto	u2290
  4145  045C                     u2291:	
  4146  045C  2C62               	goto	l2184
  4147  045D                     u2290:	
  4148  045D                     l2182:	
  4149  045D  087A               	movf	___fladd@bexp,w
  4150  045E  1D03               	btfss	3,2
  4151  045F  2C61               	goto	u2301
  4152  0460  2C62               	goto	u2300
  4153  0461                     u2301:	
  4154  0461  2C70               	goto	l2190
  4155  0462                     u2300:	
  4156  0462                     l2184:	
  4157  0462  3000               	movlw	0
  4158  0463  00F3               	movwf	___fladd@b+3
  4159  0464  3000               	movlw	0
  4160  0465  00F2               	movwf	___fladd@b+2
  4161  0466  3000               	movlw	0
  4162  0467  00F1               	movwf	___fladd@b+1
  4163  0468  3000               	movlw	0
  4164  0469  00F0               	movwf	___fladd@b
  4165  046A                     l2186:	
  4166  046A  087A               	movf	___fladd@bexp,w
  4167  046B  1D03               	btfss	3,2
  4168  046C  2C6E               	goto	u2311
  4169  046D  2C6F               	goto	u2310
  4170  046E                     u2311:	
  4171  046E  2C70               	goto	l2190
  4172  046F                     u2310:	
  4173  046F                     l2188:	
  4174  046F  01F8               	clrf	___fladd@signs
  4175  0470                     l2190:	
  4176  0470  1C7A               	btfss	___fladd@bexp,0
  4177  0471  2C73               	goto	u2321
  4178  0472  2C74               	goto	u2320
  4179  0473                     u2321:	
  4180  0473  2C76               	goto	l2194
  4181  0474                     u2320:	
  4182  0474                     l2192:	
  4183  0474  17F2               	bsf	___fladd@b+2,7
  4184  0475  2C7C               	goto	l705
  4185  0476                     l2194:	
  4186  0476  307F               	movlw	127
  4187  0477  1283               	bcf	3,5	;RP0=0, select bank0
  4188  0478  1303               	bcf	3,6	;RP1=0, select bank0
  4189  0479  00A0               	movwf	??___fladd
  4190  047A  0820               	movf	??___fladd,w
  4191  047B  05F2               	andwf	___fladd@b+2,f
  4192  047C                     l705:	
  4193  047C  087A               	movf	___fladd@bexp,w
  4194  047D  1283               	bcf	3,5	;RP0=0, select bank0
  4195  047E  1303               	bcf	3,6	;RP1=0, select bank0
  4196  047F  00A0               	movwf	??___fladd
  4197  0480  1003               	clrc
  4198  0481  0C20               	rrf	??___fladd,w
  4199  0482  00A1               	movwf	??___fladd+1
  4200  0483  0821               	movf	??___fladd+1,w
  4201  0484  00F3               	movwf	___fladd@b+3
  4202  0485                     l2196:	
  4203  0485  1FF8               	btfss	___fladd@signs,7
  4204  0486  2C88               	goto	u2331
  4205  0487  2C89               	goto	u2330
  4206  0488                     u2331:	
  4207  0488  2C8A               	goto	l706
  4208  0489                     u2330:	
  4209  0489                     l2198:	
  4210  0489  17F3               	bsf	___fladd@b+3,7
  4211  048A                     l706:	
  4212  048A                     l676:	
  4213  048A  0008               	return
  4214  048B                     __end_of___fladd:	
  4215                           
  4216                           	psect	text10
  4217  048B                     __ptext10:	
  4218 ;; *************** function ___flmul *****************
  4219 ;; Defined at:
  4220 ;;		line 8 in file "C:\Program Files (x86)\Microchip\xc8\v2.10\pic\sources\c90\common\sprcmul.c"
  4221 ;; Parameters:    Size  Location     Type
  4222 ;;  b               4   16[BANK0 ] unsigned char 
  4223 ;;  a               4   20[BANK0 ] unsigned char 
  4224 ;; Auto vars:     Size  Location     Type
  4225 ;;  prod            4   36[BANK0 ] struct .
  4226 ;;  grs             4   30[BANK0 ] unsigned long 
  4227 ;;  temp            2   40[BANK0 ] struct .
  4228 ;;  bexp            1   35[BANK0 ] unsigned char 
  4229 ;;  aexp            1   34[BANK0 ] unsigned char 
  4230 ;;  sign            1   29[BANK0 ] unsigned char 
  4231 ;; Return value:  Size  Location     Type
  4232 ;;                  4   16[BANK0 ] unsigned char 
  4233 ;; Registers used:
  4234 ;;		wreg, status,2, status,0, btemp+1, pclath, cstack
  4235 ;; Tracked objects:
  4236 ;;		On entry : 0/0
  4237 ;;		On exit  : 0/0
  4238 ;;		Unchanged: 0/0
  4239 ;; Data sizes:     COMMON   BANK0   BANK1   BANK3   BANK2
  4240 ;;      Params:         0       8       0       0       0
  4241 ;;      Locals:         0      13       0       0       0
  4242 ;;      Temps:          0       5       0       0       0
  4243 ;;      Totals:         0      26       0       0       0
  4244 ;;Total ram usage:       26 bytes
  4245 ;; Hardware stack levels used:    1
  4246 ;; Hardware stack levels required when called:    1
  4247 ;; This function calls:
  4248 ;;		__Umul8_16
  4249 ;; This function is called by:
  4250 ;;		_int_stre
  4251 ;;		_int_strd
  4252 ;;		_int_strc
  4253 ;; This function uses a non-reentrant model
  4254 ;;
  4255                           
  4256                           
  4257                           ;psect for function ___flmul
  4258  048B                     ___flmul:	
  4259  048B                     l2366:	
  4260                           ;incstack = 0
  4261                           ; Regs used in ___flmul: [wreg+status,2+status,0+btemp+1+pclath+cstack]
  4262                           
  4263  048B  1283               	bcf	3,5	;RP0=0, select bank0
  4264  048C  1303               	bcf	3,6	;RP1=0, select bank0
  4265  048D  0833               	movf	___flmul@b+3,w
  4266  048E  3980               	andlw	128
  4267  048F  00B8               	movwf	??___flmul
  4268  0490  0838               	movf	??___flmul,w
  4269  0491  00BD               	movwf	___flmul@sign
  4270  0492                     l2368:	
  4271  0492  0833               	movf	___flmul@b+3,w
  4272  0493  00B8               	movwf	??___flmul
  4273  0494  0738               	addwf	??___flmul,w
  4274  0495  00B9               	movwf	??___flmul+1
  4275  0496  0839               	movf	??___flmul+1,w
  4276  0497  00C3               	movwf	___flmul@bexp
  4277  0498                     l2370:	
  4278  0498  1FB2               	btfss	___flmul@b+2,7
  4279  0499  2C9B               	goto	u2591
  4280  049A  2C9C               	goto	u2590
  4281  049B                     u2591:	
  4282  049B  2C9D               	goto	l2374
  4283  049C                     u2590:	
  4284  049C                     l2372:	
  4285  049C  1443               	bsf	___flmul@bexp,0
  4286  049D                     l2374:	
  4287  049D  0843               	movf	___flmul@bexp,w
  4288  049E  1903               	btfsc	3,2
  4289  049F  2CA1               	goto	u2601
  4290  04A0  2CA2               	goto	u2600
  4291  04A1                     u2601:	
  4292  04A1  2CB1               	goto	l2382
  4293  04A2                     u2600:	
  4294  04A2                     l2376:	
  4295  04A2  0A43               	incf	___flmul@bexp,w
  4296  04A3  1D03               	btfss	3,2
  4297  04A4  2CA6               	goto	u2611
  4298  04A5  2CA7               	goto	u2610
  4299  04A6                     u2611:	
  4300  04A6  2CAF               	goto	l2380
  4301  04A7                     u2610:	
  4302  04A7                     l2378:	
  4303  04A7  3000               	movlw	0
  4304  04A8  00B3               	movwf	___flmul@b+3
  4305  04A9  3000               	movlw	0
  4306  04AA  00B2               	movwf	___flmul@b+2
  4307  04AB  3000               	movlw	0
  4308  04AC  00B1               	movwf	___flmul@b+1
  4309  04AD  3000               	movlw	0
  4310  04AE  00B0               	movwf	___flmul@b
  4311  04AF                     l2380:	
  4312  04AF  17B2               	bsf	___flmul@b+2,7
  4313  04B0  2CB9               	goto	l2384
  4314  04B1                     l2382:	
  4315  04B1  3000               	movlw	0
  4316  04B2  00B3               	movwf	___flmul@b+3
  4317  04B3  3000               	movlw	0
  4318  04B4  00B2               	movwf	___flmul@b+2
  4319  04B5  3000               	movlw	0
  4320  04B6  00B1               	movwf	___flmul@b+1
  4321  04B7  3000               	movlw	0
  4322  04B8  00B0               	movwf	___flmul@b
  4323  04B9                     l2384:	
  4324  04B9  0837               	movf	___flmul@a+3,w
  4325  04BA  3980               	andlw	128
  4326  04BB  00B8               	movwf	??___flmul
  4327  04BC  0838               	movf	??___flmul,w
  4328  04BD  06BD               	xorwf	___flmul@sign,f
  4329  04BE                     l2386:	
  4330  04BE  0837               	movf	___flmul@a+3,w
  4331  04BF  00B8               	movwf	??___flmul
  4332  04C0  0738               	addwf	??___flmul,w
  4333  04C1  00B9               	movwf	??___flmul+1
  4334  04C2  0839               	movf	??___flmul+1,w
  4335  04C3  00C2               	movwf	___flmul@aexp
  4336  04C4                     l2388:	
  4337  04C4  1FB6               	btfss	___flmul@a+2,7
  4338  04C5  2CC7               	goto	u2621
  4339  04C6  2CC8               	goto	u2620
  4340  04C7                     u2621:	
  4341  04C7  2CC9               	goto	l2392
  4342  04C8                     u2620:	
  4343  04C8                     l2390:	
  4344  04C8  1442               	bsf	___flmul@aexp,0
  4345  04C9                     l2392:	
  4346  04C9  0842               	movf	___flmul@aexp,w
  4347  04CA  1903               	btfsc	3,2
  4348  04CB  2CCD               	goto	u2631
  4349  04CC  2CCE               	goto	u2630
  4350  04CD                     u2631:	
  4351  04CD  2CDD               	goto	l2400
  4352  04CE                     u2630:	
  4353  04CE                     l2394:	
  4354  04CE  0A42               	incf	___flmul@aexp,w
  4355  04CF  1D03               	btfss	3,2
  4356  04D0  2CD2               	goto	u2641
  4357  04D1  2CD3               	goto	u2640
  4358  04D2                     u2641:	
  4359  04D2  2CDB               	goto	l2398
  4360  04D3                     u2640:	
  4361  04D3                     l2396:	
  4362  04D3  3000               	movlw	0
  4363  04D4  00B7               	movwf	___flmul@a+3
  4364  04D5  3000               	movlw	0
  4365  04D6  00B6               	movwf	___flmul@a+2
  4366  04D7  3000               	movlw	0
  4367  04D8  00B5               	movwf	___flmul@a+1
  4368  04D9  3000               	movlw	0
  4369  04DA  00B4               	movwf	___flmul@a
  4370  04DB                     l2398:	
  4371  04DB  17B6               	bsf	___flmul@a+2,7
  4372  04DC  2CE5               	goto	l2402
  4373  04DD                     l2400:	
  4374  04DD  3000               	movlw	0
  4375  04DE  00B7               	movwf	___flmul@a+3
  4376  04DF  3000               	movlw	0
  4377  04E0  00B6               	movwf	___flmul@a+2
  4378  04E1  3000               	movlw	0
  4379  04E2  00B5               	movwf	___flmul@a+1
  4380  04E3  3000               	movlw	0
  4381  04E4  00B4               	movwf	___flmul@a
  4382  04E5                     l2402:	
  4383  04E5  0842               	movf	___flmul@aexp,w
  4384  04E6  1903               	btfsc	3,2
  4385  04E7  2CE9               	goto	u2651
  4386  04E8  2CEA               	goto	u2650
  4387  04E9                     u2651:	
  4388  04E9  2CEF               	goto	l2406
  4389  04EA                     u2650:	
  4390  04EA                     l2404:	
  4391  04EA  0843               	movf	___flmul@bexp,w
  4392  04EB  1D03               	btfss	3,2
  4393  04EC  2CEE               	goto	u2661
  4394  04ED  2CEF               	goto	u2660
  4395  04EE                     u2661:	
  4396  04EE  2CF8               	goto	l2410
  4397  04EF                     u2660:	
  4398  04EF                     l2406:	
  4399  04EF  3000               	movlw	0
  4400  04F0  00B3               	movwf	?___flmul+3
  4401  04F1  3000               	movlw	0
  4402  04F2  00B2               	movwf	?___flmul+2
  4403  04F3  3000               	movlw	0
  4404  04F4  00B1               	movwf	?___flmul+1
  4405  04F5  3000               	movlw	0
  4406  04F6  00B0               	movwf	?___flmul
  4407  04F7  2FEB               	goto	l759
  4408  04F8                     l2410:	
  4409  04F8  0830               	movf	___flmul@b,w
  4410  04F9  00B8               	movwf	??___flmul
  4411  04FA  0838               	movf	??___flmul,w
  4412  04FB  00F0               	movwf	__Umul8_16@multiplicand
  4413  04FC  0836               	movf	___flmul@a+2,w
  4414  04FD  160A  118A  2639  120A  118A  	fcall	__Umul8_16
  4415  0502  0871               	movf	?__Umul8_16+1,w
  4416  0503  1283               	bcf	3,5	;RP0=0, select bank0
  4417  0504  1303               	bcf	3,6	;RP1=0, select bank0
  4418  0505  00C9               	movwf	___flmul@temp+1
  4419  0506  0870               	movf	?__Umul8_16,w
  4420  0507  00C8               	movwf	___flmul@temp
  4421  0508                     l2412:	
  4422  0508  0848               	movf	___flmul@temp,w
  4423  0509  00B8               	movwf	??___flmul
  4424  050A  01B9               	clrf	??___flmul+1
  4425  050B  01BA               	clrf	??___flmul+2
  4426  050C  01BB               	clrf	??___flmul+3
  4427  050D  083B               	movf	??___flmul+3,w
  4428  050E  00C1               	movwf	___flmul@grs+3
  4429  050F  083A               	movf	??___flmul+2,w
  4430  0510  00C0               	movwf	___flmul@grs+2
  4431  0511  0839               	movf	??___flmul+1,w
  4432  0512  00BF               	movwf	___flmul@grs+1
  4433  0513  0838               	movf	??___flmul,w
  4434  0514  00BE               	movwf	___flmul@grs
  4435  0515                     l2414:	
  4436  0515  0849               	movf	___flmul@temp+1,w
  4437  0516  00B8               	movwf	??___flmul
  4438  0517  01B9               	clrf	??___flmul+1
  4439  0518  01BA               	clrf	??___flmul+2
  4440  0519  01BB               	clrf	??___flmul+3
  4441  051A  083B               	movf	??___flmul+3,w
  4442  051B  00C7               	movwf	___flmul@prod+3
  4443  051C  083A               	movf	??___flmul+2,w
  4444  051D  00C6               	movwf	___flmul@prod+2
  4445  051E  0839               	movf	??___flmul+1,w
  4446  051F  00C5               	movwf	___flmul@prod+1
  4447  0520  0838               	movf	??___flmul,w
  4448  0521  00C4               	movwf	___flmul@prod
  4449  0522  0831               	movf	___flmul@b+1,w
  4450  0523  00B8               	movwf	??___flmul
  4451  0524  0838               	movf	??___flmul,w
  4452  0525  00F0               	movwf	__Umul8_16@multiplicand
  4453  0526  0835               	movf	___flmul@a+1,w
  4454  0527  160A  118A  2639  120A  118A  	fcall	__Umul8_16
  4455  052C  0871               	movf	?__Umul8_16+1,w
  4456  052D  1283               	bcf	3,5	;RP0=0, select bank0
  4457  052E  1303               	bcf	3,6	;RP1=0, select bank0
  4458  052F  00C9               	movwf	___flmul@temp+1
  4459  0530  0870               	movf	?__Umul8_16,w
  4460  0531  00C8               	movwf	___flmul@temp
  4461  0532                     l2416:	
  4462  0532  0848               	movf	___flmul@temp,w
  4463  0533  00B8               	movwf	??___flmul
  4464  0534  01B9               	clrf	??___flmul+1
  4465  0535  01BA               	clrf	??___flmul+2
  4466  0536  01BB               	clrf	??___flmul+3
  4467  0537  0838               	movf	??___flmul,w
  4468  0538  07BE               	addwf	___flmul@grs,f
  4469  0539  0839               	movf	??___flmul+1,w
  4470  053A  1103               	clrz
  4471  053B  1803               	skipnc
  4472  053C  3E01               	addlw	1
  4473  053D  1903               	skipnz
  4474  053E  2D40               	goto	u2671
  4475  053F  07BF               	addwf	___flmul@grs+1,f
  4476  0540                     u2671:	
  4477  0540  083A               	movf	??___flmul+2,w
  4478  0541  1103               	clrz
  4479  0542  1803               	skipnc
  4480  0543  3E01               	addlw	1
  4481  0544  1903               	skipnz
  4482  0545  2D47               	goto	u2672
  4483  0546  07C0               	addwf	___flmul@grs+2,f
  4484  0547                     u2672:	
  4485  0547  083B               	movf	??___flmul+3,w
  4486  0548  1103               	clrz
  4487  0549  1803               	skipnc
  4488  054A  3E01               	addlw	1
  4489  054B  1903               	skipnz
  4490  054C  2D4E               	goto	u2673
  4491  054D  07C1               	addwf	___flmul@grs+3,f
  4492  054E                     u2673:	
  4493  054E                     l2418:	
  4494  054E  0849               	movf	___flmul@temp+1,w
  4495  054F  00B8               	movwf	??___flmul
  4496  0550  01B9               	clrf	??___flmul+1
  4497  0551  01BA               	clrf	??___flmul+2
  4498  0552  01BB               	clrf	??___flmul+3
  4499  0553  0838               	movf	??___flmul,w
  4500  0554  07C4               	addwf	___flmul@prod,f
  4501  0555  0839               	movf	??___flmul+1,w
  4502  0556  1103               	clrz
  4503  0557  1803               	skipnc
  4504  0558  3E01               	addlw	1
  4505  0559  1903               	skipnz
  4506  055A  2D5C               	goto	u2681
  4507  055B  07C5               	addwf	___flmul@prod+1,f
  4508  055C                     u2681:	
  4509  055C  083A               	movf	??___flmul+2,w
  4510  055D  1103               	clrz
  4511  055E  1803               	skipnc
  4512  055F  3E01               	addlw	1
  4513  0560  1903               	skipnz
  4514  0561  2D63               	goto	u2682
  4515  0562  07C6               	addwf	___flmul@prod+2,f
  4516  0563                     u2682:	
  4517  0563  083B               	movf	??___flmul+3,w
  4518  0564  1103               	clrz
  4519  0565  1803               	skipnc
  4520  0566  3E01               	addlw	1
  4521  0567  1903               	skipnz
  4522  0568  2D6A               	goto	u2683
  4523  0569  07C7               	addwf	___flmul@prod+3,f
  4524  056A                     u2683:	
  4525  056A  0832               	movf	___flmul@b+2,w
  4526  056B  00B8               	movwf	??___flmul
  4527  056C  0838               	movf	??___flmul,w
  4528  056D  00F0               	movwf	__Umul8_16@multiplicand
  4529  056E  0834               	movf	___flmul@a,w
  4530  056F  160A  118A  2639  120A  118A  	fcall	__Umul8_16
  4531  0574  0871               	movf	?__Umul8_16+1,w
  4532  0575  1283               	bcf	3,5	;RP0=0, select bank0
  4533  0576  1303               	bcf	3,6	;RP1=0, select bank0
  4534  0577  00C9               	movwf	___flmul@temp+1
  4535  0578  0870               	movf	?__Umul8_16,w
  4536  0579  00C8               	movwf	___flmul@temp
  4537  057A                     l2420:	
  4538  057A  0848               	movf	___flmul@temp,w
  4539  057B  00B8               	movwf	??___flmul
  4540  057C  01B9               	clrf	??___flmul+1
  4541  057D  01BA               	clrf	??___flmul+2
  4542  057E  01BB               	clrf	??___flmul+3
  4543  057F  0838               	movf	??___flmul,w
  4544  0580  07BE               	addwf	___flmul@grs,f
  4545  0581  0839               	movf	??___flmul+1,w
  4546  0582  1103               	clrz
  4547  0583  1803               	skipnc
  4548  0584  3E01               	addlw	1
  4549  0585  1903               	skipnz
  4550  0586  2D88               	goto	u2691
  4551  0587  07BF               	addwf	___flmul@grs+1,f
  4552  0588                     u2691:	
  4553  0588  083A               	movf	??___flmul+2,w
  4554  0589  1103               	clrz
  4555  058A  1803               	skipnc
  4556  058B  3E01               	addlw	1
  4557  058C  1903               	skipnz
  4558  058D  2D8F               	goto	u2692
  4559  058E  07C0               	addwf	___flmul@grs+2,f
  4560  058F                     u2692:	
  4561  058F  083B               	movf	??___flmul+3,w
  4562  0590  1103               	clrz
  4563  0591  1803               	skipnc
  4564  0592  3E01               	addlw	1
  4565  0593  1903               	skipnz
  4566  0594  2D96               	goto	u2693
  4567  0595  07C1               	addwf	___flmul@grs+3,f
  4568  0596                     u2693:	
  4569  0596                     l2422:	
  4570  0596  0849               	movf	___flmul@temp+1,w
  4571  0597  00B8               	movwf	??___flmul
  4572  0598  01B9               	clrf	??___flmul+1
  4573  0599  01BA               	clrf	??___flmul+2
  4574  059A  01BB               	clrf	??___flmul+3
  4575  059B  0838               	movf	??___flmul,w
  4576  059C  07C4               	addwf	___flmul@prod,f
  4577  059D  0839               	movf	??___flmul+1,w
  4578  059E  1103               	clrz
  4579  059F  1803               	skipnc
  4580  05A0  3E01               	addlw	1
  4581  05A1  1903               	skipnz
  4582  05A2  2DA4               	goto	u2701
  4583  05A3  07C5               	addwf	___flmul@prod+1,f
  4584  05A4                     u2701:	
  4585  05A4  083A               	movf	??___flmul+2,w
  4586  05A5  1103               	clrz
  4587  05A6  1803               	skipnc
  4588  05A7  3E01               	addlw	1
  4589  05A8  1903               	skipnz
  4590  05A9  2DAB               	goto	u2702
  4591  05AA  07C6               	addwf	___flmul@prod+2,f
  4592  05AB                     u2702:	
  4593  05AB  083B               	movf	??___flmul+3,w
  4594  05AC  1103               	clrz
  4595  05AD  1803               	skipnc
  4596  05AE  3E01               	addlw	1
  4597  05AF  1903               	skipnz
  4598  05B0  2DB2               	goto	u2703
  4599  05B1  07C7               	addwf	___flmul@prod+3,f
  4600  05B2                     u2703:	
  4601  05B2                     l2424:	
  4602  05B2  3008               	movlw	8
  4603  05B3  00B8               	movwf	??___flmul
  4604  05B4                     u2715:	
  4605  05B4  1003               	clrc
  4606  05B5  0DBE               	rlf	___flmul@grs,f
  4607  05B6  0DBF               	rlf	___flmul@grs+1,f
  4608  05B7  0DC0               	rlf	___flmul@grs+2,f
  4609  05B8  0DC1               	rlf	___flmul@grs+3,f
  4610  05B9  0BB8               	decfsz	??___flmul,f
  4611  05BA  2DB4               	goto	u2715
  4612  05BB                     l2426:	
  4613  05BB  0831               	movf	___flmul@b+1,w
  4614  05BC  00B8               	movwf	??___flmul
  4615  05BD  0838               	movf	??___flmul,w
  4616  05BE  00F0               	movwf	__Umul8_16@multiplicand
  4617  05BF  0834               	movf	___flmul@a,w
  4618  05C0  160A  118A  2639  120A  118A  	fcall	__Umul8_16
  4619  05C5  0871               	movf	?__Umul8_16+1,w
  4620  05C6  1283               	bcf	3,5	;RP0=0, select bank0
  4621  05C7  1303               	bcf	3,6	;RP1=0, select bank0
  4622  05C8  00C9               	movwf	___flmul@temp+1
  4623  05C9  0870               	movf	?__Umul8_16,w
  4624  05CA  00C8               	movwf	___flmul@temp
  4625  05CB                     l2428:	
  4626  05CB  0848               	movf	___flmul@temp,w
  4627  05CC  00B8               	movwf	??___flmul
  4628  05CD  0849               	movf	___flmul@temp+1,w
  4629  05CE  00B9               	movwf	??___flmul+1
  4630  05CF  01BA               	clrf	??___flmul+2
  4631  05D0  01BB               	clrf	??___flmul+3
  4632  05D1  0838               	movf	??___flmul,w
  4633  05D2  07BE               	addwf	___flmul@grs,f
  4634  05D3  0839               	movf	??___flmul+1,w
  4635  05D4  1103               	clrz
  4636  05D5  1803               	skipnc
  4637  05D6  3E01               	addlw	1
  4638  05D7  1903               	skipnz
  4639  05D8  2DDA               	goto	u2721
  4640  05D9  07BF               	addwf	___flmul@grs+1,f
  4641  05DA                     u2721:	
  4642  05DA  083A               	movf	??___flmul+2,w
  4643  05DB  1103               	clrz
  4644  05DC  1803               	skipnc
  4645  05DD  3E01               	addlw	1
  4646  05DE  1903               	skipnz
  4647  05DF  2DE1               	goto	u2722
  4648  05E0  07C0               	addwf	___flmul@grs+2,f
  4649  05E1                     u2722:	
  4650  05E1  083B               	movf	??___flmul+3,w
  4651  05E2  1103               	clrz
  4652  05E3  1803               	skipnc
  4653  05E4  3E01               	addlw	1
  4654  05E5  1903               	skipnz
  4655  05E6  2DE8               	goto	u2723
  4656  05E7  07C1               	addwf	___flmul@grs+3,f
  4657  05E8                     u2723:	
  4658  05E8                     l2430:	
  4659  05E8  0830               	movf	___flmul@b,w
  4660  05E9  00B8               	movwf	??___flmul
  4661  05EA  0838               	movf	??___flmul,w
  4662  05EB  00F0               	movwf	__Umul8_16@multiplicand
  4663  05EC  0835               	movf	___flmul@a+1,w
  4664  05ED  160A  118A  2639  120A  118A  	fcall	__Umul8_16
  4665  05F2  0871               	movf	?__Umul8_16+1,w
  4666  05F3  1283               	bcf	3,5	;RP0=0, select bank0
  4667  05F4  1303               	bcf	3,6	;RP1=0, select bank0
  4668  05F5  00C9               	movwf	___flmul@temp+1
  4669  05F6  0870               	movf	?__Umul8_16,w
  4670  05F7  00C8               	movwf	___flmul@temp
  4671  05F8                     l2432:	
  4672  05F8  0848               	movf	___flmul@temp,w
  4673  05F9  00B8               	movwf	??___flmul
  4674  05FA  0849               	movf	___flmul@temp+1,w
  4675  05FB  00B9               	movwf	??___flmul+1
  4676  05FC  01BA               	clrf	??___flmul+2
  4677  05FD  01BB               	clrf	??___flmul+3
  4678  05FE  0838               	movf	??___flmul,w
  4679  05FF  07BE               	addwf	___flmul@grs,f
  4680  0600  0839               	movf	??___flmul+1,w
  4681  0601  1103               	clrz
  4682  0602  1803               	skipnc
  4683  0603  3E01               	addlw	1
  4684  0604  1903               	skipnz
  4685  0605  2E07               	goto	u2731
  4686  0606  07BF               	addwf	___flmul@grs+1,f
  4687  0607                     u2731:	
  4688  0607  083A               	movf	??___flmul+2,w
  4689  0608  1103               	clrz
  4690  0609  1803               	skipnc
  4691  060A  3E01               	addlw	1
  4692  060B  1903               	skipnz
  4693  060C  2E0E               	goto	u2732
  4694  060D  07C0               	addwf	___flmul@grs+2,f
  4695  060E                     u2732:	
  4696  060E  083B               	movf	??___flmul+3,w
  4697  060F  1103               	clrz
  4698  0610  1803               	skipnc
  4699  0611  3E01               	addlw	1
  4700  0612  1903               	skipnz
  4701  0613  2E15               	goto	u2733
  4702  0614  07C1               	addwf	___flmul@grs+3,f
  4703  0615                     u2733:	
  4704  0615                     l2434:	
  4705  0615  3008               	movlw	8
  4706  0616  00B8               	movwf	??___flmul
  4707  0617                     u2745:	
  4708  0617  1003               	clrc
  4709  0618  0DBE               	rlf	___flmul@grs,f
  4710  0619  0DBF               	rlf	___flmul@grs+1,f
  4711  061A  0DC0               	rlf	___flmul@grs+2,f
  4712  061B  0DC1               	rlf	___flmul@grs+3,f
  4713  061C  0BB8               	decfsz	??___flmul,f
  4714  061D  2E17               	goto	u2745
  4715  061E  0830               	movf	___flmul@b,w
  4716  061F  00B8               	movwf	??___flmul
  4717  0620  0838               	movf	??___flmul,w
  4718  0621  00F0               	movwf	__Umul8_16@multiplicand
  4719  0622  0834               	movf	___flmul@a,w
  4720  0623  160A  118A  2639  120A  118A  	fcall	__Umul8_16
  4721  0628  0871               	movf	?__Umul8_16+1,w
  4722  0629  1283               	bcf	3,5	;RP0=0, select bank0
  4723  062A  1303               	bcf	3,6	;RP1=0, select bank0
  4724  062B  00C9               	movwf	___flmul@temp+1
  4725  062C  0870               	movf	?__Umul8_16,w
  4726  062D  00C8               	movwf	___flmul@temp
  4727  062E                     l2436:	
  4728  062E  0848               	movf	___flmul@temp,w
  4729  062F  00B8               	movwf	??___flmul
  4730  0630  0849               	movf	___flmul@temp+1,w
  4731  0631  00B9               	movwf	??___flmul+1
  4732  0632  01BA               	clrf	??___flmul+2
  4733  0633  01BB               	clrf	??___flmul+3
  4734  0634  0838               	movf	??___flmul,w
  4735  0635  07BE               	addwf	___flmul@grs,f
  4736  0636  0839               	movf	??___flmul+1,w
  4737  0637  1103               	clrz
  4738  0638  1803               	skipnc
  4739  0639  3E01               	addlw	1
  4740  063A  1903               	skipnz
  4741  063B  2E3D               	goto	u2751
  4742  063C  07BF               	addwf	___flmul@grs+1,f
  4743  063D                     u2751:	
  4744  063D  083A               	movf	??___flmul+2,w
  4745  063E  1103               	clrz
  4746  063F  1803               	skipnc
  4747  0640  3E01               	addlw	1
  4748  0641  1903               	skipnz
  4749  0642  2E44               	goto	u2752
  4750  0643  07C0               	addwf	___flmul@grs+2,f
  4751  0644                     u2752:	
  4752  0644  083B               	movf	??___flmul+3,w
  4753  0645  1103               	clrz
  4754  0646  1803               	skipnc
  4755  0647  3E01               	addlw	1
  4756  0648  1903               	skipnz
  4757  0649  2E4B               	goto	u2753
  4758  064A  07C1               	addwf	___flmul@grs+3,f
  4759  064B                     u2753:	
  4760  064B                     l2438:	
  4761  064B  0831               	movf	___flmul@b+1,w
  4762  064C  00B8               	movwf	??___flmul
  4763  064D  0838               	movf	??___flmul,w
  4764  064E  00F0               	movwf	__Umul8_16@multiplicand
  4765  064F  0836               	movf	___flmul@a+2,w
  4766  0650  160A  118A  2639  120A  118A  	fcall	__Umul8_16
  4767  0655  0871               	movf	?__Umul8_16+1,w
  4768  0656  1283               	bcf	3,5	;RP0=0, select bank0
  4769  0657  1303               	bcf	3,6	;RP1=0, select bank0
  4770  0658  00C9               	movwf	___flmul@temp+1
  4771  0659  0870               	movf	?__Umul8_16,w
  4772  065A  00C8               	movwf	___flmul@temp
  4773  065B  0848               	movf	___flmul@temp,w
  4774  065C  00B8               	movwf	??___flmul
  4775  065D  0849               	movf	___flmul@temp+1,w
  4776  065E  00B9               	movwf	??___flmul+1
  4777  065F  01BA               	clrf	??___flmul+2
  4778  0660  01BB               	clrf	??___flmul+3
  4779  0661  0838               	movf	??___flmul,w
  4780  0662  07C4               	addwf	___flmul@prod,f
  4781  0663  0839               	movf	??___flmul+1,w
  4782  0664  1103               	clrz
  4783  0665  1803               	skipnc
  4784  0666  3E01               	addlw	1
  4785  0667  1903               	skipnz
  4786  0668  2E6A               	goto	u2761
  4787  0669  07C5               	addwf	___flmul@prod+1,f
  4788  066A                     u2761:	
  4789  066A  083A               	movf	??___flmul+2,w
  4790  066B  1103               	clrz
  4791  066C  1803               	skipnc
  4792  066D  3E01               	addlw	1
  4793  066E  1903               	skipnz
  4794  066F  2E71               	goto	u2762
  4795  0670  07C6               	addwf	___flmul@prod+2,f
  4796  0671                     u2762:	
  4797  0671  083B               	movf	??___flmul+3,w
  4798  0672  1103               	clrz
  4799  0673  1803               	skipnc
  4800  0674  3E01               	addlw	1
  4801  0675  1903               	skipnz
  4802  0676  2E78               	goto	u2763
  4803  0677  07C7               	addwf	___flmul@prod+3,f
  4804  0678                     u2763:	
  4805  0678                     l2440:	
  4806  0678  0832               	movf	___flmul@b+2,w
  4807  0679  00B8               	movwf	??___flmul
  4808  067A  0838               	movf	??___flmul,w
  4809  067B  00F0               	movwf	__Umul8_16@multiplicand
  4810  067C  0835               	movf	___flmul@a+1,w
  4811  067D  160A  118A  2639  120A  118A  	fcall	__Umul8_16
  4812  0682  0871               	movf	?__Umul8_16+1,w
  4813  0683  1283               	bcf	3,5	;RP0=0, select bank0
  4814  0684  1303               	bcf	3,6	;RP1=0, select bank0
  4815  0685  00C9               	movwf	___flmul@temp+1
  4816  0686  0870               	movf	?__Umul8_16,w
  4817  0687  00C8               	movwf	___flmul@temp
  4818  0688                     l2442:	
  4819  0688  0848               	movf	___flmul@temp,w
  4820  0689  00B8               	movwf	??___flmul
  4821  068A  0849               	movf	___flmul@temp+1,w
  4822  068B  00B9               	movwf	??___flmul+1
  4823  068C  01BA               	clrf	??___flmul+2
  4824  068D  01BB               	clrf	??___flmul+3
  4825  068E  0838               	movf	??___flmul,w
  4826  068F  07C4               	addwf	___flmul@prod,f
  4827  0690  0839               	movf	??___flmul+1,w
  4828  0691  1103               	clrz
  4829  0692  1803               	skipnc
  4830  0693  3E01               	addlw	1
  4831  0694  1903               	skipnz
  4832  0695  2E97               	goto	u2771
  4833  0696  07C5               	addwf	___flmul@prod+1,f
  4834  0697                     u2771:	
  4835  0697  083A               	movf	??___flmul+2,w
  4836  0698  1103               	clrz
  4837  0699  1803               	skipnc
  4838  069A  3E01               	addlw	1
  4839  069B  1903               	skipnz
  4840  069C  2E9E               	goto	u2772
  4841  069D  07C6               	addwf	___flmul@prod+2,f
  4842  069E                     u2772:	
  4843  069E  083B               	movf	??___flmul+3,w
  4844  069F  1103               	clrz
  4845  06A0  1803               	skipnc
  4846  06A1  3E01               	addlw	1
  4847  06A2  1903               	skipnz
  4848  06A3  2EA5               	goto	u2773
  4849  06A4  07C7               	addwf	___flmul@prod+3,f
  4850  06A5                     u2773:	
  4851  06A5  0832               	movf	___flmul@b+2,w
  4852  06A6  00B8               	movwf	??___flmul
  4853  06A7  0838               	movf	??___flmul,w
  4854  06A8  00F0               	movwf	__Umul8_16@multiplicand
  4855  06A9  0836               	movf	___flmul@a+2,w
  4856  06AA  160A  118A  2639  120A  118A  	fcall	__Umul8_16
  4857  06AF  0871               	movf	?__Umul8_16+1,w
  4858  06B0  1283               	bcf	3,5	;RP0=0, select bank0
  4859  06B1  1303               	bcf	3,6	;RP1=0, select bank0
  4860  06B2  00C9               	movwf	___flmul@temp+1
  4861  06B3  0870               	movf	?__Umul8_16,w
  4862  06B4  00C8               	movwf	___flmul@temp
  4863  06B5                     l2444:	
  4864  06B5  0848               	movf	___flmul@temp,w
  4865  06B6  00B8               	movwf	??___flmul
  4866  06B7  0849               	movf	___flmul@temp+1,w
  4867  06B8  00B9               	movwf	??___flmul+1
  4868  06B9  01BA               	clrf	??___flmul+2
  4869  06BA  01BB               	clrf	??___flmul+3
  4870  06BB  3008               	movlw	8
  4871  06BC                     u2785:	
  4872  06BC  1003               	clrc
  4873  06BD  0DB8               	rlf	??___flmul,f
  4874  06BE  0DB9               	rlf	??___flmul+1,f
  4875  06BF  0DBA               	rlf	??___flmul+2,f
  4876  06C0  0DBB               	rlf	??___flmul+3,f
  4877  06C1                     u2780:	
  4878  06C1  3EFF               	addlw	-1
  4879  06C2  1D03               	skipz
  4880  06C3  2EBC               	goto	u2785
  4881  06C4  0838               	movf	??___flmul,w
  4882  06C5  07C4               	addwf	___flmul@prod,f
  4883  06C6  0839               	movf	??___flmul+1,w
  4884  06C7  1103               	clrz
  4885  06C8  1803               	skipnc
  4886  06C9  3E01               	addlw	1
  4887  06CA  1903               	skipnz
  4888  06CB  2ECD               	goto	u2791
  4889  06CC  07C5               	addwf	___flmul@prod+1,f
  4890  06CD                     u2791:	
  4891  06CD  083A               	movf	??___flmul+2,w
  4892  06CE  1103               	clrz
  4893  06CF  1803               	skipnc
  4894  06D0  3E01               	addlw	1
  4895  06D1  1903               	skipnz
  4896  06D2  2ED4               	goto	u2792
  4897  06D3  07C6               	addwf	___flmul@prod+2,f
  4898  06D4                     u2792:	
  4899  06D4  083B               	movf	??___flmul+3,w
  4900  06D5  1103               	clrz
  4901  06D6  1803               	skipnc
  4902  06D7  3E01               	addlw	1
  4903  06D8  1903               	skipnz
  4904  06D9  2EDB               	goto	u2793
  4905  06DA  07C7               	addwf	___flmul@prod+3,f
  4906  06DB                     u2793:	
  4907  06DB                     l2446:	
  4908  06DB  083E               	movf	___flmul@grs,w
  4909  06DC  00B8               	movwf	??___flmul
  4910  06DD  083F               	movf	___flmul@grs+1,w
  4911  06DE  00B9               	movwf	??___flmul+1
  4912  06DF  0840               	movf	___flmul@grs+2,w
  4913  06E0  00BA               	movwf	??___flmul+2
  4914  06E1  0841               	movf	___flmul@grs+3,w
  4915  06E2  00BB               	movwf	??___flmul+3
  4916  06E3  3018               	movlw	24
  4917  06E4                     u2805:	
  4918  06E4  1003               	clrc
  4919  06E5  0CBB               	rrf	??___flmul+3,f
  4920  06E6  0CBA               	rrf	??___flmul+2,f
  4921  06E7  0CB9               	rrf	??___flmul+1,f
  4922  06E8  0CB8               	rrf	??___flmul,f
  4923  06E9                     u2800:	
  4924  06E9  3EFF               	addlw	-1
  4925  06EA  1D03               	skipz
  4926  06EB  2EE4               	goto	u2805
  4927  06EC  0838               	movf	??___flmul,w
  4928  06ED  07C4               	addwf	___flmul@prod,f
  4929  06EE  0839               	movf	??___flmul+1,w
  4930  06EF  1103               	clrz
  4931  06F0  1803               	skipnc
  4932  06F1  3E01               	addlw	1
  4933  06F2  1903               	skipnz
  4934  06F3  2EF5               	goto	u2811
  4935  06F4  07C5               	addwf	___flmul@prod+1,f
  4936  06F5                     u2811:	
  4937  06F5  083A               	movf	??___flmul+2,w
  4938  06F6  1103               	clrz
  4939  06F7  1803               	skipnc
  4940  06F8  3E01               	addlw	1
  4941  06F9  1903               	skipnz
  4942  06FA  2EFC               	goto	u2812
  4943  06FB  07C6               	addwf	___flmul@prod+2,f
  4944  06FC                     u2812:	
  4945  06FC  083B               	movf	??___flmul+3,w
  4946  06FD  1103               	clrz
  4947  06FE  1803               	skipnc
  4948  06FF  3E01               	addlw	1
  4949  0700  1903               	skipnz
  4950  0701  2F03               	goto	u2813
  4951  0702  07C7               	addwf	___flmul@prod+3,f
  4952  0703                     u2813:	
  4953  0703                     l2448:	
  4954  0703  3008               	movlw	8
  4955  0704  00B8               	movwf	??___flmul
  4956  0705                     u2825:	
  4957  0705  1003               	clrc
  4958  0706  0DBE               	rlf	___flmul@grs,f
  4959  0707  0DBF               	rlf	___flmul@grs+1,f
  4960  0708  0DC0               	rlf	___flmul@grs+2,f
  4961  0709  0DC1               	rlf	___flmul@grs+3,f
  4962  070A  0BB8               	decfsz	??___flmul,f
  4963  070B  2F05               	goto	u2825
  4964  070C                     l2450:	
  4965  070C  0843               	movf	___flmul@bexp,w
  4966  070D  0742               	addwf	___flmul@aexp,w
  4967  070E  00B8               	movwf	??___flmul
  4968  070F  01B9               	clrf	??___flmul+1
  4969  0710  0DB9               	rlf	??___flmul+1,f
  4970  0711  0838               	movf	??___flmul,w
  4971  0712  3E82               	addlw	130
  4972  0713  00C8               	movwf	___flmul@temp
  4973  0714  0839               	movf	??___flmul+1,w
  4974  0715  1803               	skipnc
  4975  0716  3E01               	addlw	1
  4976  0717  3EFF               	addlw	255
  4977  0718  00C9               	movwf	___flmul@temp+1
  4978  0719  2F37               	goto	l2462
  4979  071A                     l2452:	
  4980  071A  3001               	movlw	1
  4981  071B  00B8               	movwf	??___flmul
  4982  071C                     u2835:	
  4983  071C  1003               	clrc
  4984  071D  0DC4               	rlf	___flmul@prod,f
  4985  071E  0DC5               	rlf	___flmul@prod+1,f
  4986  071F  0DC6               	rlf	___flmul@prod+2,f
  4987  0720  0DC7               	rlf	___flmul@prod+3,f
  4988  0721  0BB8               	decfsz	??___flmul,f
  4989  0722  2F1C               	goto	u2835
  4990  0723                     l2454:	
  4991  0723  1FC1               	btfss	___flmul@grs+3,7
  4992  0724  2F26               	goto	u2841
  4993  0725  2F27               	goto	u2840
  4994  0726                     u2841:	
  4995  0726  2F28               	goto	l2458
  4996  0727                     u2840:	
  4997  0727                     l2456:	
  4998  0727  1444               	bsf	___flmul@prod,0
  4999  0728                     l2458:	
  5000  0728  3001               	movlw	1
  5001  0729  00B8               	movwf	??___flmul
  5002  072A                     u2855:	
  5003  072A  1003               	clrc
  5004  072B  0DBE               	rlf	___flmul@grs,f
  5005  072C  0DBF               	rlf	___flmul@grs+1,f
  5006  072D  0DC0               	rlf	___flmul@grs+2,f
  5007  072E  0DC1               	rlf	___flmul@grs+3,f
  5008  072F  0BB8               	decfsz	??___flmul,f
  5009  0730  2F2A               	goto	u2855
  5010  0731                     l2460:	
  5011  0731  30FF               	movlw	255
  5012  0732  07C8               	addwf	___flmul@temp,f
  5013  0733  1803               	skipnc
  5014  0734  0AC9               	incf	___flmul@temp+1,f
  5015  0735  30FF               	movlw	255
  5016  0736  07C9               	addwf	___flmul@temp+1,f
  5017  0737                     l2462:	
  5018  0737  1FC6               	btfss	___flmul@prod+2,7
  5019  0738  2F3A               	goto	u2861
  5020  0739  2F3B               	goto	u2860
  5021  073A                     u2861:	
  5022  073A  2F1A               	goto	l2452
  5023  073B                     u2860:	
  5024  073B                     l2464:	
  5025  073B  01C2               	clrf	___flmul@aexp
  5026  073C                     l2466:	
  5027  073C  1FC1               	btfss	___flmul@grs+3,7
  5028  073D  2F3F               	goto	u2871
  5029  073E  2F40               	goto	u2870
  5030  073F                     u2871:	
  5031  073F  2F5C               	goto	l2474
  5032  0740                     u2870:	
  5033  0740                     l2468:	
  5034  0740  30FF               	movlw	255
  5035  0741  053E               	andwf	___flmul@grs,w
  5036  0742  00B8               	movwf	??___flmul
  5037  0743  30FF               	movlw	255
  5038  0744  053F               	andwf	___flmul@grs+1,w
  5039  0745  00B9               	movwf	??___flmul+1
  5040  0746  30FF               	movlw	255
  5041  0747  0540               	andwf	___flmul@grs+2,w
  5042  0748  00BA               	movwf	??___flmul+2
  5043  0749  307F               	movlw	127
  5044  074A  0541               	andwf	___flmul@grs+3,w
  5045  074B  00BB               	movwf	??___flmul+3
  5046  074C  083B               	movf	??___flmul+3,w
  5047  074D  043A               	iorwf	??___flmul+2,w
  5048  074E  0439               	iorwf	??___flmul+1,w
  5049  074F  0438               	iorwf	??___flmul,w
  5050  0750  1903               	skipnz
  5051  0751  2F53               	goto	u2881
  5052  0752  2F54               	goto	u2880
  5053  0753                     u2881:	
  5054  0753  2F57               	goto	l765
  5055  0754                     u2880:	
  5056  0754                     l2470:	
  5057  0754  01C2               	clrf	___flmul@aexp
  5058  0755  0AC2               	incf	___flmul@aexp,f
  5059  0756  2F5C               	goto	l2474
  5060  0757                     l765:	
  5061  0757  1C44               	btfss	___flmul@prod,0
  5062  0758  2F5A               	goto	u2891
  5063  0759  2F5B               	goto	u2890
  5064  075A                     u2891:	
  5065  075A  2F5C               	goto	l2474
  5066  075B                     u2890:	
  5067  075B  2F54               	goto	l2470
  5068  075C                     l2474:	
  5069  075C  0842               	movf	___flmul@aexp,w
  5070  075D  1903               	btfsc	3,2
  5071  075E  2F60               	goto	u2901
  5072  075F  2F61               	goto	u2900
  5073  0760                     u2901:	
  5074  0760  2F92               	goto	l2484
  5075  0761                     u2900:	
  5076  0761                     l2476:	
  5077  0761  3001               	movlw	1
  5078  0762  07C4               	addwf	___flmul@prod,f
  5079  0763  3000               	movlw	0
  5080  0764  1803               	skipnc
  5081  0765  3001               	movlw	1
  5082  0766  07C5               	addwf	___flmul@prod+1,f
  5083  0767  3000               	movlw	0
  5084  0768  1803               	skipnc
  5085  0769  3001               	movlw	1
  5086  076A  07C6               	addwf	___flmul@prod+2,f
  5087  076B  3000               	movlw	0
  5088  076C  1803               	skipnc
  5089  076D  3001               	movlw	1
  5090  076E  07C7               	addwf	___flmul@prod+3,f
  5091  076F                     l2478:	
  5092  076F  1C47               	btfss	___flmul@prod+3,0
  5093  0770  2F72               	goto	u2911
  5094  0771  2F73               	goto	u2910
  5095  0772                     u2911:	
  5096  0772  2F92               	goto	l2484
  5097  0773                     u2910:	
  5098  0773                     l2480:	
  5099  0773  0844               	movf	___flmul@prod,w
  5100  0774  00B8               	movwf	??___flmul
  5101  0775  0845               	movf	___flmul@prod+1,w
  5102  0776  00B9               	movwf	??___flmul+1
  5103  0777  0846               	movf	___flmul@prod+2,w
  5104  0778  00BA               	movwf	??___flmul+2
  5105  0779  0847               	movf	___flmul@prod+3,w
  5106  077A  00BB               	movwf	??___flmul+3
  5107  077B  3001               	movlw	1
  5108  077C  00BC               	movwf	??___flmul+4
  5109  077D                     u2925:	
  5110  077D  0D3B               	rlf	??___flmul+3,w
  5111  077E  0CBB               	rrf	??___flmul+3,f
  5112  077F  0CBA               	rrf	??___flmul+2,f
  5113  0780  0CB9               	rrf	??___flmul+1,f
  5114  0781  0CB8               	rrf	??___flmul,f
  5115  0782                     u2920:	
  5116  0782  0BBC               	decfsz	??___flmul+4,f
  5117  0783  2F7D               	goto	u2925
  5118  0784  083B               	movf	??___flmul+3,w
  5119  0785  00C7               	movwf	___flmul@prod+3
  5120  0786  083A               	movf	??___flmul+2,w
  5121  0787  00C6               	movwf	___flmul@prod+2
  5122  0788  0839               	movf	??___flmul+1,w
  5123  0789  00C5               	movwf	___flmul@prod+1
  5124  078A  0838               	movf	??___flmul,w
  5125  078B  00C4               	movwf	___flmul@prod
  5126  078C                     l2482:	
  5127  078C  3001               	movlw	1
  5128  078D  07C8               	addwf	___flmul@temp,f
  5129  078E  1803               	skipnc
  5130  078F  0AC9               	incf	___flmul@temp+1,f
  5131  0790  3000               	movlw	0
  5132  0791  07C9               	addwf	___flmul@temp+1,f
  5133  0792                     l2484:	
  5134  0792  0849               	movf	___flmul@temp+1,w
  5135  0793  3A80               	xorlw	128
  5136  0794  00FF               	movwf	btemp+1
  5137  0795  3080               	movlw	128
  5138  0796  027F               	subwf	btemp+1,w
  5139  0797  1D03               	skipz
  5140  0798  2F9B               	goto	u2935
  5141  0799  30FF               	movlw	255
  5142  079A  0248               	subwf	___flmul@temp,w
  5143  079B                     u2935:	
  5144  079B  1C03               	skipc
  5145  079C  2F9E               	goto	u2931
  5146  079D  2F9F               	goto	u2930
  5147  079E                     u2931:	
  5148  079E  2FAA               	goto	l2488
  5149  079F                     u2930:	
  5150  079F                     l2486:	
  5151  079F  307F               	movlw	127
  5152  07A0  1283               	bcf	3,5	;RP0=0, select bank0
  5153  07A1  1303               	bcf	3,6	;RP1=0, select bank0
  5154  07A2  00C7               	movwf	___flmul@prod+3
  5155  07A3  3080               	movlw	128
  5156  07A4  00C6               	movwf	___flmul@prod+2
  5157  07A5  3000               	movlw	0
  5158  07A6  00C5               	movwf	___flmul@prod+1
  5159  07A7  3000               	movlw	0
  5160  07A8  00C4               	movwf	___flmul@prod
  5161  07A9  2FDF               	goto	l771
  5162  07AA                     l2488:	
  5163  07AA  1283               	bcf	3,5	;RP0=0, select bank0
  5164  07AB  1303               	bcf	3,6	;RP1=0, select bank0
  5165  07AC  0849               	movf	___flmul@temp+1,w
  5166  07AD  3A80               	xorlw	128
  5167  07AE  00FF               	movwf	btemp+1
  5168  07AF  3080               	movlw	128
  5169  07B0  027F               	subwf	btemp+1,w
  5170  07B1  1D03               	skipz
  5171  07B2  2FB5               	goto	u2945
  5172  07B3  3001               	movlw	1
  5173  07B4  0248               	subwf	___flmul@temp,w
  5174  07B5                     u2945:	
  5175  07B5  1803               	skipnc
  5176  07B6  2FB8               	goto	u2941
  5177  07B7  2FB9               	goto	u2940
  5178  07B8                     u2941:	
  5179  07B8  2FC5               	goto	l2494
  5180  07B9                     u2940:	
  5181  07B9                     l2490:	
  5182  07B9  3000               	movlw	0
  5183  07BA  1283               	bcf	3,5	;RP0=0, select bank0
  5184  07BB  1303               	bcf	3,6	;RP1=0, select bank0
  5185  07BC  00C7               	movwf	___flmul@prod+3
  5186  07BD  3000               	movlw	0
  5187  07BE  00C6               	movwf	___flmul@prod+2
  5188  07BF  3000               	movlw	0
  5189  07C0  00C5               	movwf	___flmul@prod+1
  5190  07C1  3000               	movlw	0
  5191  07C2  00C4               	movwf	___flmul@prod
  5192  07C3                     l2492:	
  5193  07C3  01BD               	clrf	___flmul@sign
  5194  07C4  2FDF               	goto	l771
  5195  07C5                     l2494:	
  5196  07C5  1283               	bcf	3,5	;RP0=0, select bank0
  5197  07C6  1303               	bcf	3,6	;RP1=0, select bank0
  5198  07C7  0848               	movf	___flmul@temp,w
  5199  07C8  00B8               	movwf	??___flmul
  5200  07C9  0838               	movf	??___flmul,w
  5201  07CA  00C3               	movwf	___flmul@bexp
  5202  07CB  30FF               	movlw	255
  5203  07CC  05C4               	andwf	___flmul@prod,f
  5204  07CD  30FF               	movlw	255
  5205  07CE  05C5               	andwf	___flmul@prod+1,f
  5206  07CF  307F               	movlw	127
  5207  07D0  05C6               	andwf	___flmul@prod+2,f
  5208  07D1  3000               	movlw	0
  5209  07D2  05C7               	andwf	___flmul@prod+3,f
  5210  07D3                     l2496:	
  5211  07D3  1C43               	btfss	___flmul@bexp,0
  5212  07D4  2FD6               	goto	u2951
  5213  07D5  2FD7               	goto	u2950
  5214  07D6                     u2951:	
  5215  07D6  2FD8               	goto	l2500
  5216  07D7                     u2950:	
  5217  07D7                     l2498:	
  5218  07D7  17C6               	bsf	___flmul@prod+2,7
  5219  07D8                     l2500:	
  5220  07D8  0843               	movf	___flmul@bexp,w
  5221  07D9  00B8               	movwf	??___flmul
  5222  07DA  1003               	clrc
  5223  07DB  0C38               	rrf	??___flmul,w
  5224  07DC  00B9               	movwf	??___flmul+1
  5225  07DD  0839               	movf	??___flmul+1,w
  5226  07DE  00C7               	movwf	___flmul@prod+3
  5227  07DF                     l771:	
  5228  07DF  083D               	movf	___flmul@sign,w
  5229  07E0  00B8               	movwf	??___flmul
  5230  07E1  0838               	movf	??___flmul,w
  5231  07E2  04C7               	iorwf	___flmul@prod+3,f
  5232  07E3                     l2502:	
  5233  07E3  0847               	movf	___flmul@prod+3,w
  5234  07E4  00B3               	movwf	?___flmul+3
  5235  07E5  0846               	movf	___flmul@prod+2,w
  5236  07E6  00B2               	movwf	?___flmul+2
  5237  07E7  0845               	movf	___flmul@prod+1,w
  5238  07E8  00B1               	movwf	?___flmul+1
  5239  07E9  0844               	movf	___flmul@prod,w
  5240  07EA  00B0               	movwf	?___flmul
  5241  07EB                     l759:	
  5242  07EB  0008               	return
  5243  07EC                     __end_of___flmul:	
  5244                           
  5245                           	psect	text11
  5246  1639                     __ptext11:	
  5247 ;; *************** function __Umul8_16 *****************
  5248 ;; Defined at:
  5249 ;;		line 4 in file "C:\Program Files (x86)\Microchip\xc8\v2.10\pic\sources\c90\common\Umul8_16.c"
  5250 ;; Parameters:    Size  Location     Type
  5251 ;;  multiplier      1    wreg     unsigned char 
  5252 ;;  multiplicand    1    0[COMMON] unsigned char 
  5253 ;; Auto vars:     Size  Location     Type
  5254 ;;  multiplier      1    8[COMMON] unsigned char 
  5255 ;;  word_mpld       2    6[COMMON] unsigned int 
  5256 ;;  product         2    4[COMMON] unsigned int 
  5257 ;; Return value:  Size  Location     Type
  5258 ;;                  2    0[COMMON] unsigned int 
  5259 ;; Registers used:
  5260 ;;		wreg, status,2, status,0
  5261 ;; Tracked objects:
  5262 ;;		On entry : 0/0
  5263 ;;		On exit  : 0/0
  5264 ;;		Unchanged: 0/0
  5265 ;; Data sizes:     COMMON   BANK0   BANK1   BANK3   BANK2
  5266 ;;      Params:         2       0       0       0       0
  5267 ;;      Locals:         5       0       0       0       0
  5268 ;;      Temps:          2       0       0       0       0
  5269 ;;      Totals:         9       0       0       0       0
  5270 ;;Total ram usage:        9 bytes
  5271 ;; Hardware stack levels used:    1
  5272 ;; This function calls:
  5273 ;;		Nothing
  5274 ;; This function is called by:
  5275 ;;		___flmul
  5276 ;; This function uses a non-reentrant model
  5277 ;;
  5278                           
  5279                           
  5280                           ;psect for function __Umul8_16
  5281  1639                     __Umul8_16:	
  5282                           
  5283                           ;incstack = 0
  5284                           ; Regs used in __Umul8_16: [wreg+status,2+status,0]
  5285                           ;__Umul8_16@multiplier stored from wreg
  5286  1639  00F8               	movwf	__Umul8_16@multiplier
  5287  163A                     l2200:	
  5288  163A  01F4               	clrf	__Umul8_16@product
  5289  163B  01F5               	clrf	__Umul8_16@product+1
  5290  163C                     l2202:	
  5291  163C  0870               	movf	__Umul8_16@multiplicand,w
  5292  163D  00F2               	movwf	??__Umul8_16
  5293  163E  01F3               	clrf	??__Umul8_16+1
  5294  163F  0872               	movf	??__Umul8_16,w
  5295  1640  00F6               	movwf	__Umul8_16@word_mpld
  5296  1641  0873               	movf	??__Umul8_16+1,w
  5297  1642  00F7               	movwf	__Umul8_16@word_mpld+1
  5298  1643                     l2204:	
  5299  1643  1C78               	btfss	__Umul8_16@multiplier,0
  5300  1644  2E46               	goto	u2341
  5301  1645  2E47               	goto	u2340
  5302  1646                     u2341:	
  5303  1646  2E4D               	goto	l816
  5304  1647                     u2340:	
  5305  1647                     l2206:	
  5306  1647  0876               	movf	__Umul8_16@word_mpld,w
  5307  1648  07F4               	addwf	__Umul8_16@product,f
  5308  1649  1803               	skipnc
  5309  164A  0AF5               	incf	__Umul8_16@product+1,f
  5310  164B  0877               	movf	__Umul8_16@word_mpld+1,w
  5311  164C  07F5               	addwf	__Umul8_16@product+1,f
  5312  164D                     l816:	
  5313  164D  3001               	movlw	1
  5314  164E                     u2355:	
  5315  164E  1003               	clrc
  5316  164F  0DF6               	rlf	__Umul8_16@word_mpld,f
  5317  1650  0DF7               	rlf	__Umul8_16@word_mpld+1,f
  5318  1651  3EFF               	addlw	-1
  5319  1652  1D03               	skipz
  5320  1653  2E4E               	goto	u2355
  5321  1654  1003               	clrc
  5322  1655  0CF8               	rrf	__Umul8_16@multiplier,f
  5323  1656                     l2208:	
  5324  1656  0878               	movf	__Umul8_16@multiplier,w
  5325  1657  1D03               	btfss	3,2
  5326  1658  2E5A               	goto	u2361
  5327  1659  2E5B               	goto	u2360
  5328  165A                     u2361:	
  5329  165A  2E43               	goto	l2204
  5330  165B                     u2360:	
  5331  165B                     l2210:	
  5332  165B  0875               	movf	__Umul8_16@product+1,w
  5333  165C  00F1               	movwf	?__Umul8_16+1
  5334  165D  0874               	movf	__Umul8_16@product,w
  5335  165E  00F0               	movwf	?__Umul8_16
  5336  165F                     l818:	
  5337  165F  0008               	return
  5338  1660                     __end_of__Umul8_16:	
  5339                           
  5340                           	psect	text12
  5341  0016                     __ptext12:	
  5342 ;; *************** function ___fldiv *****************
  5343 ;; Defined at:
  5344 ;;		line 8 in file "C:\Program Files (x86)\Microchip\xc8\v2.10\pic\sources\c90\common\sprcdiv.c"
  5345 ;; Parameters:    Size  Location     Type
  5346 ;;  a               4    0[BANK0 ] unsigned int 
  5347 ;;  b               4    4[BANK0 ] unsigned int 
  5348 ;; Auto vars:     Size  Location     Type
  5349 ;;  grs             4   20[BANK0 ] unsigned long 
  5350 ;;  rem             4   13[BANK0 ] unsigned long 
  5351 ;;  new_exp         2   18[BANK0 ] int 
  5352 ;;  aexp            1   25[BANK0 ] unsigned char 
  5353 ;;  bexp            1   24[BANK0 ] unsigned char 
  5354 ;;  sign            1   17[BANK0 ] unsigned char 
  5355 ;; Return value:  Size  Location     Type
  5356 ;;                  4    0[BANK0 ] unsigned char 
  5357 ;; Registers used:
  5358 ;;		wreg, status,2, status,0, btemp+1
  5359 ;; Tracked objects:
  5360 ;;		On entry : 0/0
  5361 ;;		On exit  : 0/0
  5362 ;;		Unchanged: 0/0
  5363 ;; Data sizes:     COMMON   BANK0   BANK1   BANK3   BANK2
  5364 ;;      Params:         0       8       0       0       0
  5365 ;;      Locals:         0      13       0       0       0
  5366 ;;      Temps:          0       5       0       0       0
  5367 ;;      Totals:         0      26       0       0       0
  5368 ;;Total ram usage:       26 bytes
  5369 ;; Hardware stack levels used:    1
  5370 ;; This function calls:
  5371 ;;		Nothing
  5372 ;; This function is called by:
  5373 ;;		_main
  5374 ;;		_b2
  5375 ;;		_b1
  5376 ;;		_b0
  5377 ;; This function uses a non-reentrant model
  5378 ;;
  5379                           
  5380                           
  5381                           ;psect for function ___fldiv
  5382  0016                     ___fldiv:	
  5383  0016                     l2754:	
  5384                           ;incstack = 0
  5385                           ; Regs used in ___fldiv: [wreg+status,2+status,0+btemp+1]
  5386                           
  5387  0016  1283               	bcf	3,5	;RP0=0, select bank0
  5388  0017  1303               	bcf	3,6	;RP1=0, select bank0
  5389  0018  0827               	movf	___fldiv@b+3,w
  5390  0019  3980               	andlw	128
  5391  001A  00A8               	movwf	??___fldiv
  5392  001B  0828               	movf	??___fldiv,w
  5393  001C  00B1               	movwf	___fldiv@sign
  5394  001D                     l2756:	
  5395  001D  0827               	movf	___fldiv@b+3,w
  5396  001E  00A8               	movwf	??___fldiv
  5397  001F  0728               	addwf	??___fldiv,w
  5398  0020  00A9               	movwf	??___fldiv+1
  5399  0021  0829               	movf	??___fldiv+1,w
  5400  0022  00B8               	movwf	___fldiv@bexp
  5401  0023                     l2758:	
  5402  0023  1FA6               	btfss	___fldiv@b+2,7
  5403  0024  2826               	goto	u3241
  5404  0025  2827               	goto	u3240
  5405  0026                     u3241:	
  5406  0026  2828               	goto	l2762
  5407  0027                     u3240:	
  5408  0027                     l2760:	
  5409  0027  1438               	bsf	___fldiv@bexp,0
  5410  0028                     l2762:	
  5411  0028  0838               	movf	___fldiv@bexp,w
  5412  0029  1903               	btfsc	3,2
  5413  002A  282C               	goto	u3251
  5414  002B  282D               	goto	u3250
  5415  002C                     u3251:	
  5416  002C  283D               	goto	l2772
  5417  002D                     u3250:	
  5418  002D                     l2764:	
  5419  002D  0A38               	incf	___fldiv@bexp,w
  5420  002E  1D03               	btfss	3,2
  5421  002F  2831               	goto	u3261
  5422  0030  2832               	goto	u3260
  5423  0031                     u3261:	
  5424  0031  283A               	goto	l2768
  5425  0032                     u3260:	
  5426  0032                     l2766:	
  5427  0032  3000               	movlw	0
  5428  0033  00A7               	movwf	___fldiv@b+3
  5429  0034  3000               	movlw	0
  5430  0035  00A6               	movwf	___fldiv@b+2
  5431  0036  3000               	movlw	0
  5432  0037  00A5               	movwf	___fldiv@b+1
  5433  0038  3000               	movlw	0
  5434  0039  00A4               	movwf	___fldiv@b
  5435  003A                     l2768:	
  5436  003A  17A6               	bsf	___fldiv@b+2,7
  5437  003B                     l2770:	
  5438  003B  01A7               	clrf	___fldiv@b+3
  5439  003C  2845               	goto	l2774
  5440  003D                     l2772:	
  5441  003D  3000               	movlw	0
  5442  003E  00A7               	movwf	___fldiv@b+3
  5443  003F  3000               	movlw	0
  5444  0040  00A6               	movwf	___fldiv@b+2
  5445  0041  3000               	movlw	0
  5446  0042  00A5               	movwf	___fldiv@b+1
  5447  0043  3000               	movlw	0
  5448  0044  00A4               	movwf	___fldiv@b
  5449  0045                     l2774:	
  5450  0045  0823               	movf	___fldiv@a+3,w
  5451  0046  3980               	andlw	128
  5452  0047  00A8               	movwf	??___fldiv
  5453  0048  0828               	movf	??___fldiv,w
  5454  0049  06B1               	xorwf	___fldiv@sign,f
  5455  004A                     l2776:	
  5456  004A  0823               	movf	___fldiv@a+3,w
  5457  004B  00A8               	movwf	??___fldiv
  5458  004C  0728               	addwf	??___fldiv,w
  5459  004D  00A9               	movwf	??___fldiv+1
  5460  004E  0829               	movf	??___fldiv+1,w
  5461  004F  00B9               	movwf	___fldiv@aexp
  5462  0050                     l2778:	
  5463  0050  1FA2               	btfss	___fldiv@a+2,7
  5464  0051  2853               	goto	u3271
  5465  0052  2854               	goto	u3270
  5466  0053                     u3271:	
  5467  0053  2855               	goto	l2782
  5468  0054                     u3270:	
  5469  0054                     l2780:	
  5470  0054  1439               	bsf	___fldiv@aexp,0
  5471  0055                     l2782:	
  5472  0055  0839               	movf	___fldiv@aexp,w
  5473  0056  1903               	btfsc	3,2
  5474  0057  2859               	goto	u3281
  5475  0058  285A               	goto	u3280
  5476  0059                     u3281:	
  5477  0059  286A               	goto	l2792
  5478  005A                     u3280:	
  5479  005A                     l2784:	
  5480  005A  0A39               	incf	___fldiv@aexp,w
  5481  005B  1D03               	btfss	3,2
  5482  005C  285E               	goto	u3291
  5483  005D  285F               	goto	u3290
  5484  005E                     u3291:	
  5485  005E  2867               	goto	l2788
  5486  005F                     u3290:	
  5487  005F                     l2786:	
  5488  005F  3000               	movlw	0
  5489  0060  00A3               	movwf	___fldiv@a+3
  5490  0061  3000               	movlw	0
  5491  0062  00A2               	movwf	___fldiv@a+2
  5492  0063  3000               	movlw	0
  5493  0064  00A1               	movwf	___fldiv@a+1
  5494  0065  3000               	movlw	0
  5495  0066  00A0               	movwf	___fldiv@a
  5496  0067                     l2788:	
  5497  0067  17A2               	bsf	___fldiv@a+2,7
  5498  0068                     l2790:	
  5499  0068  01A3               	clrf	___fldiv@a+3
  5500  0069  2872               	goto	l719
  5501  006A                     l2792:	
  5502  006A  3000               	movlw	0
  5503  006B  00A3               	movwf	___fldiv@a+3
  5504  006C  3000               	movlw	0
  5505  006D  00A2               	movwf	___fldiv@a+2
  5506  006E  3000               	movlw	0
  5507  006F  00A1               	movwf	___fldiv@a+1
  5508  0070  3000               	movlw	0
  5509  0071  00A0               	movwf	___fldiv@a
  5510  0072                     l719:	
  5511  0072  0823               	movf	___fldiv@a+3,w
  5512  0073  0422               	iorwf	___fldiv@a+2,w
  5513  0074  0421               	iorwf	___fldiv@a+1,w
  5514  0075  0420               	iorwf	___fldiv@a,w
  5515  0076  1D03               	skipz
  5516  0077  2879               	goto	u3301
  5517  0078  287A               	goto	u3300
  5518  0079                     u3301:	
  5519  0079  2893               	goto	l2802
  5520  007A                     u3300:	
  5521  007A                     l2794:	
  5522  007A  3000               	movlw	0
  5523  007B  00A7               	movwf	___fldiv@b+3
  5524  007C  3000               	movlw	0
  5525  007D  00A6               	movwf	___fldiv@b+2
  5526  007E  3000               	movlw	0
  5527  007F  00A5               	movwf	___fldiv@b+1
  5528  0080  3000               	movlw	0
  5529  0081  00A4               	movwf	___fldiv@b
  5530  0082  3080               	movlw	128
  5531  0083  04A6               	iorwf	___fldiv@b+2,f
  5532  0084  307F               	movlw	127
  5533  0085  04A7               	iorwf	___fldiv@b+3,f
  5534  0086                     l2796:	
  5535  0086  0831               	movf	___fldiv@sign,w
  5536  0087  00A8               	movwf	??___fldiv
  5537  0088  0828               	movf	??___fldiv,w
  5538  0089  04A7               	iorwf	___fldiv@b+3,f
  5539  008A                     l2798:	
  5540  008A  0827               	movf	___fldiv@b+3,w
  5541  008B  00A3               	movwf	?___fldiv+3
  5542  008C  0826               	movf	___fldiv@b+2,w
  5543  008D  00A2               	movwf	?___fldiv+2
  5544  008E  0825               	movf	___fldiv@b+1,w
  5545  008F  00A1               	movwf	?___fldiv+1
  5546  0090  0824               	movf	___fldiv@b,w
  5547  0091  00A0               	movwf	?___fldiv
  5548  0092  29F2               	goto	l721
  5549  0093                     l2802:	
  5550  0093  0838               	movf	___fldiv@bexp,w
  5551  0094  1D03               	btfss	3,2
  5552  0095  2897               	goto	u3311
  5553  0096  2898               	goto	u3310
  5554  0097                     u3311:	
  5555  0097  28A1               	goto	l2808
  5556  0098                     u3310:	
  5557  0098                     l2804:	
  5558  0098  3000               	movlw	0
  5559  0099  00A3               	movwf	?___fldiv+3
  5560  009A  3000               	movlw	0
  5561  009B  00A2               	movwf	?___fldiv+2
  5562  009C  3000               	movlw	0
  5563  009D  00A1               	movwf	?___fldiv+1
  5564  009E  3000               	movlw	0
  5565  009F  00A0               	movwf	?___fldiv
  5566  00A0  29F2               	goto	l721
  5567  00A1                     l2808:	
  5568  00A1  0838               	movf	___fldiv@bexp,w
  5569  00A2  00A8               	movwf	??___fldiv
  5570  00A3  01A9               	clrf	??___fldiv+1
  5571  00A4  0829               	movf	??___fldiv+1,w
  5572  00A5  00AB               	movwf	??___fldiv+3
  5573  00A6  0839               	movf	___fldiv@aexp,w
  5574  00A7  0228               	subwf	??___fldiv,w
  5575  00A8  00AA               	movwf	??___fldiv+2
  5576  00A9  1C03               	skipc
  5577  00AA  03AB               	decf	??___fldiv+3,f
  5578  00AB  082A               	movf	??___fldiv+2,w
  5579  00AC  3E7F               	addlw	127
  5580  00AD  00B2               	movwf	___fldiv@new_exp
  5581  00AE  082B               	movf	??___fldiv+3,w
  5582  00AF  1803               	skipnc
  5583  00B0  3E01               	addlw	1
  5584  00B1  3E00               	addlw	0
  5585  00B2  00B3               	movwf	___fldiv@new_exp+1
  5586  00B3                     l2810:	
  5587  00B3  0827               	movf	___fldiv@b+3,w
  5588  00B4  00B0               	movwf	___fldiv@rem+3
  5589  00B5  0826               	movf	___fldiv@b+2,w
  5590  00B6  00AF               	movwf	___fldiv@rem+2
  5591  00B7  0825               	movf	___fldiv@b+1,w
  5592  00B8  00AE               	movwf	___fldiv@rem+1
  5593  00B9  0824               	movf	___fldiv@b,w
  5594  00BA  00AD               	movwf	___fldiv@rem
  5595  00BB                     l2812:	
  5596  00BB  3000               	movlw	0
  5597  00BC  00A7               	movwf	___fldiv@b+3
  5598  00BD  3000               	movlw	0
  5599  00BE  00A6               	movwf	___fldiv@b+2
  5600  00BF  3000               	movlw	0
  5601  00C0  00A5               	movwf	___fldiv@b+1
  5602  00C1  3000               	movlw	0
  5603  00C2  00A4               	movwf	___fldiv@b
  5604  00C3                     l2814:	
  5605  00C3  3000               	movlw	0
  5606  00C4  00B7               	movwf	___fldiv@grs+3
  5607  00C5  3000               	movlw	0
  5608  00C6  00B6               	movwf	___fldiv@grs+2
  5609  00C7  3000               	movlw	0
  5610  00C8  00B5               	movwf	___fldiv@grs+1
  5611  00C9  3000               	movlw	0
  5612  00CA  00B4               	movwf	___fldiv@grs
  5613  00CB                     l2816:	
  5614  00CB  01B9               	clrf	___fldiv@aexp
  5615  00CC  2917               	goto	l2836
  5616  00CD                     l2818:	
  5617  00CD  0839               	movf	___fldiv@aexp,w
  5618  00CE  1903               	btfsc	3,2
  5619  00CF  28D1               	goto	u3321
  5620  00D0  28D2               	goto	u3320
  5621  00D1                     u3321:	
  5622  00D1  28F2               	goto	l2828
  5623  00D2                     u3320:	
  5624  00D2                     l2820:	
  5625  00D2  3001               	movlw	1
  5626  00D3  00A8               	movwf	??___fldiv
  5627  00D4                     u3335:	
  5628  00D4  1003               	clrc
  5629  00D5  0DAD               	rlf	___fldiv@rem,f
  5630  00D6  0DAE               	rlf	___fldiv@rem+1,f
  5631  00D7  0DAF               	rlf	___fldiv@rem+2,f
  5632  00D8  0DB0               	rlf	___fldiv@rem+3,f
  5633  00D9  0BA8               	decfsz	??___fldiv,f
  5634  00DA  28D4               	goto	u3335
  5635  00DB  3001               	movlw	1
  5636  00DC  00A8               	movwf	??___fldiv
  5637  00DD                     u3345:	
  5638  00DD  1003               	clrc
  5639  00DE  0DA4               	rlf	___fldiv@b,f
  5640  00DF  0DA5               	rlf	___fldiv@b+1,f
  5641  00E0  0DA6               	rlf	___fldiv@b+2,f
  5642  00E1  0DA7               	rlf	___fldiv@b+3,f
  5643  00E2  0BA8               	decfsz	??___fldiv,f
  5644  00E3  28DD               	goto	u3345
  5645  00E4                     l2822:	
  5646  00E4  1FB7               	btfss	___fldiv@grs+3,7
  5647  00E5  28E7               	goto	u3351
  5648  00E6  28E8               	goto	u3350
  5649  00E7                     u3351:	
  5650  00E7  28E9               	goto	l2826
  5651  00E8                     u3350:	
  5652  00E8                     l2824:	
  5653  00E8  1424               	bsf	___fldiv@b,0
  5654  00E9                     l2826:	
  5655  00E9  3001               	movlw	1
  5656  00EA  00A8               	movwf	??___fldiv
  5657  00EB                     u3365:	
  5658  00EB  1003               	clrc
  5659  00EC  0DB4               	rlf	___fldiv@grs,f
  5660  00ED  0DB5               	rlf	___fldiv@grs+1,f
  5661  00EE  0DB6               	rlf	___fldiv@grs+2,f
  5662  00EF  0DB7               	rlf	___fldiv@grs+3,f
  5663  00F0  0BA8               	decfsz	??___fldiv,f
  5664  00F1  28EB               	goto	u3365
  5665  00F2                     l2828:	
  5666  00F2  0823               	movf	___fldiv@a+3,w
  5667  00F3  0230               	subwf	___fldiv@rem+3,w
  5668  00F4  1D03               	skipz
  5669  00F5  2900               	goto	u3375
  5670  00F6  0822               	movf	___fldiv@a+2,w
  5671  00F7  022F               	subwf	___fldiv@rem+2,w
  5672  00F8  1D03               	skipz
  5673  00F9  2900               	goto	u3375
  5674  00FA  0821               	movf	___fldiv@a+1,w
  5675  00FB  022E               	subwf	___fldiv@rem+1,w
  5676  00FC  1D03               	skipz
  5677  00FD  2900               	goto	u3375
  5678  00FE  0820               	movf	___fldiv@a,w
  5679  00FF  022D               	subwf	___fldiv@rem,w
  5680  0100                     u3375:	
  5681  0100  1C03               	skipc
  5682  0101  2903               	goto	u3371
  5683  0102  2904               	goto	u3370
  5684  0103                     u3371:	
  5685  0103  2913               	goto	l2834
  5686  0104                     u3370:	
  5687  0104                     l2830:	
  5688  0104  1737               	bsf	___fldiv@grs+3,6
  5689  0105                     l2832:	
  5690  0105  0820               	movf	___fldiv@a,w
  5691  0106  02AD               	subwf	___fldiv@rem,f
  5692  0107  0821               	movf	___fldiv@a+1,w
  5693  0108  1C03               	skipc
  5694  0109  0F21               	incfsz	___fldiv@a+1,w
  5695  010A  02AE               	subwf	___fldiv@rem+1,f
  5696  010B  0822               	movf	___fldiv@a+2,w
  5697  010C  1C03               	skipc
  5698  010D  0F22               	incfsz	___fldiv@a+2,w
  5699  010E  02AF               	subwf	___fldiv@rem+2,f
  5700  010F  0823               	movf	___fldiv@a+3,w
  5701  0110  1C03               	skipc
  5702  0111  0F23               	incfsz	___fldiv@a+3,w
  5703  0112  02B0               	subwf	___fldiv@rem+3,f
  5704  0113                     l2834:	
  5705  0113  3001               	movlw	1
  5706  0114  00A8               	movwf	??___fldiv
  5707  0115  0828               	movf	??___fldiv,w
  5708  0116  07B9               	addwf	___fldiv@aexp,f
  5709  0117                     l2836:	
  5710  0117  301A               	movlw	26
  5711  0118  0239               	subwf	___fldiv@aexp,w
  5712  0119  1C03               	skipc
  5713  011A  291C               	goto	u3381
  5714  011B  291D               	goto	u3380
  5715  011C                     u3381:	
  5716  011C  28CD               	goto	l2818
  5717  011D                     u3380:	
  5718  011D                     l2838:	
  5719  011D  0830               	movf	___fldiv@rem+3,w
  5720  011E  042F               	iorwf	___fldiv@rem+2,w
  5721  011F  042E               	iorwf	___fldiv@rem+1,w
  5722  0120  042D               	iorwf	___fldiv@rem,w
  5723  0121  1903               	skipnz
  5724  0122  2924               	goto	u3391
  5725  0123  2925               	goto	u3390
  5726  0124                     u3391:	
  5727  0124  2944               	goto	l2852
  5728  0125                     u3390:	
  5729  0125                     l2840:	
  5730  0125  1434               	bsf	___fldiv@grs,0
  5731  0126  2944               	goto	l2852
  5732  0127                     l2842:	
  5733  0127  3001               	movlw	1
  5734  0128  00A8               	movwf	??___fldiv
  5735  0129                     u3405:	
  5736  0129  1003               	clrc
  5737  012A  0DA4               	rlf	___fldiv@b,f
  5738  012B  0DA5               	rlf	___fldiv@b+1,f
  5739  012C  0DA6               	rlf	___fldiv@b+2,f
  5740  012D  0DA7               	rlf	___fldiv@b+3,f
  5741  012E  0BA8               	decfsz	??___fldiv,f
  5742  012F  2929               	goto	u3405
  5743  0130                     l2844:	
  5744  0130  1FB7               	btfss	___fldiv@grs+3,7
  5745  0131  2933               	goto	u3411
  5746  0132  2934               	goto	u3410
  5747  0133                     u3411:	
  5748  0133  2935               	goto	l2848
  5749  0134                     u3410:	
  5750  0134                     l2846:	
  5751  0134  1424               	bsf	___fldiv@b,0
  5752  0135                     l2848:	
  5753  0135  3001               	movlw	1
  5754  0136  00A8               	movwf	??___fldiv
  5755  0137                     u3425:	
  5756  0137  1003               	clrc
  5757  0138  0DB4               	rlf	___fldiv@grs,f
  5758  0139  0DB5               	rlf	___fldiv@grs+1,f
  5759  013A  0DB6               	rlf	___fldiv@grs+2,f
  5760  013B  0DB7               	rlf	___fldiv@grs+3,f
  5761  013C  0BA8               	decfsz	??___fldiv,f
  5762  013D  2937               	goto	u3425
  5763  013E                     l2850:	
  5764  013E  30FF               	movlw	255
  5765  013F  07B2               	addwf	___fldiv@new_exp,f
  5766  0140  1803               	skipnc
  5767  0141  0AB3               	incf	___fldiv@new_exp+1,f
  5768  0142  30FF               	movlw	255
  5769  0143  07B3               	addwf	___fldiv@new_exp+1,f
  5770  0144                     l2852:	
  5771  0144  1FA6               	btfss	___fldiv@b+2,7
  5772  0145  2947               	goto	u3431
  5773  0146  2948               	goto	u3430
  5774  0147                     u3431:	
  5775  0147  2927               	goto	l2842
  5776  0148                     u3430:	
  5777  0148                     l2854:	
  5778  0148  01B9               	clrf	___fldiv@aexp
  5779  0149                     l2856:	
  5780  0149  1FB7               	btfss	___fldiv@grs+3,7
  5781  014A  294C               	goto	u3441
  5782  014B  294D               	goto	u3440
  5783  014C                     u3441:	
  5784  014C  2969               	goto	l2864
  5785  014D                     u3440:	
  5786  014D                     l2858:	
  5787  014D  30FF               	movlw	255
  5788  014E  0534               	andwf	___fldiv@grs,w
  5789  014F  00A8               	movwf	??___fldiv
  5790  0150  30FF               	movlw	255
  5791  0151  0535               	andwf	___fldiv@grs+1,w
  5792  0152  00A9               	movwf	??___fldiv+1
  5793  0153  30FF               	movlw	255
  5794  0154  0536               	andwf	___fldiv@grs+2,w
  5795  0155  00AA               	movwf	??___fldiv+2
  5796  0156  307F               	movlw	127
  5797  0157  0537               	andwf	___fldiv@grs+3,w
  5798  0158  00AB               	movwf	??___fldiv+3
  5799  0159  082B               	movf	??___fldiv+3,w
  5800  015A  042A               	iorwf	??___fldiv+2,w
  5801  015B  0429               	iorwf	??___fldiv+1,w
  5802  015C  0428               	iorwf	??___fldiv,w
  5803  015D  1903               	skipnz
  5804  015E  2960               	goto	u3451
  5805  015F  2961               	goto	u3450
  5806  0160                     u3451:	
  5807  0160  2964               	goto	l735
  5808  0161                     u3450:	
  5809  0161                     l2860:	
  5810  0161  01B9               	clrf	___fldiv@aexp
  5811  0162  0AB9               	incf	___fldiv@aexp,f
  5812  0163  2969               	goto	l2864
  5813  0164                     l735:	
  5814  0164  1C24               	btfss	___fldiv@b,0
  5815  0165  2967               	goto	u3461
  5816  0166  2968               	goto	u3460
  5817  0167                     u3461:	
  5818  0167  2969               	goto	l2864
  5819  0168                     u3460:	
  5820  0168  2961               	goto	l2860
  5821  0169                     l2864:	
  5822  0169  0839               	movf	___fldiv@aexp,w
  5823  016A  1903               	btfsc	3,2
  5824  016B  296D               	goto	u3471
  5825  016C  296E               	goto	u3470
  5826  016D                     u3471:	
  5827  016D  299F               	goto	l2874
  5828  016E                     u3470:	
  5829  016E                     l2866:	
  5830  016E  3001               	movlw	1
  5831  016F  07A4               	addwf	___fldiv@b,f
  5832  0170  3000               	movlw	0
  5833  0171  1803               	skipnc
  5834  0172  3001               	movlw	1
  5835  0173  07A5               	addwf	___fldiv@b+1,f
  5836  0174  3000               	movlw	0
  5837  0175  1803               	skipnc
  5838  0176  3001               	movlw	1
  5839  0177  07A6               	addwf	___fldiv@b+2,f
  5840  0178  3000               	movlw	0
  5841  0179  1803               	skipnc
  5842  017A  3001               	movlw	1
  5843  017B  07A7               	addwf	___fldiv@b+3,f
  5844  017C                     l2868:	
  5845  017C  1C27               	btfss	___fldiv@b+3,0
  5846  017D  297F               	goto	u3481
  5847  017E  2980               	goto	u3480
  5848  017F                     u3481:	
  5849  017F  299F               	goto	l2874
  5850  0180                     u3480:	
  5851  0180                     l2870:	
  5852  0180  0824               	movf	___fldiv@b,w
  5853  0181  00A8               	movwf	??___fldiv
  5854  0182  0825               	movf	___fldiv@b+1,w
  5855  0183  00A9               	movwf	??___fldiv+1
  5856  0184  0826               	movf	___fldiv@b+2,w
  5857  0185  00AA               	movwf	??___fldiv+2
  5858  0186  0827               	movf	___fldiv@b+3,w
  5859  0187  00AB               	movwf	??___fldiv+3
  5860  0188  3001               	movlw	1
  5861  0189  00AC               	movwf	??___fldiv+4
  5862  018A                     u3495:	
  5863  018A  0D2B               	rlf	??___fldiv+3,w
  5864  018B  0CAB               	rrf	??___fldiv+3,f
  5865  018C  0CAA               	rrf	??___fldiv+2,f
  5866  018D  0CA9               	rrf	??___fldiv+1,f
  5867  018E  0CA8               	rrf	??___fldiv,f
  5868  018F                     u3490:	
  5869  018F  0BAC               	decfsz	??___fldiv+4,f
  5870  0190  298A               	goto	u3495
  5871  0191  082B               	movf	??___fldiv+3,w
  5872  0192  00A7               	movwf	___fldiv@b+3
  5873  0193  082A               	movf	??___fldiv+2,w
  5874  0194  00A6               	movwf	___fldiv@b+2
  5875  0195  0829               	movf	??___fldiv+1,w
  5876  0196  00A5               	movwf	___fldiv@b+1
  5877  0197  0828               	movf	??___fldiv,w
  5878  0198  00A4               	movwf	___fldiv@b
  5879  0199                     l2872:	
  5880  0199  3001               	movlw	1
  5881  019A  07B2               	addwf	___fldiv@new_exp,f
  5882  019B  1803               	skipnc
  5883  019C  0AB3               	incf	___fldiv@new_exp+1,f
  5884  019D  3000               	movlw	0
  5885  019E  07B3               	addwf	___fldiv@new_exp+1,f
  5886  019F                     l2874:	
  5887  019F  0833               	movf	___fldiv@new_exp+1,w
  5888  01A0  3A80               	xorlw	128
  5889  01A1  00FF               	movwf	btemp+1
  5890  01A2  3080               	movlw	128
  5891  01A3  027F               	subwf	btemp+1,w
  5892  01A4  1D03               	skipz
  5893  01A5  29A8               	goto	u3505
  5894  01A6  30FF               	movlw	255
  5895  01A7  0232               	subwf	___fldiv@new_exp,w
  5896  01A8                     u3505:	
  5897  01A8  1C03               	skipc
  5898  01A9  29AB               	goto	u3501
  5899  01AA  29AC               	goto	u3500
  5900  01AB                     u3501:	
  5901  01AB  29BA               	goto	l2878
  5902  01AC                     u3500:	
  5903  01AC                     l2876:	
  5904  01AC  30FF               	movlw	255
  5905  01AD  1283               	bcf	3,5	;RP0=0, select bank0
  5906  01AE  1303               	bcf	3,6	;RP1=0, select bank0
  5907  01AF  00B2               	movwf	___fldiv@new_exp
  5908  01B0  3000               	movlw	0
  5909  01B1  00B3               	movwf	___fldiv@new_exp+1
  5910  01B2  3000               	movlw	0
  5911  01B3  00A7               	movwf	___fldiv@b+3
  5912  01B4  3000               	movlw	0
  5913  01B5  00A6               	movwf	___fldiv@b+2
  5914  01B6  3000               	movlw	0
  5915  01B7  00A5               	movwf	___fldiv@b+1
  5916  01B8  3000               	movlw	0
  5917  01B9  00A4               	movwf	___fldiv@b
  5918  01BA                     l2878:	
  5919  01BA  1283               	bcf	3,5	;RP0=0, select bank0
  5920  01BB  1303               	bcf	3,6	;RP1=0, select bank0
  5921  01BC  0833               	movf	___fldiv@new_exp+1,w
  5922  01BD  3A80               	xorlw	128
  5923  01BE  00FF               	movwf	btemp+1
  5924  01BF  3080               	movlw	128
  5925  01C0  027F               	subwf	btemp+1,w
  5926  01C1  1D03               	skipz
  5927  01C2  29C5               	goto	u3515
  5928  01C3  3001               	movlw	1
  5929  01C4  0232               	subwf	___fldiv@new_exp,w
  5930  01C5                     u3515:	
  5931  01C5  1803               	skipnc
  5932  01C6  29C8               	goto	u3511
  5933  01C7  29C9               	goto	u3510
  5934  01C8                     u3511:	
  5935  01C8  29D6               	goto	l741
  5936  01C9                     u3510:	
  5937  01C9                     l2880:	
  5938  01C9  1283               	bcf	3,5	;RP0=0, select bank0
  5939  01CA  1303               	bcf	3,6	;RP1=0, select bank0
  5940  01CB  01B2               	clrf	___fldiv@new_exp
  5941  01CC  01B3               	clrf	___fldiv@new_exp+1
  5942  01CD                     l2882:	
  5943  01CD  3000               	movlw	0
  5944  01CE  00A7               	movwf	___fldiv@b+3
  5945  01CF  3000               	movlw	0
  5946  01D0  00A6               	movwf	___fldiv@b+2
  5947  01D1  3000               	movlw	0
  5948  01D2  00A5               	movwf	___fldiv@b+1
  5949  01D3  3000               	movlw	0
  5950  01D4  00A4               	movwf	___fldiv@b
  5951  01D5                     l2884:	
  5952  01D5  01B1               	clrf	___fldiv@sign
  5953  01D6                     l741:	
  5954  01D6  1283               	bcf	3,5	;RP0=0, select bank0
  5955  01D7  1303               	bcf	3,6	;RP1=0, select bank0
  5956  01D8  0832               	movf	___fldiv@new_exp,w
  5957  01D9  00A8               	movwf	??___fldiv
  5958  01DA  0828               	movf	??___fldiv,w
  5959  01DB  00B8               	movwf	___fldiv@bexp
  5960  01DC                     l2886:	
  5961  01DC  1C38               	btfss	___fldiv@bexp,0
  5962  01DD  29DF               	goto	u3521
  5963  01DE  29E0               	goto	u3520
  5964  01DF                     u3521:	
  5965  01DF  29E2               	goto	l2890
  5966  01E0                     u3520:	
  5967  01E0                     l2888:	
  5968  01E0  17A6               	bsf	___fldiv@b+2,7
  5969  01E1  29E6               	goto	l743
  5970  01E2                     l2890:	
  5971  01E2  307F               	movlw	127
  5972  01E3  00A8               	movwf	??___fldiv
  5973  01E4  0828               	movf	??___fldiv,w
  5974  01E5  05A6               	andwf	___fldiv@b+2,f
  5975  01E6                     l743:	
  5976  01E6  0838               	movf	___fldiv@bexp,w
  5977  01E7  00A8               	movwf	??___fldiv
  5978  01E8  1003               	clrc
  5979  01E9  0C28               	rrf	??___fldiv,w
  5980  01EA  00A9               	movwf	??___fldiv+1
  5981  01EB  0829               	movf	??___fldiv+1,w
  5982  01EC  00A7               	movwf	___fldiv@b+3
  5983  01ED  0831               	movf	___fldiv@sign,w
  5984  01EE  00A8               	movwf	??___fldiv
  5985  01EF  0828               	movf	??___fldiv,w
  5986  01F0  04A7               	iorwf	___fldiv@b+3,f
  5987  01F1  288A               	goto	l2798
  5988  01F2                     l721:	
  5989  01F2  0008               	return
  5990  01F3                     __end_of___fldiv:	
  5991                           
  5992                           	psect	text13
  5993  15C4                     __ptext13:	
  5994 ;; *************** function _UART_Write *****************
  5995 ;; Defined at:
  5996 ;;		line 37 in file "RXTX.c"
  5997 ;; Parameters:    Size  Location     Type
  5998 ;;  data            1    wreg     unsigned char 
  5999 ;; Auto vars:     Size  Location     Type
  6000 ;;  data            1    2[COMMON] unsigned char 
  6001 ;; Return value:  Size  Location     Type
  6002 ;;                  1    wreg      void 
  6003 ;; Registers used:
  6004 ;;		wreg
  6005 ;; Tracked objects:
  6006 ;;		On entry : 0/0
  6007 ;;		On exit  : 0/0
  6008 ;;		Unchanged: 0/0
  6009 ;; Data sizes:     COMMON   BANK0   BANK1   BANK3   BANK2
  6010 ;;      Params:         0       0       0       0       0
  6011 ;;      Locals:         1       0       0       0       0
  6012 ;;      Temps:          2       0       0       0       0
  6013 ;;      Totals:         3       0       0       0       0
  6014 ;;Total ram usage:        3 bytes
  6015 ;; Hardware stack levels used:    1
  6016 ;; This function calls:
  6017 ;;		Nothing
  6018 ;; This function is called by:
  6019 ;;		_main
  6020 ;; This function uses a non-reentrant model
  6021 ;;
  6022                           
  6023                           
  6024                           ;psect for function _UART_Write
  6025  15C4                     _UART_Write:	
  6026                           
  6027                           ;incstack = 0
  6028                           ; Regs used in _UART_Write: [wreg]
  6029                           ;UART_Write@data stored from wreg
  6030  15C4  00F2               	movwf	UART_Write@data
  6031  15C5                     l2750:	
  6032  15C5                     l263:	
  6033                           ;RXTX.c: 37: void UART_Write(char data);RXTX.c: 38: {;RXTX.c: 39:   while(!TRMT);
  6034                           
  6035  15C5  1683               	bsf	3,5	;RP0=1, select bank1
  6036  15C6  1303               	bcf	3,6	;RP1=0, select bank1
  6037  15C7  1C98               	btfss	24,1	;volatile
  6038  15C8  2DCA               	goto	u3231
  6039  15C9  2DCB               	goto	u3230
  6040  15CA                     u3231:	
  6041  15CA  2DC5               	goto	l263
  6042  15CB                     u3230:	
  6043  15CB                     l2752:	
  6044                           
  6045                           ;RXTX.c: 40:   TXREG = data;
  6046  15CB  0872               	movf	UART_Write@data,w
  6047  15CC  1283               	bcf	3,5	;RP0=0, select bank0
  6048  15CD  1303               	bcf	3,6	;RP1=0, select bank0
  6049  15CE  0099               	movwf	25	;volatile
  6050                           
  6051                           ;RXTX.c: 41:   _delay((unsigned long)((100)*(4000000/4000.0)));
  6052  15CF  3082               	movlw	130
  6053  15D0  00F1               	movwf	??_UART_Write+1
  6054  15D1  30DD               	movlw	221
  6055  15D2  00F0               	movwf	??_UART_Write
  6056  15D3                     u3617:	
  6057  15D3  0BF0               	decfsz	??_UART_Write,f
  6058  15D4  2DD3               	goto	u3617
  6059  15D5  0BF1               	decfsz	??_UART_Write+1,f
  6060  15D6  2DD3               	goto	u3617
  6061  15D7  2DD8               	nop2
  6062  15D8                     l266:	
  6063  15D8  0008               	return
  6064  15D9                     __end_of_UART_Write:	
  6065                           
  6066                           	psect	text14
  6067  0AB0                     __ptext14:	
  6068 ;; *************** function _UART_Init *****************
  6069 ;; Defined at:
  6070 ;;		line 14 in file "RXTX.c"
  6071 ;; Parameters:    Size  Location     Type
  6072 ;;  baudrate        4    6[BANK0 ] const long 
  6073 ;; Auto vars:     Size  Location     Type
  6074 ;;  x               2    9[COMMON] unsigned int 
  6075 ;; Return value:  Size  Location     Type
  6076 ;;                  1    wreg      unsigned char 
  6077 ;; Registers used:
  6078 ;;		wreg, status,2, status,0, pclath, cstack
  6079 ;; Tracked objects:
  6080 ;;		On entry : 0/0
  6081 ;;		On exit  : 0/0
  6082 ;;		Unchanged: 0/0
  6083 ;; Data sizes:     COMMON   BANK0   BANK1   BANK3   BANK2
  6084 ;;      Params:         0       4       0       0       0
  6085 ;;      Locals:         2       0       0       0       0
  6086 ;;      Temps:          0      12       0       0       0
  6087 ;;      Totals:         2      16       0       0       0
  6088 ;;Total ram usage:       18 bytes
  6089 ;; Hardware stack levels used:    1
  6090 ;; Hardware stack levels required when called:    1
  6091 ;; This function calls:
  6092 ;;		___aldiv
  6093 ;; This function is called by:
  6094 ;;		_main
  6095 ;; This function uses a non-reentrant model
  6096 ;;
  6097                           
  6098                           
  6099                           ;psect for function _UART_Init
  6100  0AB0                     _UART_Init:	
  6101  0AB0                     l2666:	
  6102                           ;incstack = 0
  6103                           ; Regs used in _UART_Init: [wreg+status,2+status,0+pclath+cstack]
  6104                           
  6105                           
  6106                           ;RXTX.c: 14: char UART_Init(const long int baudrate);RXTX.c: 15: {;RXTX.c: 16:   unsigne
      +                          d int x;;RXTX.c: 17:   x = (4000000 - baudrate*64)/(baudrate*64);
  6107  0AB0  1283               	bcf	3,5	;RP0=0, select bank0
  6108  0AB1  1303               	bcf	3,6	;RP1=0, select bank0
  6109  0AB2  0826               	movf	UART_Init@baudrate,w
  6110  0AB3  00AA               	movwf	??_UART_Init
  6111  0AB4  0827               	movf	UART_Init@baudrate+1,w
  6112  0AB5  00AB               	movwf	??_UART_Init+1
  6113  0AB6  0828               	movf	UART_Init@baudrate+2,w
  6114  0AB7  00AC               	movwf	??_UART_Init+2
  6115  0AB8  0829               	movf	UART_Init@baudrate+3,w
  6116  0AB9  00AD               	movwf	??_UART_Init+3
  6117  0ABA  3006               	movlw	6
  6118  0ABB                     u3155:	
  6119  0ABB  1003               	clrc
  6120  0ABC  0DAA               	rlf	??_UART_Init,f
  6121  0ABD  0DAB               	rlf	??_UART_Init+1,f
  6122  0ABE  0DAC               	rlf	??_UART_Init+2,f
  6123  0ABF  0DAD               	rlf	??_UART_Init+3,f
  6124  0AC0                     u3150:	
  6125  0AC0  3EFF               	addlw	-1
  6126  0AC1  1D03               	skipz
  6127  0AC2  2ABB               	goto	u3155
  6128  0AC3  082D               	movf	??_UART_Init+3,w
  6129  0AC4  00F3               	movwf	___aldiv@divisor+3
  6130  0AC5  082C               	movf	??_UART_Init+2,w
  6131  0AC6  00F2               	movwf	___aldiv@divisor+2
  6132  0AC7  082B               	movf	??_UART_Init+1,w
  6133  0AC8  00F1               	movwf	___aldiv@divisor+1
  6134  0AC9  082A               	movf	??_UART_Init,w
  6135  0ACA  00F0               	movwf	___aldiv@divisor
  6136  0ACB  0826               	movf	UART_Init@baudrate,w
  6137  0ACC  00AE               	movwf	??_UART_Init+4
  6138  0ACD  0827               	movf	UART_Init@baudrate+1,w
  6139  0ACE  00AF               	movwf	??_UART_Init+5
  6140  0ACF  0828               	movf	UART_Init@baudrate+2,w
  6141  0AD0  00B0               	movwf	??_UART_Init+6
  6142  0AD1  0829               	movf	UART_Init@baudrate+3,w
  6143  0AD2  00B1               	movwf	??_UART_Init+7
  6144  0AD3  3006               	movlw	6
  6145  0AD4                     u3165:	
  6146  0AD4  1003               	clrc
  6147  0AD5  0DAE               	rlf	??_UART_Init+4,f
  6148  0AD6  0DAF               	rlf	??_UART_Init+5,f
  6149  0AD7  0DB0               	rlf	??_UART_Init+6,f
  6150  0AD8  0DB1               	rlf	??_UART_Init+7,f
  6151  0AD9                     u3160:	
  6152  0AD9  3EFF               	addlw	-1
  6153  0ADA  1D03               	skipz
  6154  0ADB  2AD4               	goto	u3165
  6155  0ADC  3000               	movlw	0
  6156  0ADD  00B2               	movwf	??_UART_Init+8
  6157  0ADE  3009               	movlw	9
  6158  0ADF  00B3               	movwf	??_UART_Init+9
  6159  0AE0  303D               	movlw	61
  6160  0AE1  00B4               	movwf	??_UART_Init+10
  6161  0AE2  3000               	movlw	0
  6162  0AE3  00B5               	movwf	??_UART_Init+11
  6163  0AE4  082E               	movf	??_UART_Init+4,w
  6164  0AE5  02B2               	subwf	??_UART_Init+8,f
  6165  0AE6  082F               	movf	??_UART_Init+5,w
  6166  0AE7  1C03               	skipc
  6167  0AE8  0F2F               	incfsz	??_UART_Init+5,w
  6168  0AE9  2AEB               	goto	u3171
  6169  0AEA  2AEC               	goto	u3172
  6170  0AEB                     u3171:	
  6171  0AEB  02B3               	subwf	??_UART_Init+9,f
  6172  0AEC                     u3172:	
  6173  0AEC  0830               	movf	??_UART_Init+6,w
  6174  0AED  1C03               	skipc
  6175  0AEE  0F30               	incfsz	??_UART_Init+6,w
  6176  0AEF  2AF1               	goto	u3173
  6177  0AF0  2AF2               	goto	u3174
  6178  0AF1                     u3173:	
  6179  0AF1  02B4               	subwf	??_UART_Init+10,f
  6180  0AF2                     u3174:	
  6181  0AF2  0831               	movf	??_UART_Init+7,w
  6182  0AF3  1C03               	skipc
  6183  0AF4  0F31               	incfsz	??_UART_Init+7,w
  6184  0AF5  2AF7               	goto	u3175
  6185  0AF6  2AF8               	goto	u3176
  6186  0AF7                     u3175:	
  6187  0AF7  02B5               	subwf	??_UART_Init+11,f
  6188  0AF8                     u3176:	
  6189  0AF8  0835               	movf	??_UART_Init+11,w
  6190  0AF9  00F7               	movwf	___aldiv@dividend+3
  6191  0AFA  0834               	movf	??_UART_Init+10,w
  6192  0AFB  00F6               	movwf	___aldiv@dividend+2
  6193  0AFC  0833               	movf	??_UART_Init+9,w
  6194  0AFD  00F5               	movwf	___aldiv@dividend+1
  6195  0AFE  0832               	movf	??_UART_Init+8,w
  6196  0AFF  00F4               	movwf	___aldiv@dividend
  6197  0B00  120A  158A  2019  120A  158A  	fcall	___aldiv
  6198  0B05  0871               	movf	?___aldiv+1,w
  6199  0B06  00FA               	movwf	UART_Init@x+1
  6200  0B07  0870               	movf	?___aldiv,w
  6201  0B08  00F9               	movwf	UART_Init@x
  6202  0B09                     l2668:	
  6203                           
  6204                           ;RXTX.c: 18:   if(x>255)
  6205  0B09  3001               	movlw	1
  6206  0B0A  027A               	subwf	UART_Init@x+1,w
  6207  0B0B  3000               	movlw	0
  6208  0B0C  1903               	skipnz
  6209  0B0D  0279               	subwf	UART_Init@x,w
  6210  0B0E  1C03               	skipc
  6211  0B0F  2B11               	goto	u3181
  6212  0B10  2B12               	goto	u3180
  6213  0B11                     u3181:	
  6214  0B11  2B6E               	goto	l2674
  6215  0B12                     u3180:	
  6216  0B12                     l2670:	
  6217                           
  6218                           ;RXTX.c: 19:   {;RXTX.c: 20:     x = (4000000 - baudrate*16)/(baudrate*16);
  6219  0B12  1283               	bcf	3,5	;RP0=0, select bank0
  6220  0B13  1303               	bcf	3,6	;RP1=0, select bank0
  6221  0B14  0826               	movf	UART_Init@baudrate,w
  6222  0B15  00AA               	movwf	??_UART_Init
  6223  0B16  0827               	movf	UART_Init@baudrate+1,w
  6224  0B17  00AB               	movwf	??_UART_Init+1
  6225  0B18  0828               	movf	UART_Init@baudrate+2,w
  6226  0B19  00AC               	movwf	??_UART_Init+2
  6227  0B1A  0829               	movf	UART_Init@baudrate+3,w
  6228  0B1B  00AD               	movwf	??_UART_Init+3
  6229  0B1C  3004               	movlw	4
  6230  0B1D                     u3195:	
  6231  0B1D  1003               	clrc
  6232  0B1E  0DAA               	rlf	??_UART_Init,f
  6233  0B1F  0DAB               	rlf	??_UART_Init+1,f
  6234  0B20  0DAC               	rlf	??_UART_Init+2,f
  6235  0B21  0DAD               	rlf	??_UART_Init+3,f
  6236  0B22                     u3190:	
  6237  0B22  3EFF               	addlw	-1
  6238  0B23  1D03               	skipz
  6239  0B24  2B1D               	goto	u3195
  6240  0B25  082D               	movf	??_UART_Init+3,w
  6241  0B26  00F3               	movwf	___aldiv@divisor+3
  6242  0B27  082C               	movf	??_UART_Init+2,w
  6243  0B28  00F2               	movwf	___aldiv@divisor+2
  6244  0B29  082B               	movf	??_UART_Init+1,w
  6245  0B2A  00F1               	movwf	___aldiv@divisor+1
  6246  0B2B  082A               	movf	??_UART_Init,w
  6247  0B2C  00F0               	movwf	___aldiv@divisor
  6248  0B2D  0826               	movf	UART_Init@baudrate,w
  6249  0B2E  00AE               	movwf	??_UART_Init+4
  6250  0B2F  0827               	movf	UART_Init@baudrate+1,w
  6251  0B30  00AF               	movwf	??_UART_Init+5
  6252  0B31  0828               	movf	UART_Init@baudrate+2,w
  6253  0B32  00B0               	movwf	??_UART_Init+6
  6254  0B33  0829               	movf	UART_Init@baudrate+3,w
  6255  0B34  00B1               	movwf	??_UART_Init+7
  6256  0B35  3004               	movlw	4
  6257  0B36                     u3205:	
  6258  0B36  1003               	clrc
  6259  0B37  0DAE               	rlf	??_UART_Init+4,f
  6260  0B38  0DAF               	rlf	??_UART_Init+5,f
  6261  0B39  0DB0               	rlf	??_UART_Init+6,f
  6262  0B3A  0DB1               	rlf	??_UART_Init+7,f
  6263  0B3B                     u3200:	
  6264  0B3B  3EFF               	addlw	-1
  6265  0B3C  1D03               	skipz
  6266  0B3D  2B36               	goto	u3205
  6267  0B3E  3000               	movlw	0
  6268  0B3F  00B2               	movwf	??_UART_Init+8
  6269  0B40  3009               	movlw	9
  6270  0B41  00B3               	movwf	??_UART_Init+9
  6271  0B42  303D               	movlw	61
  6272  0B43  00B4               	movwf	??_UART_Init+10
  6273  0B44  3000               	movlw	0
  6274  0B45  00B5               	movwf	??_UART_Init+11
  6275  0B46  082E               	movf	??_UART_Init+4,w
  6276  0B47  02B2               	subwf	??_UART_Init+8,f
  6277  0B48  082F               	movf	??_UART_Init+5,w
  6278  0B49  1C03               	skipc
  6279  0B4A  0F2F               	incfsz	??_UART_Init+5,w
  6280  0B4B  2B4D               	goto	u3211
  6281  0B4C  2B4E               	goto	u3212
  6282  0B4D                     u3211:	
  6283  0B4D  02B3               	subwf	??_UART_Init+9,f
  6284  0B4E                     u3212:	
  6285  0B4E  0830               	movf	??_UART_Init+6,w
  6286  0B4F  1C03               	skipc
  6287  0B50  0F30               	incfsz	??_UART_Init+6,w
  6288  0B51  2B53               	goto	u3213
  6289  0B52  2B54               	goto	u3214
  6290  0B53                     u3213:	
  6291  0B53  02B4               	subwf	??_UART_Init+10,f
  6292  0B54                     u3214:	
  6293  0B54  0831               	movf	??_UART_Init+7,w
  6294  0B55  1C03               	skipc
  6295  0B56  0F31               	incfsz	??_UART_Init+7,w
  6296  0B57  2B59               	goto	u3215
  6297  0B58  2B5A               	goto	u3216
  6298  0B59                     u3215:	
  6299  0B59  02B5               	subwf	??_UART_Init+11,f
  6300  0B5A                     u3216:	
  6301  0B5A  0835               	movf	??_UART_Init+11,w
  6302  0B5B  00F7               	movwf	___aldiv@dividend+3
  6303  0B5C  0834               	movf	??_UART_Init+10,w
  6304  0B5D  00F6               	movwf	___aldiv@dividend+2
  6305  0B5E  0833               	movf	??_UART_Init+9,w
  6306  0B5F  00F5               	movwf	___aldiv@dividend+1
  6307  0B60  0832               	movf	??_UART_Init+8,w
  6308  0B61  00F4               	movwf	___aldiv@dividend
  6309  0B62  120A  158A  2019  120A  158A  	fcall	___aldiv
  6310  0B67  0871               	movf	?___aldiv+1,w
  6311  0B68  00FA               	movwf	UART_Init@x+1
  6312  0B69  0870               	movf	?___aldiv,w
  6313  0B6A  00F9               	movwf	UART_Init@x
  6314  0B6B                     l2672:	
  6315                           
  6316                           ;RXTX.c: 21:     BRGH = 1;
  6317  0B6B  1683               	bsf	3,5	;RP0=1, select bank1
  6318  0B6C  1303               	bcf	3,6	;RP1=0, select bank1
  6319  0B6D  1518               	bsf	24,2	;volatile
  6320  0B6E                     l2674:	
  6321                           
  6322                           ;RXTX.c: 23:   if(x<256)
  6323  0B6E  3001               	movlw	1
  6324  0B6F  027A               	subwf	UART_Init@x+1,w
  6325  0B70  3000               	movlw	0
  6326  0B71  1903               	skipnz
  6327  0B72  0279               	subwf	UART_Init@x,w
  6328  0B73  1803               	skipnc
  6329  0B74  2B76               	goto	u3221
  6330  0B75  2B77               	goto	u3220
  6331  0B76                     u3221:	
  6332  0B76  2B89               	goto	l260
  6333  0B77                     u3220:	
  6334  0B77                     l2676:	
  6335                           
  6336                           ;RXTX.c: 24:   {;RXTX.c: 25:     SPBRG = x;
  6337  0B77  0879               	movf	UART_Init@x,w
  6338  0B78  1683               	bsf	3,5	;RP0=1, select bank1
  6339  0B79  1303               	bcf	3,6	;RP1=0, select bank1
  6340  0B7A  0099               	movwf	25	;volatile
  6341  0B7B                     l2678:	
  6342                           
  6343                           ;RXTX.c: 26:     SYNC = 0;
  6344  0B7B  1218               	bcf	24,4	;volatile
  6345  0B7C                     l2680:	
  6346                           
  6347                           ;RXTX.c: 27:     SPEN = 1;
  6348  0B7C  1283               	bcf	3,5	;RP0=0, select bank0
  6349  0B7D  1303               	bcf	3,6	;RP1=0, select bank0
  6350  0B7E  1798               	bsf	24,7	;volatile
  6351  0B7F                     l2682:	
  6352                           
  6353                           ;RXTX.c: 28:     TRISC7 = 1;
  6354  0B7F  1683               	bsf	3,5	;RP0=1, select bank1
  6355  0B80  1303               	bcf	3,6	;RP1=0, select bank1
  6356  0B81  1787               	bsf	7,7	;volatile
  6357  0B82                     l2684:	
  6358                           
  6359                           ;RXTX.c: 29:     TRISC6 = 1;
  6360  0B82  1707               	bsf	7,6	;volatile
  6361  0B83                     l2686:	
  6362                           
  6363                           ;RXTX.c: 30:     CREN = 1;
  6364  0B83  1283               	bcf	3,5	;RP0=0, select bank0
  6365  0B84  1303               	bcf	3,6	;RP1=0, select bank0
  6366  0B85  1618               	bsf	24,4	;volatile
  6367  0B86                     l2688:	
  6368                           
  6369                           ;RXTX.c: 31:     TXEN = 1;
  6370  0B86  1683               	bsf	3,5	;RP0=1, select bank1
  6371  0B87  1303               	bcf	3,6	;RP1=0, select bank1
  6372  0B88  1698               	bsf	24,5	;volatile
  6373  0B89                     l260:	
  6374  0B89  0008               	return
  6375  0B8A                     __end_of_UART_Init:	
  6376                           
  6377                           	psect	text15
  6378  0819                     __ptext15:	
  6379 ;; *************** function ___aldiv *****************
  6380 ;; Defined at:
  6381 ;;		line 5 in file "C:\Program Files (x86)\Microchip\xc8\v2.10\pic\sources\c90\common\aldiv.c"
  6382 ;; Parameters:    Size  Location     Type
  6383 ;;  divisor         4    0[COMMON] long 
  6384 ;;  dividend        4    4[COMMON] long 
  6385 ;; Auto vars:     Size  Location     Type
  6386 ;;  quotient        4    2[BANK0 ] long 
  6387 ;;  sign            1    1[BANK0 ] unsigned char 
  6388 ;;  counter         1    0[BANK0 ] unsigned char 
  6389 ;; Return value:  Size  Location     Type
  6390 ;;                  4    0[COMMON] long 
  6391 ;; Registers used:
  6392 ;;		wreg, status,2, status,0
  6393 ;; Tracked objects:
  6394 ;;		On entry : 0/0
  6395 ;;		On exit  : 0/0
  6396 ;;		Unchanged: 0/0
  6397 ;; Data sizes:     COMMON   BANK0   BANK1   BANK3   BANK2
  6398 ;;      Params:         8       0       0       0       0
  6399 ;;      Locals:         0       6       0       0       0
  6400 ;;      Temps:          1       0       0       0       0
  6401 ;;      Totals:         9       6       0       0       0
  6402 ;;Total ram usage:       15 bytes
  6403 ;; Hardware stack levels used:    1
  6404 ;; This function calls:
  6405 ;;		Nothing
  6406 ;; This function is called by:
  6407 ;;		_UART_Init
  6408 ;; This function uses a non-reentrant model
  6409 ;;
  6410                           
  6411                           
  6412                           ;psect for function ___aldiv
  6413  0819                     ___aldiv:	
  6414  0819                     l2284:	
  6415                           ;incstack = 0
  6416                           ; Regs used in ___aldiv: [wreg+status,2+status,0]
  6417                           
  6418  0819  1283               	bcf	3,5	;RP0=0, select bank0
  6419  081A  1303               	bcf	3,6	;RP1=0, select bank0
  6420  081B  01A1               	clrf	___aldiv@sign
  6421  081C                     l2286:	
  6422  081C  1FF3               	btfss	___aldiv@divisor+3,7
  6423  081D  281F               	goto	u2391
  6424  081E  2820               	goto	u2390
  6425  081F                     u2391:	
  6426  081F  282D               	goto	l435
  6427  0820                     u2390:	
  6428  0820                     l2288:	
  6429  0820  09F0               	comf	___aldiv@divisor,f
  6430  0821  09F1               	comf	___aldiv@divisor+1,f
  6431  0822  09F2               	comf	___aldiv@divisor+2,f
  6432  0823  09F3               	comf	___aldiv@divisor+3,f
  6433  0824  0AF0               	incf	___aldiv@divisor,f
  6434  0825  1903               	skipnz
  6435  0826  0AF1               	incf	___aldiv@divisor+1,f
  6436  0827  1903               	skipnz
  6437  0828  0AF2               	incf	___aldiv@divisor+2,f
  6438  0829  1903               	skipnz
  6439  082A  0AF3               	incf	___aldiv@divisor+3,f
  6440  082B  01A1               	clrf	___aldiv@sign
  6441  082C  0AA1               	incf	___aldiv@sign,f
  6442  082D                     l435:	
  6443  082D  1FF7               	btfss	___aldiv@dividend+3,7
  6444  082E  2830               	goto	u2401
  6445  082F  2831               	goto	u2400
  6446  0830                     u2401:	
  6447  0830  2840               	goto	l2294
  6448  0831                     u2400:	
  6449  0831                     l2290:	
  6450  0831  09F4               	comf	___aldiv@dividend,f
  6451  0832  09F5               	comf	___aldiv@dividend+1,f
  6452  0833  09F6               	comf	___aldiv@dividend+2,f
  6453  0834  09F7               	comf	___aldiv@dividend+3,f
  6454  0835  0AF4               	incf	___aldiv@dividend,f
  6455  0836  1903               	skipnz
  6456  0837  0AF5               	incf	___aldiv@dividend+1,f
  6457  0838  1903               	skipnz
  6458  0839  0AF6               	incf	___aldiv@dividend+2,f
  6459  083A  1903               	skipnz
  6460  083B  0AF7               	incf	___aldiv@dividend+3,f
  6461  083C                     l2292:	
  6462  083C  3001               	movlw	1
  6463  083D  00F8               	movwf	??___aldiv
  6464  083E  0878               	movf	??___aldiv,w
  6465  083F  06A1               	xorwf	___aldiv@sign,f
  6466  0840                     l2294:	
  6467  0840  3000               	movlw	0
  6468  0841  00A5               	movwf	___aldiv@quotient+3
  6469  0842  3000               	movlw	0
  6470  0843  00A4               	movwf	___aldiv@quotient+2
  6471  0844  3000               	movlw	0
  6472  0845  00A3               	movwf	___aldiv@quotient+1
  6473  0846  3000               	movlw	0
  6474  0847  00A2               	movwf	___aldiv@quotient
  6475  0848                     l2296:	
  6476  0848  0873               	movf	___aldiv@divisor+3,w
  6477  0849  0472               	iorwf	___aldiv@divisor+2,w
  6478  084A  0471               	iorwf	___aldiv@divisor+1,w
  6479  084B  0470               	iorwf	___aldiv@divisor,w
  6480  084C  1903               	skipnz
  6481  084D  284F               	goto	u2411
  6482  084E  2850               	goto	u2410
  6483  084F                     u2411:	
  6484  084F  289D               	goto	l2316
  6485  0850                     u2410:	
  6486  0850                     l2298:	
  6487  0850  01A0               	clrf	___aldiv@counter
  6488  0851  0AA0               	incf	___aldiv@counter,f
  6489  0852  2860               	goto	l2302
  6490  0853                     l2300:	
  6491  0853  3001               	movlw	1
  6492  0854  00F8               	movwf	??___aldiv
  6493  0855                     u2425:	
  6494  0855  1003               	clrc
  6495  0856  0DF0               	rlf	___aldiv@divisor,f
  6496  0857  0DF1               	rlf	___aldiv@divisor+1,f
  6497  0858  0DF2               	rlf	___aldiv@divisor+2,f
  6498  0859  0DF3               	rlf	___aldiv@divisor+3,f
  6499  085A  0BF8               	decfsz	??___aldiv,f
  6500  085B  2855               	goto	u2425
  6501  085C  3001               	movlw	1
  6502  085D  00F8               	movwf	??___aldiv
  6503  085E  0878               	movf	??___aldiv,w
  6504  085F  07A0               	addwf	___aldiv@counter,f
  6505  0860                     l2302:	
  6506  0860  1FF3               	btfss	___aldiv@divisor+3,7
  6507  0861  2863               	goto	u2431
  6508  0862  2864               	goto	u2430
  6509  0863                     u2431:	
  6510  0863  2853               	goto	l2300
  6511  0864                     u2430:	
  6512  0864                     l2304:	
  6513  0864  3001               	movlw	1
  6514  0865  00F8               	movwf	??___aldiv
  6515  0866                     u2445:	
  6516  0866  1003               	clrc
  6517  0867  0DA2               	rlf	___aldiv@quotient,f
  6518  0868  0DA3               	rlf	___aldiv@quotient+1,f
  6519  0869  0DA4               	rlf	___aldiv@quotient+2,f
  6520  086A  0DA5               	rlf	___aldiv@quotient+3,f
  6521  086B  0BF8               	decfsz	??___aldiv,f
  6522  086C  2866               	goto	u2445
  6523  086D                     l2306:	
  6524  086D  0873               	movf	___aldiv@divisor+3,w
  6525  086E  0277               	subwf	___aldiv@dividend+3,w
  6526  086F  1D03               	skipz
  6527  0870  287B               	goto	u2455
  6528  0871  0872               	movf	___aldiv@divisor+2,w
  6529  0872  0276               	subwf	___aldiv@dividend+2,w
  6530  0873  1D03               	skipz
  6531  0874  287B               	goto	u2455
  6532  0875  0871               	movf	___aldiv@divisor+1,w
  6533  0876  0275               	subwf	___aldiv@dividend+1,w
  6534  0877  1D03               	skipz
  6535  0878  287B               	goto	u2455
  6536  0879  0870               	movf	___aldiv@divisor,w
  6537  087A  0274               	subwf	___aldiv@dividend,w
  6538  087B                     u2455:	
  6539  087B  1C03               	skipc
  6540  087C  287E               	goto	u2451
  6541  087D  287F               	goto	u2450
  6542  087E                     u2451:	
  6543  087E  288E               	goto	l2312
  6544  087F                     u2450:	
  6545  087F                     l2308:	
  6546  087F  0870               	movf	___aldiv@divisor,w
  6547  0880  02F4               	subwf	___aldiv@dividend,f
  6548  0881  0871               	movf	___aldiv@divisor+1,w
  6549  0882  1C03               	skipc
  6550  0883  0F71               	incfsz	___aldiv@divisor+1,w
  6551  0884  02F5               	subwf	___aldiv@dividend+1,f
  6552  0885  0872               	movf	___aldiv@divisor+2,w
  6553  0886  1C03               	skipc
  6554  0887  0F72               	incfsz	___aldiv@divisor+2,w
  6555  0888  02F6               	subwf	___aldiv@dividend+2,f
  6556  0889  0873               	movf	___aldiv@divisor+3,w
  6557  088A  1C03               	skipc
  6558  088B  0F73               	incfsz	___aldiv@divisor+3,w
  6559  088C  02F7               	subwf	___aldiv@dividend+3,f
  6560  088D                     l2310:	
  6561  088D  1422               	bsf	___aldiv@quotient,0
  6562  088E                     l2312:	
  6563  088E  3001               	movlw	1
  6564  088F                     u2465:	
  6565  088F  1003               	clrc
  6566  0890  0CF3               	rrf	___aldiv@divisor+3,f
  6567  0891  0CF2               	rrf	___aldiv@divisor+2,f
  6568  0892  0CF1               	rrf	___aldiv@divisor+1,f
  6569  0893  0CF0               	rrf	___aldiv@divisor,f
  6570  0894  3EFF               	addlw	-1
  6571  0895  1D03               	skipz
  6572  0896  288F               	goto	u2465
  6573  0897                     l2314:	
  6574  0897  3001               	movlw	1
  6575  0898  02A0               	subwf	___aldiv@counter,f
  6576  0899  1D03               	btfss	3,2
  6577  089A  289C               	goto	u2471
  6578  089B  289D               	goto	u2470
  6579  089C                     u2471:	
  6580  089C  2864               	goto	l2304
  6581  089D                     u2470:	
  6582  089D                     l2316:	
  6583  089D  0821               	movf	___aldiv@sign,w
  6584  089E  1903               	btfsc	3,2
  6585  089F  28A1               	goto	u2481
  6586  08A0  28A2               	goto	u2480
  6587  08A1                     u2481:	
  6588  08A1  28AD               	goto	l2320
  6589  08A2                     u2480:	
  6590  08A2                     l2318:	
  6591  08A2  09A2               	comf	___aldiv@quotient,f
  6592  08A3  09A3               	comf	___aldiv@quotient+1,f
  6593  08A4  09A4               	comf	___aldiv@quotient+2,f
  6594  08A5  09A5               	comf	___aldiv@quotient+3,f
  6595  08A6  0AA2               	incf	___aldiv@quotient,f
  6596  08A7  1903               	skipnz
  6597  08A8  0AA3               	incf	___aldiv@quotient+1,f
  6598  08A9  1903               	skipnz
  6599  08AA  0AA4               	incf	___aldiv@quotient+2,f
  6600  08AB  1903               	skipnz
  6601  08AC  0AA5               	incf	___aldiv@quotient+3,f
  6602  08AD                     l2320:	
  6603  08AD  0825               	movf	___aldiv@quotient+3,w
  6604  08AE  00F3               	movwf	?___aldiv+3
  6605  08AF  0824               	movf	___aldiv@quotient+2,w
  6606  08B0  00F2               	movwf	?___aldiv+2
  6607  08B1  0823               	movf	___aldiv@quotient+1,w
  6608  08B2  00F1               	movwf	?___aldiv+1
  6609  08B3  0822               	movf	___aldiv@quotient,w
  6610  08B4  00F0               	movwf	?___aldiv
  6611  08B5                     l445:	
  6612  08B5  0008               	return
  6613  08B6                     __end_of___aldiv:	
  6614                           
  6615                           	psect	text16
  6616  169E                     __ptext16:	
  6617 ;; *************** function _Lcd_Write_String *****************
  6618 ;; Defined at:
  6619 ;;		line 125 in file "LCD.c"
  6620 ;; Parameters:    Size  Location     Type
  6621 ;;  a               2    3[COMMON] PTR unsigned char 
  6622 ;;		 -> STR_3(4), STR_2(4), STR_1(4), main@s2(5), 
  6623 ;;		 -> main@s1(5), 
  6624 ;; Auto vars:     Size  Location     Type
  6625 ;;  i               2    8[COMMON] int 
  6626 ;; Return value:  Size  Location     Type
  6627 ;;                  1    wreg      void 
  6628 ;; Registers used:
  6629 ;;		wreg, fsr0l, fsr0h, status,2, status,0, btemp+1, pclath, cstack
  6630 ;; Tracked objects:
  6631 ;;		On entry : 0/0
  6632 ;;		On exit  : 0/0
  6633 ;;		Unchanged: 0/0
  6634 ;; Data sizes:     COMMON   BANK0   BANK1   BANK3   BANK2
  6635 ;;      Params:         2       0       0       0       0
  6636 ;;      Locals:         2       0       0       0       0
  6637 ;;      Temps:          3       0       0       0       0
  6638 ;;      Totals:         7       0       0       0       0
  6639 ;;Total ram usage:        7 bytes
  6640 ;; Hardware stack levels used:    1
  6641 ;; Hardware stack levels required when called:    2
  6642 ;; This function calls:
  6643 ;;		_Lcd_Write_Char
  6644 ;; This function is called by:
  6645 ;;		_main
  6646 ;; This function uses a non-reentrant model
  6647 ;;
  6648                           
  6649                           
  6650                           ;psect for function _Lcd_Write_String
  6651  169E                     _Lcd_Write_String:	
  6652  169E                     l2578:	
  6653                           ;incstack = 0
  6654                           ; Regs used in _Lcd_Write_String: [wreg-fsr0h+status,2+status,0+btemp+1+pclath+cstack]
  6655                           
  6656                           
  6657                           ;LCD.c: 125: void Lcd_Write_String(char *a);LCD.c: 126: {;LCD.c: 127:  int i;;LCD.c: 128
      +                          :  for(i=0;a[i]!='\0';i++)
  6658  169E  01F8               	clrf	Lcd_Write_String@i
  6659  169F  01F9               	clrf	Lcd_Write_String@i+1
  6660  16A0  2EC3               	goto	l2584
  6661  16A1                     l2580:	
  6662                           
  6663                           ;LCD.c: 129:     Lcd_Write_Char(a[i]);
  6664  16A1  0878               	movf	Lcd_Write_String@i,w
  6665  16A2  0773               	addwf	Lcd_Write_String@a,w
  6666  16A3  00F6               	movwf	??_Lcd_Write_String+1
  6667  16A4  0874               	movf	Lcd_Write_String@a+1,w
  6668  16A5  00F5               	movwf	??_Lcd_Write_String
  6669  16A6  1803               	skipnc
  6670  16A7  0AF5               	incf	??_Lcd_Write_String,f
  6671  16A8  1FF8               	btfss	Lcd_Write_String@i,7
  6672  16A9  2EAB               	goto	u3120
  6673  16AA  03F5               	decf	??_Lcd_Write_String,f
  6674  16AB                     u3120:	
  6675  16AB  0875               	movf	??_Lcd_Write_String,w
  6676  16AC  00F7               	movwf	??_Lcd_Write_String+2
  6677  16AD  0877               	movf	??_Lcd_Write_String+2,w
  6678  16AE  1283               	bcf	3,5	;RP0=0, select bank0
  6679  16AF  1303               	bcf	3,6	;RP1=0, select bank0
  6680  16B0  00FF               	movwf	btemp+1
  6681  16B1  0876               	movf	??_Lcd_Write_String+1,w
  6682  16B2  0084               	movwf	4
  6683  16B3  160A  118A  2000  160A  118A  	fcall	stringtab
  6684  16B8  160A  118A  25AF  160A  118A  	fcall	_Lcd_Write_Char
  6685  16BD                     l2582:	
  6686  16BD  3001               	movlw	1
  6687  16BE  07F8               	addwf	Lcd_Write_String@i,f
  6688  16BF  1803               	skipnc
  6689  16C0  0AF9               	incf	Lcd_Write_String@i+1,f
  6690  16C1  3000               	movlw	0
  6691  16C2  07F9               	addwf	Lcd_Write_String@i+1,f
  6692  16C3                     l2584:	
  6693  16C3  0878               	movf	Lcd_Write_String@i,w
  6694  16C4  0773               	addwf	Lcd_Write_String@a,w
  6695  16C5  00F6               	movwf	??_Lcd_Write_String+1
  6696  16C6  0874               	movf	Lcd_Write_String@a+1,w
  6697  16C7  00F5               	movwf	??_Lcd_Write_String
  6698  16C8  1803               	skipnc
  6699  16C9  0AF5               	incf	??_Lcd_Write_String,f
  6700  16CA  1FF8               	btfss	Lcd_Write_String@i,7
  6701  16CB  2ECD               	goto	u3130
  6702  16CC  03F5               	decf	??_Lcd_Write_String,f
  6703  16CD                     u3130:	
  6704  16CD  0875               	movf	??_Lcd_Write_String,w
  6705  16CE  00F7               	movwf	??_Lcd_Write_String+2
  6706  16CF  0877               	movf	??_Lcd_Write_String+2,w
  6707  16D0  1283               	bcf	3,5	;RP0=0, select bank0
  6708  16D1  1303               	bcf	3,6	;RP1=0, select bank0
  6709  16D2  00FF               	movwf	btemp+1
  6710  16D3  0876               	movf	??_Lcd_Write_String+1,w
  6711  16D4  0084               	movwf	4
  6712  16D5  160A  118A  2000  160A  118A  	fcall	stringtab
  6713  16DA  3A00               	xorlw	0
  6714  16DB  1D03               	skipz
  6715  16DC  2EDE               	goto	u3141
  6716  16DD  2EDF               	goto	u3140
  6717  16DE                     u3141:	
  6718  16DE  2EA1               	goto	l2580
  6719  16DF                     u3140:	
  6720  16DF                     l65:	
  6721  16DF  0008               	return
  6722  16E0                     __end_of_Lcd_Write_String:	
  6723                           
  6724                           	psect	text17
  6725  15AF                     __ptext17:	
  6726 ;; *************** function _Lcd_Write_Char *****************
  6727 ;; Defined at:
  6728 ;;		line 115 in file "LCD.c"
  6729 ;; Parameters:    Size  Location     Type
  6730 ;;  a               1    wreg     unsigned char 
  6731 ;; Auto vars:     Size  Location     Type
  6732 ;;  a               1    2[COMMON] unsigned char 
  6733 ;; Return value:  Size  Location     Type
  6734 ;;                  1    wreg      void 
  6735 ;; Registers used:
  6736 ;;		wreg, status,2, status,0, pclath, cstack
  6737 ;; Tracked objects:
  6738 ;;		On entry : 0/0
  6739 ;;		On exit  : 0/0
  6740 ;;		Unchanged: 0/0
  6741 ;; Data sizes:     COMMON   BANK0   BANK1   BANK3   BANK2
  6742 ;;      Params:         0       0       0       0       0
  6743 ;;      Locals:         1       0       0       0       0
  6744 ;;      Temps:          1       0       0       0       0
  6745 ;;      Totals:         2       0       0       0       0
  6746 ;;Total ram usage:        2 bytes
  6747 ;; Hardware stack levels used:    1
  6748 ;; Hardware stack levels required when called:    1
  6749 ;; This function calls:
  6750 ;;		_Lcd_Port
  6751 ;; This function is called by:
  6752 ;;		_Lcd_Write_String
  6753 ;; This function uses a non-reentrant model
  6754 ;;
  6755                           
  6756                           
  6757                           ;psect for function _Lcd_Write_Char
  6758  15AF                     _Lcd_Write_Char:	
  6759                           
  6760                           ;incstack = 0
  6761                           ; Regs used in _Lcd_Write_Char: [wreg+status,2+status,0+pclath+cstack]
  6762                           ;Lcd_Write_Char@a stored from wreg
  6763  15AF  00F2               	movwf	Lcd_Write_Char@a
  6764  15B0                     l2226:	
  6765                           
  6766                           ;LCD.c: 115: void Lcd_Write_Char(char a);LCD.c: 116: {;LCD.c: 118:    RC1 = 1;
  6767  15B0  1283               	bcf	3,5	;RP0=0, select bank0
  6768  15B1  1303               	bcf	3,6	;RP1=0, select bank0
  6769  15B2  1487               	bsf	7,1	;volatile
  6770  15B3                     l2228:	
  6771                           
  6772                           ;LCD.c: 119:    Lcd_Port(a);
  6773  15B3  0872               	movf	Lcd_Write_Char@a,w
  6774  15B4  160A  118A  2660  160A  118A  	fcall	_Lcd_Port
  6775  15B9                     l2230:	
  6776                           
  6777                           ;LCD.c: 120:    RC0 = 1;
  6778  15B9  1283               	bcf	3,5	;RP0=0, select bank0
  6779  15BA  1303               	bcf	3,6	;RP1=0, select bank0
  6780  15BB  1407               	bsf	7,0	;volatile
  6781  15BC                     l2232:	
  6782                           
  6783                           ;LCD.c: 121:    _delay((unsigned long)((40)*(4000000/4000000.0)));
  6784  15BC  300D               	movlw	13
  6785  15BD  00F1               	movwf	??_Lcd_Write_Char
  6786  15BE                     u3627:	
  6787  15BE  0BF1               	decfsz	??_Lcd_Write_Char,f
  6788  15BF  2DBE               	goto	u3627
  6789  15C0                     l2234:	
  6790                           
  6791                           ;LCD.c: 122:    RC0 = 0;
  6792  15C0  1283               	bcf	3,5	;RP0=0, select bank0
  6793  15C1  1303               	bcf	3,6	;RP1=0, select bank0
  6794  15C2  1007               	bcf	7,0	;volatile
  6795  15C3                     l59:	
  6796  15C3  0008               	return
  6797  15C4                     __end_of_Lcd_Write_Char:	
  6798                           
  6799                           	psect	text18
  6800  15D9                     __ptext18:	
  6801 ;; *************** function _Lcd_Set_Cursor *****************
  6802 ;; Defined at:
  6803 ;;		line 85 in file "LCD.c"
  6804 ;; Parameters:    Size  Location     Type
  6805 ;;  a               1    wreg     unsigned char 
  6806 ;;  b               1    4[COMMON] unsigned char 
  6807 ;; Auto vars:     Size  Location     Type
  6808 ;;  a               1    5[COMMON] unsigned char 
  6809 ;; Return value:  Size  Location     Type
  6810 ;;                  1    wreg      void 
  6811 ;; Registers used:
  6812 ;;		wreg, status,2, status,0, pclath, cstack
  6813 ;; Tracked objects:
  6814 ;;		On entry : 0/0
  6815 ;;		On exit  : 0/0
  6816 ;;		Unchanged: 0/0
  6817 ;; Data sizes:     COMMON   BANK0   BANK1   BANK3   BANK2
  6818 ;;      Params:         1       0       0       0       0
  6819 ;;      Locals:         1       0       0       0       0
  6820 ;;      Temps:          0       0       0       0       0
  6821 ;;      Totals:         2       0       0       0       0
  6822 ;;Total ram usage:        2 bytes
  6823 ;; Hardware stack levels used:    1
  6824 ;; Hardware stack levels required when called:    2
  6825 ;; This function calls:
  6826 ;;		_Lcd_Cmd
  6827 ;; This function is called by:
  6828 ;;		_main
  6829 ;; This function uses a non-reentrant model
  6830 ;;
  6831                           
  6832                           
  6833                           ;psect for function _Lcd_Set_Cursor
  6834  15D9                     _Lcd_Set_Cursor:	
  6835                           
  6836                           ;incstack = 0
  6837                           ; Regs used in _Lcd_Set_Cursor: [wreg+status,2+status,0+pclath+cstack]
  6838                           ;Lcd_Set_Cursor@a stored from wreg
  6839  15D9  00F5               	movwf	Lcd_Set_Cursor@a
  6840  15DA                     l2550:	
  6841                           
  6842                           ;LCD.c: 85: void Lcd_Set_Cursor(char a, char b);LCD.c: 86: {;LCD.c: 87:  if(a == 1)
  6843  15DA  0375               	decf	Lcd_Set_Cursor@a,w
  6844  15DB  1D03               	btfss	3,2
  6845  15DC  2DDE               	goto	u3101
  6846  15DD  2DDF               	goto	u3100
  6847  15DE                     u3101:	
  6848  15DE  2DE7               	goto	l2554
  6849  15DF                     u3100:	
  6850  15DF                     l2552:	
  6851                           
  6852                           ;LCD.c: 88:  {;LCD.c: 89:   Lcd_Cmd(0x80 + b - 1);
  6853  15DF  0874               	movf	Lcd_Set_Cursor@b,w
  6854  15E0  3E7F               	addlw	127
  6855  15E1  160A  118A  25F5  160A  118A  	fcall	_Lcd_Cmd
  6856                           
  6857                           ;LCD.c: 90:  }
  6858  15E6  2DF4               	goto	l53
  6859  15E7                     l2554:	
  6860  15E7  3002               	movlw	2
  6861  15E8  0675               	xorwf	Lcd_Set_Cursor@a,w
  6862  15E9  1D03               	btfss	3,2
  6863  15EA  2DEC               	goto	u3111
  6864  15EB  2DED               	goto	u3110
  6865  15EC                     u3111:	
  6866  15EC  2DF4               	goto	l53
  6867  15ED                     u3110:	
  6868  15ED                     l2556:	
  6869                           
  6870                           ;LCD.c: 92:  {;LCD.c: 93:   Lcd_Cmd(0xC0 + b - 1);
  6871  15ED  0874               	movf	Lcd_Set_Cursor@b,w
  6872  15EE  3EBF               	addlw	191
  6873  15EF  160A  118A  25F5  160A  118A  	fcall	_Lcd_Cmd
  6874  15F4                     l53:	
  6875  15F4  0008               	return
  6876  15F5                     __end_of_Lcd_Set_Cursor:	
  6877                           
  6878                           	psect	text19
  6879  16E0                     __ptext19:	
  6880 ;; *************** function _Lcd_Init *****************
  6881 ;; Defined at:
  6882 ;;		line 97 in file "LCD.c"
  6883 ;; Parameters:    Size  Location     Type
  6884 ;;		None
  6885 ;; Auto vars:     Size  Location     Type
  6886 ;;		None
  6887 ;; Return value:  Size  Location     Type
  6888 ;;                  1    wreg      void 
  6889 ;; Registers used:
  6890 ;;		wreg, status,2, status,0, pclath, cstack
  6891 ;; Tracked objects:
  6892 ;;		On entry : 0/0
  6893 ;;		On exit  : 0/0
  6894 ;;		Unchanged: 0/0
  6895 ;; Data sizes:     COMMON   BANK0   BANK1   BANK3   BANK2
  6896 ;;      Params:         0       0       0       0       0
  6897 ;;      Locals:         0       0       0       0       0
  6898 ;;      Temps:          2       0       0       0       0
  6899 ;;      Totals:         2       0       0       0       0
  6900 ;;Total ram usage:        2 bytes
  6901 ;; Hardware stack levels used:    1
  6902 ;; Hardware stack levels required when called:    2
  6903 ;; This function calls:
  6904 ;;		_Lcd_Cmd
  6905 ;; This function is called by:
  6906 ;;		_main
  6907 ;; This function uses a non-reentrant model
  6908 ;;
  6909                           
  6910                           
  6911                           ;psect for function _Lcd_Init
  6912  16E0                     _Lcd_Init:	
  6913  16E0                     l2558:	
  6914                           ;incstack = 0
  6915                           ; Regs used in _Lcd_Init: [wreg+status,2+status,0+pclath+cstack]
  6916                           
  6917                           
  6918                           ;LCD.c: 100:    _delay((unsigned long)((15)*(4000000/4000.0)));
  6919  16E0  3014               	movlw	20
  6920  16E1  00F5               	movwf	??_Lcd_Init+1
  6921  16E2  3079               	movlw	121
  6922  16E3  00F4               	movwf	??_Lcd_Init
  6923  16E4                     u3637:	
  6924  16E4  0BF4               	decfsz	??_Lcd_Init,f
  6925  16E5  2EE4               	goto	u3637
  6926  16E6  0BF5               	decfsz	??_Lcd_Init+1,f
  6927  16E7  2EE4               	goto	u3637
  6928  16E8  2EE9               	nop2
  6929  16E9                     l2560:	
  6930                           
  6931                           ;LCD.c: 101:   Lcd_Cmd(0x030);
  6932  16E9  3030               	movlw	48
  6933  16EA  160A  118A  25F5  160A  118A  	fcall	_Lcd_Cmd
  6934  16EF                     l2562:	
  6935                           
  6936                           ;LCD.c: 102:   _delay((unsigned long)((5)*(4000000/4000.0)));
  6937  16EF  3007               	movlw	7
  6938  16F0  00F5               	movwf	??_Lcd_Init+1
  6939  16F1  307D               	movlw	125
  6940  16F2  00F4               	movwf	??_Lcd_Init
  6941  16F3                     u3647:	
  6942  16F3  0BF4               	decfsz	??_Lcd_Init,f
  6943  16F4  2EF3               	goto	u3647
  6944  16F5  0BF5               	decfsz	??_Lcd_Init+1,f
  6945  16F6  2EF3               	goto	u3647
  6946                           
  6947                           ;LCD.c: 103:   Lcd_Cmd(0x030);
  6948  16F7  3030               	movlw	48
  6949  16F8  160A  118A  25F5  160A  118A  	fcall	_Lcd_Cmd
  6950  16FD                     l2564:	
  6951                           
  6952                           ;LCD.c: 104:   _delay((unsigned long)((160)*(4000000/4000000.0)));
  6953  16FD  3035               	movlw	53
  6954  16FE  00F4               	movwf	??_Lcd_Init
  6955  16FF                     u3657:	
  6956  16FF  0BF4               	decfsz	??_Lcd_Init,f
  6957  1700  2EFF               	goto	u3657
  6958  1701                     l2566:	
  6959                           
  6960                           ;LCD.c: 105:   Lcd_Cmd(0x030);
  6961  1701  3030               	movlw	48
  6962  1702  160A  118A  25F5  160A  118A  	fcall	_Lcd_Cmd
  6963  1707                     l2568:	
  6964                           
  6965                           ;LCD.c: 107:   Lcd_Cmd(0x38);
  6966  1707  3038               	movlw	56
  6967  1708  160A  118A  25F5  160A  118A  	fcall	_Lcd_Cmd
  6968  170D                     l2570:	
  6969                           
  6970                           ;LCD.c: 108:   Lcd_Cmd(0x10);
  6971  170D  3010               	movlw	16
  6972  170E  160A  118A  25F5  160A  118A  	fcall	_Lcd_Cmd
  6973  1713                     l2572:	
  6974                           
  6975                           ;LCD.c: 109:   Lcd_Cmd(0x01);
  6976  1713  3001               	movlw	1
  6977  1714  160A  118A  25F5  160A  118A  	fcall	_Lcd_Cmd
  6978  1719                     l2574:	
  6979                           
  6980                           ;LCD.c: 110:   Lcd_Cmd(0x06);
  6981  1719  3006               	movlw	6
  6982  171A  160A  118A  25F5  160A  118A  	fcall	_Lcd_Cmd
  6983  171F                     l2576:	
  6984                           
  6985                           ;LCD.c: 111:   Lcd_Cmd(0x0F);
  6986  171F  300F               	movlw	15
  6987  1720  160A  118A  25F5  160A  118A  	fcall	_Lcd_Cmd
  6988  1725                     l56:	
  6989  1725  0008               	return
  6990  1726                     __end_of_Lcd_Init:	
  6991                           
  6992                           	psect	text20
  6993  15F5                     __ptext20:	
  6994 ;; *************** function _Lcd_Cmd *****************
  6995 ;; Defined at:
  6996 ;;		line 70 in file "LCD.c"
  6997 ;; Parameters:    Size  Location     Type
  6998 ;;  a               1    wreg     unsigned char 
  6999 ;; Auto vars:     Size  Location     Type
  7000 ;;  a               1    3[COMMON] unsigned char 
  7001 ;; Return value:  Size  Location     Type
  7002 ;;                  1    wreg      void 
  7003 ;; Registers used:
  7004 ;;		wreg, status,2, status,0, pclath, cstack
  7005 ;; Tracked objects:
  7006 ;;		On entry : 0/0
  7007 ;;		On exit  : 0/0
  7008 ;;		Unchanged: 0/0
  7009 ;; Data sizes:     COMMON   BANK0   BANK1   BANK3   BANK2
  7010 ;;      Params:         0       0       0       0       0
  7011 ;;      Locals:         1       0       0       0       0
  7012 ;;      Temps:          2       0       0       0       0
  7013 ;;      Totals:         3       0       0       0       0
  7014 ;;Total ram usage:        3 bytes
  7015 ;; Hardware stack levels used:    1
  7016 ;; Hardware stack levels required when called:    1
  7017 ;; This function calls:
  7018 ;;		_Lcd_Port
  7019 ;; This function is called by:
  7020 ;;		_Lcd_Set_Cursor
  7021 ;;		_Lcd_Init
  7022 ;;		_Lcd_Clear
  7023 ;;		_Lcd_Shift_Right
  7024 ;;		_Lcd_Shift_Left
  7025 ;; This function uses a non-reentrant model
  7026 ;;
  7027                           
  7028                           
  7029                           ;psect for function _Lcd_Cmd
  7030  15F5                     _Lcd_Cmd:	
  7031                           
  7032                           ;incstack = 0
  7033                           ; Regs used in _Lcd_Cmd: [wreg+status,2+status,0+pclath+cstack]
  7034                           ;Lcd_Cmd@a stored from wreg
  7035  15F5  00F3               	movwf	Lcd_Cmd@a
  7036  15F6                     l2214:	
  7037                           
  7038                           ;LCD.c: 70: void Lcd_Cmd(char a);LCD.c: 71: {;LCD.c: 72:  RC1 = 0;
  7039  15F6  1283               	bcf	3,5	;RP0=0, select bank0
  7040  15F7  1303               	bcf	3,6	;RP1=0, select bank0
  7041  15F8  1087               	bcf	7,1	;volatile
  7042  15F9                     l2216:	
  7043                           
  7044                           ;LCD.c: 73:  Lcd_Port(a);
  7045  15F9  0873               	movf	Lcd_Cmd@a,w
  7046  15FA  160A  118A  2660  160A  118A  	fcall	_Lcd_Port
  7047  15FF                     l2218:	
  7048                           
  7049                           ;LCD.c: 74:  RC0 = 1;
  7050  15FF  1283               	bcf	3,5	;RP0=0, select bank0
  7051  1600  1303               	bcf	3,6	;RP1=0, select bank0
  7052  1601  1407               	bsf	7,0	;volatile
  7053  1602                     l2220:	
  7054                           
  7055                           ;LCD.c: 75:     _delay((unsigned long)((5)*(4000000/4000.0)));
  7056  1602  3007               	movlw	7
  7057  1603  00F2               	movwf	??_Lcd_Cmd+1
  7058  1604  307D               	movlw	125
  7059  1605  00F1               	movwf	??_Lcd_Cmd
  7060  1606                     u3667:	
  7061  1606  0BF1               	decfsz	??_Lcd_Cmd,f
  7062  1607  2E06               	goto	u3667
  7063  1608  0BF2               	decfsz	??_Lcd_Cmd+1,f
  7064  1609  2E06               	goto	u3667
  7065  160A                     l2222:	
  7066                           
  7067                           ;LCD.c: 76:     RC0 = 0;
  7068  160A  1283               	bcf	3,5	;RP0=0, select bank0
  7069  160B  1303               	bcf	3,6	;RP1=0, select bank0
  7070  160C  1007               	bcf	7,0	;volatile
  7071  160D                     l2224:	
  7072                           
  7073                           ;LCD.c: 77:     _delay((unsigned long)((1)*(4000000/4000.0)));
  7074  160D  30C7               	movlw	199
  7075  160E  00F1               	movwf	??_Lcd_Cmd
  7076  160F                     u3677:	
  7077  160F  2E10               	nop2
  7078  1610  0BF1               	decfsz	??_Lcd_Cmd,f
  7079  1611  2E0F               	goto	u3677
  7080  1612  2E13               	nop2
  7081  1613  2E14               	nop2
  7082  1614                     l44:	
  7083  1614  0008               	return
  7084  1615                     __end_of_Lcd_Cmd:	
  7085                           
  7086                           	psect	text21
  7087  1660                     __ptext21:	
  7088 ;; *************** function _Lcd_Port *****************
  7089 ;; Defined at:
  7090 ;;		line 27 in file "LCD.c"
  7091 ;; Parameters:    Size  Location     Type
  7092 ;;  a               1    wreg     unsigned char 
  7093 ;; Auto vars:     Size  Location     Type
  7094 ;;  a               1    0[COMMON] unsigned char 
  7095 ;; Return value:  Size  Location     Type
  7096 ;;                  1    wreg      void 
  7097 ;; Registers used:
  7098 ;;		wreg
  7099 ;; Tracked objects:
  7100 ;;		On entry : 0/0
  7101 ;;		On exit  : 0/0
  7102 ;;		Unchanged: 0/0
  7103 ;; Data sizes:     COMMON   BANK0   BANK1   BANK3   BANK2
  7104 ;;      Params:         0       0       0       0       0
  7105 ;;      Locals:         1       0       0       0       0
  7106 ;;      Temps:          0       0       0       0       0
  7107 ;;      Totals:         1       0       0       0       0
  7108 ;;Total ram usage:        1 bytes
  7109 ;; Hardware stack levels used:    1
  7110 ;; This function calls:
  7111 ;;		Nothing
  7112 ;; This function is called by:
  7113 ;;		_Lcd_Cmd
  7114 ;;		_Lcd_Write_Char
  7115 ;; This function uses a non-reentrant model
  7116 ;;
  7117                           
  7118                           
  7119                           ;psect for function _Lcd_Port
  7120  1660                     _Lcd_Port:	
  7121                           
  7122                           ;incstack = 0
  7123                           ; Regs used in _Lcd_Port: [wreg]
  7124                           ;Lcd_Port@a stored from wreg
  7125  1660  00F0               	movwf	Lcd_Port@a
  7126  1661                     l1988:	
  7127                           
  7128                           ;LCD.c: 27: void Lcd_Port(char a);LCD.c: 28: {;LCD.c: 29:     if(a & 1)
  7129  1661  1C70               	btfss	Lcd_Port@a,0
  7130  1662  2E64               	goto	u1801
  7131  1663  2E65               	goto	u1800
  7132  1664                     u1801:	
  7133  1664  2E69               	goto	l25
  7134  1665                     u1800:	
  7135  1665                     l1990:	
  7136                           
  7137                           ;LCD.c: 30:   RA0 = 1;
  7138  1665  1283               	bcf	3,5	;RP0=0, select bank0
  7139  1666  1303               	bcf	3,6	;RP1=0, select bank0
  7140  1667  1405               	bsf	5,0	;volatile
  7141  1668  2E6C               	goto	l26
  7142  1669                     l25:	
  7143                           ;LCD.c: 31:  else
  7144                           
  7145                           
  7146                           ;LCD.c: 32:   RA0 = 0;
  7147  1669  1283               	bcf	3,5	;RP0=0, select bank0
  7148  166A  1303               	bcf	3,6	;RP1=0, select bank0
  7149  166B  1005               	bcf	5,0	;volatile
  7150  166C                     l26:	
  7151                           
  7152                           ;LCD.c: 34:  if(a & 2)
  7153  166C  1CF0               	btfss	Lcd_Port@a,1
  7154  166D  2E6F               	goto	u1811
  7155  166E  2E70               	goto	u1810
  7156  166F                     u1811:	
  7157  166F  2E72               	goto	l27
  7158  1670                     u1810:	
  7159  1670                     l1992:	
  7160                           
  7161                           ;LCD.c: 35:   RA1 = 1;
  7162  1670  1485               	bsf	5,1	;volatile
  7163  1671  2E73               	goto	l28
  7164  1672                     l27:	
  7165                           ;LCD.c: 36:  else
  7166                           
  7167                           
  7168                           ;LCD.c: 37:   RA1 = 0;
  7169  1672  1085               	bcf	5,1	;volatile
  7170  1673                     l28:	
  7171                           
  7172                           ;LCD.c: 39:  if(a & 4)
  7173  1673  1D70               	btfss	Lcd_Port@a,2
  7174  1674  2E76               	goto	u1821
  7175  1675  2E77               	goto	u1820
  7176  1676                     u1821:	
  7177  1676  2E79               	goto	l29
  7178  1677                     u1820:	
  7179  1677                     l1994:	
  7180                           
  7181                           ;LCD.c: 40:   RA2 = 1;
  7182  1677  1505               	bsf	5,2	;volatile
  7183  1678  2E7A               	goto	l30
  7184  1679                     l29:	
  7185                           ;LCD.c: 41:  else
  7186                           
  7187                           
  7188                           ;LCD.c: 42:   RA2 = 0;
  7189  1679  1105               	bcf	5,2	;volatile
  7190  167A                     l30:	
  7191                           
  7192                           ;LCD.c: 44:  if(a & 8)
  7193  167A  1DF0               	btfss	Lcd_Port@a,3
  7194  167B  2E7D               	goto	u1831
  7195  167C  2E7E               	goto	u1830
  7196  167D                     u1831:	
  7197  167D  2E80               	goto	l31
  7198  167E                     u1830:	
  7199  167E                     l1996:	
  7200                           
  7201                           ;LCD.c: 45:   RA3 = 1;
  7202  167E  1585               	bsf	5,3	;volatile
  7203  167F  2E81               	goto	l32
  7204  1680                     l31:	
  7205                           ;LCD.c: 46:  else
  7206                           
  7207                           
  7208                           ;LCD.c: 47:   RA3 = 0;
  7209  1680  1185               	bcf	5,3	;volatile
  7210  1681                     l32:	
  7211                           
  7212                           ;LCD.c: 49:  if(a & 16)
  7213  1681  1E70               	btfss	Lcd_Port@a,4
  7214  1682  2E84               	goto	u1841
  7215  1683  2E85               	goto	u1840
  7216  1684                     u1841:	
  7217  1684  2E87               	goto	l33
  7218  1685                     u1840:	
  7219  1685                     l1998:	
  7220                           
  7221                           ;LCD.c: 50:   RA4 = 1;
  7222  1685  1605               	bsf	5,4	;volatile
  7223  1686  2E88               	goto	l34
  7224  1687                     l33:	
  7225                           ;LCD.c: 51:  else
  7226                           
  7227                           
  7228                           ;LCD.c: 52:   RA4 = 0;
  7229  1687  1205               	bcf	5,4	;volatile
  7230  1688                     l34:	
  7231                           
  7232                           ;LCD.c: 54:  if(a & 32)
  7233  1688  1EF0               	btfss	Lcd_Port@a,5
  7234  1689  2E8B               	goto	u1851
  7235  168A  2E8C               	goto	u1850
  7236  168B                     u1851:	
  7237  168B  2E8E               	goto	l35
  7238  168C                     u1850:	
  7239  168C                     l2000:	
  7240                           
  7241                           ;LCD.c: 55:   RA5 = 1;
  7242  168C  1685               	bsf	5,5	;volatile
  7243  168D  2E8F               	goto	l36
  7244  168E                     l35:	
  7245                           ;LCD.c: 56:  else
  7246                           
  7247                           
  7248                           ;LCD.c: 57:   RA5 = 0;
  7249  168E  1285               	bcf	5,5	;volatile
  7250  168F                     l36:	
  7251                           
  7252                           ;LCD.c: 59:  if(a & 64)
  7253  168F  1F70               	btfss	Lcd_Port@a,6
  7254  1690  2E92               	goto	u1861
  7255  1691  2E93               	goto	u1860
  7256  1692                     u1861:	
  7257  1692  2E95               	goto	l37
  7258  1693                     u1860:	
  7259  1693                     l2002:	
  7260                           
  7261                           ;LCD.c: 60:   RA6 = 1;
  7262  1693  1705               	bsf	5,6	;volatile
  7263  1694  2E96               	goto	l38
  7264  1695                     l37:	
  7265                           ;LCD.c: 61:  else
  7266                           
  7267                           
  7268                           ;LCD.c: 62:   RA6 = 0;
  7269  1695  1305               	bcf	5,6	;volatile
  7270  1696                     l38:	
  7271                           
  7272                           ;LCD.c: 64:  if(a & 128)
  7273  1696  1FF0               	btfss	Lcd_Port@a,7
  7274  1697  2E99               	goto	u1871
  7275  1698  2E9A               	goto	u1870
  7276  1699                     u1871:	
  7277  1699  2E9C               	goto	l39
  7278  169A                     u1870:	
  7279  169A                     l2004:	
  7280                           
  7281                           ;LCD.c: 65:   RA7 = 1;
  7282  169A  1785               	bsf	5,7	;volatile
  7283  169B  2E9D               	goto	l41
  7284  169C                     l39:	
  7285                           ;LCD.c: 66:  else
  7286                           
  7287                           
  7288                           ;LCD.c: 67:   RA7 = 0;
  7289  169C  1385               	bcf	5,7	;volatile
  7290  169D                     l41:	
  7291  169D  0008               	return
  7292  169E                     __end_of_Lcd_Port:	
  7293                           
  7294                           	psect	text22
  7295  0C78                     __ptext22:	
  7296 ;; *************** function _ADC_CONFIG *****************
  7297 ;; Defined at:
  7298 ;;		line 12 in file "ADC.c"
  7299 ;; Parameters:    Size  Location     Type
  7300 ;;  canal           1    wreg     unsigned char 
  7301 ;;  justif          1    0[COMMON] unsigned char 
  7302 ;; Auto vars:     Size  Location     Type
  7303 ;;  canal           1    3[COMMON] unsigned char 
  7304 ;; Return value:  Size  Location     Type
  7305 ;;                  1    wreg      void 
  7306 ;; Registers used:
  7307 ;;		wreg, fsr0l, fsr0h, status,2, status,0
  7308 ;; Tracked objects:
  7309 ;;		On entry : 0/0
  7310 ;;		On exit  : 0/0
  7311 ;;		Unchanged: 0/0
  7312 ;; Data sizes:     COMMON   BANK0   BANK1   BANK3   BANK2
  7313 ;;      Params:         1       0       0       0       0
  7314 ;;      Locals:         1       0       0       0       0
  7315 ;;      Temps:          2       0       0       0       0
  7316 ;;      Totals:         4       0       0       0       0
  7317 ;;Total ram usage:        4 bytes
  7318 ;; Hardware stack levels used:    1
  7319 ;; This function calls:
  7320 ;;		Nothing
  7321 ;; This function is called by:
  7322 ;;		_main
  7323 ;; This function uses a non-reentrant model
  7324 ;;
  7325                           
  7326                           
  7327                           ;psect for function _ADC_CONFIG
  7328  0C78                     _ADC_CONFIG:	
  7329                           
  7330                           ;incstack = 0
  7331                           ; Regs used in _ADC_CONFIG: [wreg-fsr0h+status,2+status,0]
  7332                           ;ADC_CONFIG@canal stored from wreg
  7333  0C78  00F3               	movwf	ADC_CONFIG@canal
  7334  0C79                     l2586:	
  7335                           
  7336                           ;ADC.c: 13:     ADCON0bits.ADON = 1;
  7337  0C79  1283               	bcf	3,5	;RP0=0, select bank0
  7338  0C7A  1303               	bcf	3,6	;RP1=0, select bank0
  7339  0C7B  141F               	bsf	31,0	;volatile
  7340                           
  7341                           ;ADC.c: 14:     ADCON0bits.GO = 1;
  7342  0C7C  149F               	bsf	31,1	;volatile
  7343  0C7D                     l2588:	
  7344                           
  7345                           ;ADC.c: 15:     ADCON0bits.ADCS = 1;
  7346  0C7D  081F               	movf	31,w	;volatile
  7347  0C7E  393F               	andlw	-193
  7348  0C7F  3840               	iorlw	64
  7349  0C80  009F               	movwf	31	;volatile
  7350  0C81                     l2590:	
  7351                           
  7352                           ;ADC.c: 16:     ADCON1bits.VCFG0 = 0;
  7353  0C81  1683               	bsf	3,5	;RP0=1, select bank1
  7354  0C82  1303               	bcf	3,6	;RP1=0, select bank1
  7355  0C83  121F               	bcf	31,4	;volatile
  7356  0C84                     l2592:	
  7357                           
  7358                           ;ADC.c: 17:     ADCON1bits.VCFG1 = 0;
  7359  0C84  129F               	bcf	31,5	;volatile
  7360                           
  7361                           ;ADC.c: 19:     switch(canal){
  7362  0C85  2D3A               	goto	l2652
  7363  0C86                     l99:	
  7364                           ;ADC.c: 20:         case 0:
  7365                           
  7366                           
  7367                           ;ADC.c: 21:             ANSELbits.ANS0 = 1;
  7368  0C86  1683               	bsf	3,5	;RP0=1, select bank3
  7369  0C87  1703               	bsf	3,6	;RP1=1, select bank3
  7370  0C88  1408               	bsf	8,0	;volatile
  7371  0C89                     l2594:	
  7372                           
  7373                           ;ADC.c: 22:             ADCON0bits.CHS = 0;
  7374  0C89  30C3               	movlw	-61
  7375  0C8A  1283               	bcf	3,5	;RP0=0, select bank0
  7376  0C8B  1303               	bcf	3,6	;RP1=0, select bank0
  7377  0C8C  059F               	andwf	31,f	;volatile
  7378  0C8D                     l2596:	
  7379                           
  7380                           ;ADC.c: 23:             TRISAbits.TRISA0 = 1;
  7381  0C8D  1683               	bsf	3,5	;RP0=1, select bank1
  7382  0C8E  1303               	bcf	3,6	;RP1=0, select bank1
  7383  0C8F  1405               	bsf	5,0	;volatile
  7384                           
  7385                           ;ADC.c: 24:             break;
  7386  0C90  2D72               	goto	l2656
  7387  0C91                     l101:	
  7388                           ;ADC.c: 26:         case 1:
  7389                           
  7390                           
  7391                           ;ADC.c: 27:             ANSELbits.ANS1 = 1;
  7392  0C91  1683               	bsf	3,5	;RP0=1, select bank3
  7393  0C92  1703               	bsf	3,6	;RP1=1, select bank3
  7394  0C93  1488               	bsf	8,1	;volatile
  7395  0C94                     l2598:	
  7396                           
  7397                           ;ADC.c: 28:             ADCON0bits.CHS = 1;
  7398  0C94  1283               	bcf	3,5	;RP0=0, select bank0
  7399  0C95  1303               	bcf	3,6	;RP1=0, select bank0
  7400  0C96  081F               	movf	31,w	;volatile
  7401  0C97  39C3               	andlw	-61
  7402  0C98  3804               	iorlw	4
  7403  0C99  009F               	movwf	31	;volatile
  7404  0C9A                     l2600:	
  7405                           
  7406                           ;ADC.c: 29:             TRISAbits.TRISA1 = 1;
  7407  0C9A  1683               	bsf	3,5	;RP0=1, select bank1
  7408  0C9B  1303               	bcf	3,6	;RP1=0, select bank1
  7409  0C9C  1485               	bsf	5,1	;volatile
  7410                           
  7411                           ;ADC.c: 30:             break;
  7412  0C9D  2D72               	goto	l2656
  7413  0C9E                     l102:	
  7414                           ;ADC.c: 32:         case 2:
  7415                           
  7416                           
  7417                           ;ADC.c: 33:             ANSELbits.ANS2 = 1;
  7418  0C9E  1683               	bsf	3,5	;RP0=1, select bank3
  7419  0C9F  1703               	bsf	3,6	;RP1=1, select bank3
  7420  0CA0  1508               	bsf	8,2	;volatile
  7421  0CA1                     l2602:	
  7422                           
  7423                           ;ADC.c: 34:             ADCON0bits.CHS = 2;
  7424  0CA1  1283               	bcf	3,5	;RP0=0, select bank0
  7425  0CA2  1303               	bcf	3,6	;RP1=0, select bank0
  7426  0CA3  081F               	movf	31,w	;volatile
  7427  0CA4  39C3               	andlw	-61
  7428  0CA5  3808               	iorlw	8
  7429  0CA6  009F               	movwf	31	;volatile
  7430  0CA7                     l2604:	
  7431                           
  7432                           ;ADC.c: 35:             TRISAbits.TRISA2 = 1;
  7433  0CA7  1683               	bsf	3,5	;RP0=1, select bank1
  7434  0CA8  1303               	bcf	3,6	;RP1=0, select bank1
  7435  0CA9  1505               	bsf	5,2	;volatile
  7436                           
  7437                           ;ADC.c: 36:             break;
  7438  0CAA  2D72               	goto	l2656
  7439  0CAB                     l103:	
  7440                           ;ADC.c: 38:         case 3:
  7441                           
  7442                           
  7443                           ;ADC.c: 39:             ANSELbits.ANS3 = 1;
  7444  0CAB  1683               	bsf	3,5	;RP0=1, select bank3
  7445  0CAC  1703               	bsf	3,6	;RP1=1, select bank3
  7446  0CAD  1588               	bsf	8,3	;volatile
  7447  0CAE                     l2606:	
  7448                           
  7449                           ;ADC.c: 40:             ADCON0bits.CHS = 3;
  7450  0CAE  1283               	bcf	3,5	;RP0=0, select bank0
  7451  0CAF  1303               	bcf	3,6	;RP1=0, select bank0
  7452  0CB0  081F               	movf	31,w	;volatile
  7453  0CB1  39C3               	andlw	-61
  7454  0CB2  380C               	iorlw	12
  7455  0CB3  009F               	movwf	31	;volatile
  7456  0CB4                     l2608:	
  7457                           
  7458                           ;ADC.c: 41:             TRISAbits.TRISA3 = 1;
  7459  0CB4  1683               	bsf	3,5	;RP0=1, select bank1
  7460  0CB5  1303               	bcf	3,6	;RP1=0, select bank1
  7461  0CB6  1585               	bsf	5,3	;volatile
  7462                           
  7463                           ;ADC.c: 42:             break;
  7464  0CB7  2D72               	goto	l2656
  7465  0CB8                     l104:	
  7466                           ;ADC.c: 44:         case 4:
  7467                           
  7468                           
  7469                           ;ADC.c: 45:             ANSELbits.ANS4 = 1;
  7470  0CB8  1683               	bsf	3,5	;RP0=1, select bank3
  7471  0CB9  1703               	bsf	3,6	;RP1=1, select bank3
  7472  0CBA  1608               	bsf	8,4	;volatile
  7473  0CBB                     l2610:	
  7474                           
  7475                           ;ADC.c: 46:             ADCON0bits.CHS = 4;
  7476  0CBB  1283               	bcf	3,5	;RP0=0, select bank0
  7477  0CBC  1303               	bcf	3,6	;RP1=0, select bank0
  7478  0CBD  081F               	movf	31,w	;volatile
  7479  0CBE  39C3               	andlw	-61
  7480  0CBF  3810               	iorlw	16
  7481  0CC0  009F               	movwf	31	;volatile
  7482  0CC1                     l2612:	
  7483                           
  7484                           ;ADC.c: 47:             TRISAbits.TRISA5 = 1;
  7485  0CC1  1683               	bsf	3,5	;RP0=1, select bank1
  7486  0CC2  1303               	bcf	3,6	;RP1=0, select bank1
  7487  0CC3  1685               	bsf	5,5	;volatile
  7488                           
  7489                           ;ADC.c: 48:             break;
  7490  0CC4  2D72               	goto	l2656
  7491  0CC5                     l105:	
  7492                           ;ADC.c: 50:         case 5:
  7493                           
  7494                           
  7495                           ;ADC.c: 51:             ANSELbits.ANS5 = 1;
  7496  0CC5  1683               	bsf	3,5	;RP0=1, select bank3
  7497  0CC6  1703               	bsf	3,6	;RP1=1, select bank3
  7498  0CC7  1688               	bsf	8,5	;volatile
  7499  0CC8                     l2614:	
  7500                           
  7501                           ;ADC.c: 52:             ADCON0bits.CHS = 5;
  7502  0CC8  1283               	bcf	3,5	;RP0=0, select bank0
  7503  0CC9  1303               	bcf	3,6	;RP1=0, select bank0
  7504  0CCA  081F               	movf	31,w	;volatile
  7505  0CCB  39C3               	andlw	-61
  7506  0CCC  3814               	iorlw	20
  7507  0CCD  009F               	movwf	31	;volatile
  7508  0CCE                     l2616:	
  7509                           
  7510                           ;ADC.c: 53:             TRISEbits.TRISE0 = 1;
  7511  0CCE  1683               	bsf	3,5	;RP0=1, select bank1
  7512  0CCF  1303               	bcf	3,6	;RP1=0, select bank1
  7513  0CD0  1409               	bsf	9,0	;volatile
  7514                           
  7515                           ;ADC.c: 54:             break;
  7516  0CD1  2D72               	goto	l2656
  7517  0CD2                     l106:	
  7518                           ;ADC.c: 56:         case 6:
  7519                           
  7520                           
  7521                           ;ADC.c: 57:             ANSELbits.ANS6 = 1;
  7522  0CD2  1683               	bsf	3,5	;RP0=1, select bank3
  7523  0CD3  1703               	bsf	3,6	;RP1=1, select bank3
  7524  0CD4  1708               	bsf	8,6	;volatile
  7525  0CD5                     l2618:	
  7526                           
  7527                           ;ADC.c: 58:             ADCON0bits.CHS = 6;
  7528  0CD5  1283               	bcf	3,5	;RP0=0, select bank0
  7529  0CD6  1303               	bcf	3,6	;RP1=0, select bank0
  7530  0CD7  081F               	movf	31,w	;volatile
  7531  0CD8  39C3               	andlw	-61
  7532  0CD9  3818               	iorlw	24
  7533  0CDA  009F               	movwf	31	;volatile
  7534  0CDB                     l2620:	
  7535                           
  7536                           ;ADC.c: 59:             TRISEbits.TRISE1 = 1;
  7537  0CDB  1683               	bsf	3,5	;RP0=1, select bank1
  7538  0CDC  1303               	bcf	3,6	;RP1=0, select bank1
  7539  0CDD  1489               	bsf	9,1	;volatile
  7540                           
  7541                           ;ADC.c: 60:             break;
  7542  0CDE  2D72               	goto	l2656
  7543  0CDF                     l107:	
  7544                           ;ADC.c: 62:         case 7:
  7545                           
  7546                           
  7547                           ;ADC.c: 63:             ANSELbits.ANS7 = 1;
  7548  0CDF  1683               	bsf	3,5	;RP0=1, select bank3
  7549  0CE0  1703               	bsf	3,6	;RP1=1, select bank3
  7550  0CE1  1788               	bsf	8,7	;volatile
  7551  0CE2                     l2622:	
  7552                           
  7553                           ;ADC.c: 64:             ADCON0bits.CHS = 7;
  7554  0CE2  1283               	bcf	3,5	;RP0=0, select bank0
  7555  0CE3  1303               	bcf	3,6	;RP1=0, select bank0
  7556  0CE4  081F               	movf	31,w	;volatile
  7557  0CE5  39C3               	andlw	-61
  7558  0CE6  381C               	iorlw	28
  7559  0CE7  009F               	movwf	31	;volatile
  7560  0CE8                     l2624:	
  7561                           
  7562                           ;ADC.c: 65:             TRISEbits.TRISE2 = 1;
  7563  0CE8  1683               	bsf	3,5	;RP0=1, select bank1
  7564  0CE9  1303               	bcf	3,6	;RP1=0, select bank1
  7565  0CEA  1509               	bsf	9,2	;volatile
  7566                           
  7567                           ;ADC.c: 66:             break;
  7568  0CEB  2D72               	goto	l2656
  7569  0CEC                     l108:	
  7570                           ;ADC.c: 68:         case 8:
  7571                           
  7572                           
  7573                           ;ADC.c: 69:             ANSELHbits.ANS8 = 1;
  7574  0CEC  1683               	bsf	3,5	;RP0=1, select bank3
  7575  0CED  1703               	bsf	3,6	;RP1=1, select bank3
  7576  0CEE  1409               	bsf	9,0	;volatile
  7577  0CEF                     l2626:	
  7578                           
  7579                           ;ADC.c: 70:             ADCON0bits.CHS = 8;
  7580  0CEF  1283               	bcf	3,5	;RP0=0, select bank0
  7581  0CF0  1303               	bcf	3,6	;RP1=0, select bank0
  7582  0CF1  081F               	movf	31,w	;volatile
  7583  0CF2  39C3               	andlw	-61
  7584  0CF3  3820               	iorlw	32
  7585  0CF4  009F               	movwf	31	;volatile
  7586  0CF5                     l2628:	
  7587                           
  7588                           ;ADC.c: 71:             TRISBbits.TRISB2 = 1;
  7589  0CF5  1683               	bsf	3,5	;RP0=1, select bank1
  7590  0CF6  1303               	bcf	3,6	;RP1=0, select bank1
  7591  0CF7  1506               	bsf	6,2	;volatile
  7592                           
  7593                           ;ADC.c: 72:             break;
  7594  0CF8  2D72               	goto	l2656
  7595  0CF9                     l109:	
  7596                           ;ADC.c: 74:         case 9:
  7597                           
  7598                           
  7599                           ;ADC.c: 75:             ANSELHbits.ANS9 = 1;
  7600  0CF9  1683               	bsf	3,5	;RP0=1, select bank3
  7601  0CFA  1703               	bsf	3,6	;RP1=1, select bank3
  7602  0CFB  1489               	bsf	9,1	;volatile
  7603  0CFC                     l2630:	
  7604                           
  7605                           ;ADC.c: 76:             ADCON0bits.CHS = 9;
  7606  0CFC  1283               	bcf	3,5	;RP0=0, select bank0
  7607  0CFD  1303               	bcf	3,6	;RP1=0, select bank0
  7608  0CFE  081F               	movf	31,w	;volatile
  7609  0CFF  39C3               	andlw	-61
  7610  0D00  3824               	iorlw	36
  7611  0D01  009F               	movwf	31	;volatile
  7612  0D02                     l2632:	
  7613                           
  7614                           ;ADC.c: 77:             TRISBbits.TRISB3 = 1;
  7615  0D02  1683               	bsf	3,5	;RP0=1, select bank1
  7616  0D03  1303               	bcf	3,6	;RP1=0, select bank1
  7617  0D04  1586               	bsf	6,3	;volatile
  7618                           
  7619                           ;ADC.c: 78:             break;
  7620  0D05  2D72               	goto	l2656
  7621  0D06                     l110:	
  7622                           ;ADC.c: 80:         case 10:
  7623                           
  7624                           
  7625                           ;ADC.c: 81:             ANSELHbits.ANS10 = 1;
  7626  0D06  1683               	bsf	3,5	;RP0=1, select bank3
  7627  0D07  1703               	bsf	3,6	;RP1=1, select bank3
  7628  0D08  1509               	bsf	9,2	;volatile
  7629  0D09                     l2634:	
  7630                           
  7631                           ;ADC.c: 82:             ADCON0bits.CHS = 10;
  7632  0D09  1283               	bcf	3,5	;RP0=0, select bank0
  7633  0D0A  1303               	bcf	3,6	;RP1=0, select bank0
  7634  0D0B  081F               	movf	31,w	;volatile
  7635  0D0C  39C3               	andlw	-61
  7636  0D0D  3828               	iorlw	40
  7637  0D0E  009F               	movwf	31	;volatile
  7638  0D0F                     l2636:	
  7639                           
  7640                           ;ADC.c: 83:             TRISBbits.TRISB1 = 1;
  7641  0D0F  1683               	bsf	3,5	;RP0=1, select bank1
  7642  0D10  1303               	bcf	3,6	;RP1=0, select bank1
  7643  0D11  1486               	bsf	6,1	;volatile
  7644                           
  7645                           ;ADC.c: 84:             break;
  7646  0D12  2D72               	goto	l2656
  7647  0D13                     l111:	
  7648                           ;ADC.c: 86:         case 11:
  7649                           
  7650                           
  7651                           ;ADC.c: 87:             ANSELHbits.ANS11 = 1;
  7652  0D13  1683               	bsf	3,5	;RP0=1, select bank3
  7653  0D14  1703               	bsf	3,6	;RP1=1, select bank3
  7654  0D15  1589               	bsf	9,3	;volatile
  7655  0D16                     l2638:	
  7656                           
  7657                           ;ADC.c: 88:             ADCON0bits.CHS = 11;
  7658  0D16  1283               	bcf	3,5	;RP0=0, select bank0
  7659  0D17  1303               	bcf	3,6	;RP1=0, select bank0
  7660  0D18  081F               	movf	31,w	;volatile
  7661  0D19  39C3               	andlw	-61
  7662  0D1A  382C               	iorlw	44
  7663  0D1B  009F               	movwf	31	;volatile
  7664  0D1C                     l2640:	
  7665                           
  7666                           ;ADC.c: 89:             TRISBbits.TRISB4 = 1;
  7667  0D1C  1683               	bsf	3,5	;RP0=1, select bank1
  7668  0D1D  1303               	bcf	3,6	;RP1=0, select bank1
  7669  0D1E  1606               	bsf	6,4	;volatile
  7670                           
  7671                           ;ADC.c: 90:             break;
  7672  0D1F  2D72               	goto	l2656
  7673  0D20                     l112:	
  7674                           ;ADC.c: 92:         case 12:
  7675                           
  7676                           
  7677                           ;ADC.c: 93:             ANSELHbits.ANS12 = 1;
  7678  0D20  1683               	bsf	3,5	;RP0=1, select bank3
  7679  0D21  1703               	bsf	3,6	;RP1=1, select bank3
  7680  0D22  1609               	bsf	9,4	;volatile
  7681  0D23                     l2642:	
  7682                           
  7683                           ;ADC.c: 94:             ADCON0bits.CHS = 12;
  7684  0D23  1283               	bcf	3,5	;RP0=0, select bank0
  7685  0D24  1303               	bcf	3,6	;RP1=0, select bank0
  7686  0D25  081F               	movf	31,w	;volatile
  7687  0D26  39C3               	andlw	-61
  7688  0D27  3830               	iorlw	48
  7689  0D28  009F               	movwf	31	;volatile
  7690  0D29                     l2644:	
  7691                           
  7692                           ;ADC.c: 95:             TRISBbits.TRISB0 = 1;
  7693  0D29  1683               	bsf	3,5	;RP0=1, select bank1
  7694  0D2A  1303               	bcf	3,6	;RP1=0, select bank1
  7695  0D2B  1406               	bsf	6,0	;volatile
  7696                           
  7697                           ;ADC.c: 96:             break;
  7698  0D2C  2D72               	goto	l2656
  7699  0D2D                     l113:	
  7700                           ;ADC.c: 98:         case 13:
  7701                           
  7702                           
  7703                           ;ADC.c: 99:             ANSELHbits.ANS13 = 1;
  7704  0D2D  1683               	bsf	3,5	;RP0=1, select bank3
  7705  0D2E  1703               	bsf	3,6	;RP1=1, select bank3
  7706  0D2F  1689               	bsf	9,5	;volatile
  7707  0D30                     l2646:	
  7708                           
  7709                           ;ADC.c: 100:             ADCON0bits.CHS = 13;
  7710  0D30  1283               	bcf	3,5	;RP0=0, select bank0
  7711  0D31  1303               	bcf	3,6	;RP1=0, select bank0
  7712  0D32  081F               	movf	31,w	;volatile
  7713  0D33  39C3               	andlw	-61
  7714  0D34  3834               	iorlw	52
  7715  0D35  009F               	movwf	31	;volatile
  7716  0D36                     l2648:	
  7717                           
  7718                           ;ADC.c: 101:             TRISBbits.TRISB5 = 1;
  7719  0D36  1683               	bsf	3,5	;RP0=1, select bank1
  7720  0D37  1303               	bcf	3,6	;RP1=0, select bank1
  7721  0D38  1686               	bsf	6,5	;volatile
  7722                           
  7723                           ;ADC.c: 102:             break;
  7724  0D39  2D72               	goto	l2656
  7725  0D3A                     l2652:	
  7726  0D3A  0873               	movf	ADC_CONFIG@canal,w
  7727  0D3B  00F1               	movwf	??_ADC_CONFIG
  7728  0D3C  01F2               	clrf	??_ADC_CONFIG+1
  7729                           
  7730                           ; Switch on 2 bytes has been partitioned into a top level switch of size 1, and 1 sub-sw
      +                          itches
  7731                           ; Switch size 1, requested type "simple"
  7732                           ; Number of cases is 1, Range of values is 0 to 0
  7733                           ; switch strategies available:
  7734                           ; Name         Instructions Cycles
  7735                           ; simple_byte            4     3 (average)
  7736                           ; direct_byte           11     8 (fixed)
  7737                           ; jumptable            260     6 (fixed)
  7738                           ;	Chosen strategy is simple_byte
  7739  0D3D  0872               	movf	??_ADC_CONFIG+1,w
  7740  0D3E  3A00               	xorlw	0	; case 0
  7741  0D3F  1903               	skipnz
  7742  0D40  2D42               	goto	l3076
  7743  0D41  2D72               	goto	l2656
  7744  0D42                     l3076:	
  7745                           
  7746                           ; Switch size 1, requested type "simple"
  7747                           ; Number of cases is 14, Range of values is 0 to 13
  7748                           ; switch strategies available:
  7749                           ; Name         Instructions Cycles
  7750                           ; simple_byte           43    22 (average)
  7751                           ; direct_byte           50     8 (fixed)
  7752                           ; jumptable            260     6 (fixed)
  7753                           ;	Chosen strategy is simple_byte
  7754  0D42  0871               	movf	??_ADC_CONFIG,w
  7755  0D43  3A00               	xorlw	0	; case 0
  7756  0D44  1903               	skipnz
  7757  0D45  2C86               	goto	l99
  7758  0D46  3A01               	xorlw	1	; case 1
  7759  0D47  1903               	skipnz
  7760  0D48  2C91               	goto	l101
  7761  0D49  3A03               	xorlw	3	; case 2
  7762  0D4A  1903               	skipnz
  7763  0D4B  2C9E               	goto	l102
  7764  0D4C  3A01               	xorlw	1	; case 3
  7765  0D4D  1903               	skipnz
  7766  0D4E  2CAB               	goto	l103
  7767  0D4F  3A07               	xorlw	7	; case 4
  7768  0D50  1903               	skipnz
  7769  0D51  2CB8               	goto	l104
  7770  0D52  3A01               	xorlw	1	; case 5
  7771  0D53  1903               	skipnz
  7772  0D54  2CC5               	goto	l105
  7773  0D55  3A03               	xorlw	3	; case 6
  7774  0D56  1903               	skipnz
  7775  0D57  2CD2               	goto	l106
  7776  0D58  3A01               	xorlw	1	; case 7
  7777  0D59  1903               	skipnz
  7778  0D5A  2CDF               	goto	l107
  7779  0D5B  3A0F               	xorlw	15	; case 8
  7780  0D5C  1903               	skipnz
  7781  0D5D  2CEC               	goto	l108
  7782  0D5E  3A01               	xorlw	1	; case 9
  7783  0D5F  1903               	skipnz
  7784  0D60  2CF9               	goto	l109
  7785  0D61  3A03               	xorlw	3	; case 10
  7786  0D62  1903               	skipnz
  7787  0D63  2D06               	goto	l110
  7788  0D64  3A01               	xorlw	1	; case 11
  7789  0D65  1903               	skipnz
  7790  0D66  2D13               	goto	l111
  7791  0D67  3A07               	xorlw	7	; case 12
  7792  0D68  1903               	skipnz
  7793  0D69  2D20               	goto	l112
  7794  0D6A  3A01               	xorlw	1	; case 13
  7795  0D6B  1903               	skipnz
  7796  0D6C  2D2D               	goto	l113
  7797  0D6D  2D72               	goto	l2656
  7798  0D6E                     l115:	
  7799                           ;ADC.c: 105:         case 0:
  7800                           
  7801                           
  7802                           ;ADC.c: 106:             ADCON1bits.ADFM = 0;
  7803  0D6E  139F               	bcf	31,7	;volatile
  7804                           
  7805                           ;ADC.c: 107:             break;
  7806  0D6F  2D82               	goto	l118
  7807  0D70                     l117:	
  7808                           ;ADC.c: 108:         case 1:
  7809                           
  7810                           
  7811                           ;ADC.c: 109:             ADCON1bits.ADFM = 1;
  7812  0D70  179F               	bsf	31,7	;volatile
  7813                           
  7814                           ;ADC.c: 110:             break;
  7815  0D71  2D82               	goto	l118
  7816  0D72                     l2656:	
  7817  0D72  0870               	movf	ADC_CONFIG@justif,w
  7818  0D73  00F1               	movwf	??_ADC_CONFIG
  7819  0D74  01F2               	clrf	??_ADC_CONFIG+1
  7820                           
  7821                           ; Switch on 2 bytes has been partitioned into a top level switch of size 1, and 1 sub-sw
      +                          itches
  7822                           ; Switch size 1, requested type "simple"
  7823                           ; Number of cases is 1, Range of values is 0 to 0
  7824                           ; switch strategies available:
  7825                           ; Name         Instructions Cycles
  7826                           ; simple_byte            4     3 (average)
  7827                           ; direct_byte           11     8 (fixed)
  7828                           ; jumptable            260     6 (fixed)
  7829                           ;	Chosen strategy is simple_byte
  7830  0D75  0872               	movf	??_ADC_CONFIG+1,w
  7831  0D76  3A00               	xorlw	0	; case 0
  7832  0D77  1903               	skipnz
  7833  0D78  2D7A               	goto	l3078
  7834  0D79  2D82               	goto	l118
  7835  0D7A                     l3078:	
  7836                           
  7837                           ; Switch size 1, requested type "simple"
  7838                           ; Number of cases is 2, Range of values is 0 to 1
  7839                           ; switch strategies available:
  7840                           ; Name         Instructions Cycles
  7841                           ; simple_byte            7     4 (average)
  7842                           ; direct_byte           14     8 (fixed)
  7843                           ; jumptable            260     6 (fixed)
  7844                           ;	Chosen strategy is simple_byte
  7845  0D7A  0871               	movf	??_ADC_CONFIG,w
  7846  0D7B  3A00               	xorlw	0	; case 0
  7847  0D7C  1903               	skipnz
  7848  0D7D  2D6E               	goto	l115
  7849  0D7E  3A01               	xorlw	1	; case 1
  7850  0D7F  1903               	skipnz
  7851  0D80  2D70               	goto	l117
  7852  0D81  2D82               	goto	l118
  7853  0D82                     l118:	
  7854  0D82  0008               	return
  7855  0D83                     __end_of_ADC_CONFIG:	
  7856  007E                     btemp	set	126	;btemp
  7857  007E                     wtemp0	set	126


Data Sizes:
    Strings     12
    Constant    0
    Data        1
    BSS         29
    Persistent  0
    Stack       0

Auto Spaces:
    Space          Size  Autos    Used
    COMMON           14     14      14
    BANK0            80     75      77
    BANK1            80     14      42
    BANK3            96      0       0
    BANK2            96      0       0

Pointer List with Targets:

    Lcd_Write_String@a	PTR unsigned char  size(2) Largest target is 5
		 -> STR_3(CODE[4]), STR_2(CODE[4]), STR_1(CODE[4]), main@s2(BANK1[5]), 
		 -> main@s1(BANK1[5]), 


Critical Paths under _main in COMMON

    _main->___xxtofl
    _int_stre->___xxtofl
    _int_strd->___xxtofl
    _int_strc->___xxtofl
    ___fltol->___xxtofl
    ___flsub->___xxtofl
    ___flmul->___xxtofl
    ___fldiv->___xxtofl
    _UART_Init->___aldiv
    _Lcd_Write_String->_Lcd_Write_Char
    _Lcd_Write_Char->_Lcd_Port
    _Lcd_Set_Cursor->_Lcd_Cmd
    _Lcd_Init->_Lcd_Cmd
    _Lcd_Cmd->_Lcd_Port

Critical Paths under _main in BANK0

    _main->_int_strc
    _int_stre->___fltol
    _int_strd->___fltol
    _int_strc->___fltol
    ___fltol->___flmul
    ___flsub->___fladd
    ___flmul->___flsub
    _UART_Init->___aldiv

Critical Paths under _main in BANK1

    None.

Critical Paths under _main in BANK3

    None.

Critical Paths under _main in BANK2

    None.

Call Graph Tables:

 ---------------------------------------------------------------------------------
 (Depth) Function   	        Calls       Base Space   Used Autos Params    Refs
 ---------------------------------------------------------------------------------
 (0) _main                                                20    20      0   31713
                                             71 BANK0      4     4      0
                                              0 BANK1     14    14      0
                         _ADC_CONFIG
                           _Lcd_Init
                     _Lcd_Set_Cursor
                   _Lcd_Write_String
                          _UART_Init
                         _UART_Write
                            ___fldiv
                           ___xxtofl
                           _int_strc
                           _int_strd
                           _int_stre
 ---------------------------------------------------------------------------------
 (1) _int_stre                                            16    12      4    8813
                                             53 BANK0     16    12      4
                             ___bmul
                            ___flmul
                            ___flsub
                            ___fltol
                           ___xxtofl
                           _num_case
 ---------------------------------------------------------------------------------
 (1) _int_strd                                            16    12      4    8813
                                             53 BANK0     16    12      4
                             ___bmul
                            ___flmul
                            ___flsub
                            ___fltol
                           ___xxtofl
                           _num_case
 ---------------------------------------------------------------------------------
 (2) ___bmul                                               4     3      1     320
                                              0 COMMON     4     3      1
 ---------------------------------------------------------------------------------
 (1) _int_strc                                            18    14      4    8493
                                             53 BANK0     18    14      4
                            ___flmul
                            ___flsub
                            ___fltol
                           ___xxtofl
                           _num_case
 ---------------------------------------------------------------------------------
 (2) _num_case                                             4     4      0      54
                                              0 COMMON     4     4      0
 ---------------------------------------------------------------------------------
 (2) ___xxtofl                                            14    10      4     930
                                              0 COMMON    14    10      4
 ---------------------------------------------------------------------------------
 (2) ___fltol                                             11     7      4    1141
                                             42 BANK0     11     7      4
                            ___flmul (ARG)
                            ___flsub (ARG)
                           ___xxtofl (ARG)
 ---------------------------------------------------------------------------------
 (2) ___flsub                                              8     0      8    3093
                                              8 BANK0      8     0      8
                            ___fladd
                           ___xxtofl (ARG)
 ---------------------------------------------------------------------------------
 (3) ___fladd                                             20    12      8    2136
                                              0 COMMON    12     4      8
                                              0 BANK0      8     8      0
 ---------------------------------------------------------------------------------
 (2) ___flmul                                             26    18      8    2873
                                             16 BANK0     26    18      8
                          __Umul8_16
                            ___flsub (ARG)
                           ___xxtofl (ARG)
 ---------------------------------------------------------------------------------
 (3) __Umul8_16                                            9     7      2     799
                                              0 COMMON     9     7      2
 ---------------------------------------------------------------------------------
 (1) ___fldiv                                             26    18      8    1881
                                              0 BANK0     26    18      8
                           ___xxtofl (ARG)
 ---------------------------------------------------------------------------------
 (1) _UART_Write                                           3     3      0      22
                                              0 COMMON     3     3      0
 ---------------------------------------------------------------------------------
 (1) _UART_Init                                           18    14      4     836
                                              9 COMMON     2     2      0
                                              6 BANK0     16    12      4
                            ___aldiv
 ---------------------------------------------------------------------------------
 (2) ___aldiv                                             15     7      8     604
                                              0 COMMON     9     1      8
                                              0 BANK0      6     6      0
 ---------------------------------------------------------------------------------
 (1) _Lcd_Write_String                                     7     5      2     668
                                              3 COMMON     7     5      2
                     _Lcd_Write_Char
 ---------------------------------------------------------------------------------
 (2) _Lcd_Write_Char                                       2     2      0     198
                                              1 COMMON     2     2      0
                           _Lcd_Port
 ---------------------------------------------------------------------------------
 (1) _Lcd_Set_Cursor                                       2     1      1     666
                                              4 COMMON     2     1      1
                            _Lcd_Cmd
 ---------------------------------------------------------------------------------
 (1) _Lcd_Init                                             2     2      0     198
                                              4 COMMON     2     2      0
                            _Lcd_Cmd
 ---------------------------------------------------------------------------------
 (2) _Lcd_Cmd                                              3     3      0     198
                                              1 COMMON     3     3      0
                           _Lcd_Port
 ---------------------------------------------------------------------------------
 (3) _Lcd_Port                                             1     1      0     176
                                              0 COMMON     1     1      0
 ---------------------------------------------------------------------------------
 (1) _ADC_CONFIG                                           4     3      1     196
                                              0 COMMON     4     3      1
 ---------------------------------------------------------------------------------
 Estimated maximum stack depth 3
 ---------------------------------------------------------------------------------

 Call Graph Graphs:

 _main (ROOT)
   _ADC_CONFIG
   _Lcd_Init
     _Lcd_Cmd
       _Lcd_Port
   _Lcd_Set_Cursor
     _Lcd_Cmd
       _Lcd_Port
   _Lcd_Write_String
     _Lcd_Write_Char
       _Lcd_Port
   _UART_Init
     ___aldiv
   _UART_Write
   ___fldiv
     ___xxtofl (ARG)
   ___xxtofl
   _int_strc
     ___flmul
       __Umul8_16
       ___flsub (ARG)
         ___fladd
         ___xxtofl (ARG)
       ___xxtofl (ARG)
     ___flsub
       ___fladd
       ___xxtofl (ARG)
     ___fltol
       ___flmul (ARG)
         __Umul8_16
         ___flsub (ARG)
           ___fladd
           ___xxtofl (ARG)
         ___xxtofl (ARG)
       ___flsub (ARG)
         ___fladd
         ___xxtofl (ARG)
       ___xxtofl (ARG)
     ___xxtofl
     _num_case
   _int_strd
     ___bmul
     ___flmul
       __Umul8_16
       ___flsub (ARG)
         ___fladd
         ___xxtofl (ARG)
       ___xxtofl (ARG)
     ___flsub
       ___fladd
       ___xxtofl (ARG)
     ___fltol
       ___flmul (ARG)
         __Umul8_16
         ___flsub (ARG)
           ___fladd
           ___xxtofl (ARG)
         ___xxtofl (ARG)
       ___flsub (ARG)
         ___fladd
         ___xxtofl (ARG)
       ___xxtofl (ARG)
     ___xxtofl
     _num_case
   _int_stre
     ___bmul
     ___flmul
       __Umul8_16
       ___flsub (ARG)
         ___fladd
         ___xxtofl (ARG)
       ___xxtofl (ARG)
     ___flsub
       ___fladd
       ___xxtofl (ARG)
     ___fltol
       ___flmul (ARG)
         __Umul8_16
         ___flsub (ARG)
           ___fladd
           ___xxtofl (ARG)
         ___xxtofl (ARG)
       ___flsub (ARG)
         ___fladd
         ___xxtofl (ARG)
       ___xxtofl (ARG)
     ___xxtofl
     _num_case

 Address spaces:
Name               Size   Autos  Total    Cost      Usage
BANK3               60      0       0       9        0.0%
BITBANK3            60      0       0       8        0.0%
SFR3                 0      0       0       4        0.0%
BITSFR3              0      0       0       4        0.0%
BANK2               60      0       0      11        0.0%
BITBANK2            60      0       0      10        0.0%
SFR2                 0      0       0       5        0.0%
BITSFR2              0      0       0       5        0.0%
BANK1               50      E      2A       7       52.5%
BITBANK1            50      0       0       6        0.0%
SFR1                 0      0       0       2        0.0%
BITSFR1              0      0       0       2        0.0%
BANK0               50     4B      4D       5       96.3%
BITBANK0            50      0       0       4        0.0%
SFR0                 0      0       0       1        0.0%
BITSFR0              0      0       0       1        0.0%
COMMON               E      E       E       1      100.0%
BITCOMMON            E      0       0       0        0.0%
CODE                 0      0       0       0        0.0%
DATA                 0      0      85      12        0.0%
ABS                  0      0      85       3        0.0%
NULL                 0      0       0       0        0.0%
STACK                0      0       0       2        0.0%
EEDATA             100      0       0       0        0.0%


Microchip Technology PIC Macro Assembler V2.10 build 88905656 
Symbol Table                                                                                   Mon Feb 10 10:59:55 2020

      __size_of_ADC_CONFIG 010B               ___fldiv@aexp 0039               ___fldiv@bexp 0038  
                        pc 0002               ___fldiv@sign 0031             ___bmul@product 0072  
              __CFG_CP$OFF 0000            ADC_CONFIG@canal 0073                         l30 167A  
                       l31 1680                         l32 1681                         l41 169D  
                       l33 1687                         l25 1669                         l34 1688  
                       l26 166C                         l35 168E                         l27 1672  
                       l36 168F                         l28 1673                         l44 1614  
                       l37 1695                         l29 1679                         l53 15F4  
                       l38 1696                         l39 169C                         l56 1725  
                       l65 16DF                         l59 15C3                         l99 0C86  
                       fsr 0004        __Umul8_16@word_mpld 0076                        l101 0C91  
                      l110 0D06                        l102 0C9E                        l111 0D13  
                      l103 0CAB                        l112 0D20                        l104 0CB8  
                      l113 0D2D                        l105 0CC5                        l106 0CD2  
                      l202 0955                        l115 0D6E                        l107 0CDF  
                      l108 0CEC                        l117 0D70                        l109 0CF9  
                      l205 0C77                        l118 0D82                        l260 0B89  
                      l229 1783                        l263 15C5                        l191 0E3C  
                      l266 15D8                        l435 082D                        l188 0DD9  
                      l445 08B5                        l199 09F5                        l721 01F2  
                      l705 047C                        l706 048A                        l810 0A79  
                      l563 17EA                        l811 0A85                        l803 0A5D  
                      l556 17FF                        l396 0818                        l741 01D6  
                      l709 1638                        l566 17FF                        l743 01E6  
                      l735 0164                        l719 0072                        l663 0256  
                      l816 164D                        l818 165F                        l771 07DF  
                      l667 02FF                        l684 03D0                        l676 048A  
                      l765 0757                        l669 02D4                        l694 0418  
                      l759 07EB                        l688 03F6                        l697 0458  
                      l797 0A18                        l799 0AAF                        _RA0 0028  
                      _RA1 0029                        _RA2 002A                        _RA3 002B  
                      _RA4 002C                        _RC0 0038                        _RA5 002D  
                      _RC1 0039                        _RA6 002E                        _RA7 002F  
             __CFG_CPD$OFF 0000                        fsr0 0004                        indf 0000  
         ADC_CONFIG@justif 0070               ___flmul@aexp 0042               ___flmul@bexp 0043  
             ___flmul@sign 003D               ___flmul@temp 0048               ___flmul@prod 0044  
             __CFG_LVP$OFF 0000               ___fltol@exp1 0054                       l2000 168C  
                     l2002 1693                       l2010 0200                       l2004 169A  
                     l2100 02F5                       l2020 0217                       l2012 0204  
                     l2110 0311                       l2102 02F9                       l2030 022D  
                     l2022 0218                       l2014 0205                       l2006 01F3  
                     l2200 163A                       l2120 033D                       l2112 0328  
                     l2104 0303                       l2040 023E                       l2032 022E  
                     l2016 020A                       l2024 021A                       l2008 01FA  
                     l2210 165B                       l2202 163C                       l2130 0368  
                     l2122 0341                       l2114 032C                       l2106 0308  
                     l2050 025C                       l2042 0243                       l2034 0234  
                     l2026 0222                       l2018 020F                       l2220 1602  
                     l2300 0853                       l2204 1643                       l2140 03D8  
                     l2132 03A8                       l2124 0342                       l2116 0330  
                     l2060 0270                       l2052 0260                       l2044 024B  
                     l2036 0238                       l2028 0227                       l2222 160A  
                     l2214 15F6                       l2230 15B9                       l2310 088D  
                     l2302 0860                       l2206 1647                       l2150 03F5  
                     l2142 03DD                       l2134 03AE                       l2126 034D  
                     l2118 033B                       l2070 0284                       l2062 0274  
                     l2054 0264                       l2046 024C                       l2038 0239  
                     l2224 160D                       l2216 15F9                       l2232 15BC  
                     l2320 08AD                       l2312 088E                       l2304 0864  
                     l2208 1656                       l2400 04DD                       l2152 03FA  
                     l2160 0406                       l2136 03B3                       l2128 0352  
                     l2080 0298                       l2072 0288                       l2064 0278  
                     l2056 0268                       l2048 024E                       l2240 172D  
                     l2218 15FF                       l2234 15C0                       l2226 15B0  
                     l2314 0897                       l2306 086D                       l2410 04F8  
                     l2402 04E5                       l2154 03FD                       l2146 03E6  
                     l2138 03C2                       l2162 040A                       l2090 02D8  
                     l2082 029C                       l2074 028C                       l2066 027C  
                     l2058 026C                       l2330 179A                       l2250 1746  
                     l2242 1732                       l2228 15B3                       l2308 087F  
                     l2316 089D                       l2500 07D8                       l2420 057A  
                     l2412 0508                       l2404 04EA                       l2180 0454  
                     l2172 041D                       l2164 040B                       l2156 03FF  
                     l2148 03F1                       l2092 02E3                       l2076 0290  
                     l2068 0280                       l2084 02A0                       l2340 17BE  
                     l2332 17AF                       l2324 1784                       l2252 174B  
                     l2244 1737                       l2260 175A                       l2236 1727  
                     l2318 08A2                       l2502 07E3                       l2430 05E8  
                     l2422 0596                       l2414 0515                       l2406 04EF  
                     l2190 0470                       l2182 045D                       l2174 0422  
                     l2166 040F                       l2158 0404                       l2094 02E5  
                     l2086 02A1                       l2078 0294                       l2334 17B0  
                     l2326 1791                       l2510 0A00                       l2254 1750  
                     l2246 173C                       l2262 1782                       l2238 1728  
                     l2270 0805                       l2600 0C9A                       l2440 0678  
                     l2432 05F8                       l2424 05B2                       l2416 0532  
                     l2192 0474                       l2184 0462                       l2176 0430  
                     l2168 0415                       l2096 02E9                       l2088 02B8  
                     l2360 1615                       l2336 17B8                       l2520 0A2E  
                     l2512 0A10                       l2256 1755                       l2248 1741  
                     l2280 0817                       l2272 0806                       l2610 0CBB  
                     l2602 0CA1                       l2290 0831                       l2450 070C  
                     l2442 0688                       l2434 0615                       l2426 05BB  
                     l2418 054E                       l2370 0498                       l2194 0476  
                     l2186 046A                       l2178 0434                       l2098 02EA  
                     l2362 1619                       l2354 17DF                       l2346 17C6  
                     l2338 17BA                       l2530 0A64                       l2522 0A3B  
                     l2514 0A20                       l2506 09F7                       l3074 1762  
                     l2274 080A                       l3076 0D42                       l2620 0CDB  
                     l2612 0CC1                       l2604 0CA7                       l2292 083C  
                     l2284 0819                       l2460 0731                       l2452 071A  
                     l2444 06B5                       l2436 062E                       l2428 05CB  
                     l2380 04AF                       l2372 049C                       l2196 0485  
                     l2188 046F                       l2356 17EF                       l2348 17D8  
                     l2540 0A9D                       l2532 0A6F                       l2524 0A42  
                     l2508 09FC                       l2276 080E                       l2700 09D0  
                     l3078 0D7A                       l2630 0CFC                       l2622 0CE2  
                     l2614 0CC8                       l2606 0CAE                       l2550 15DA  
                     l2294 0840                       l2286 081C                       l2470 0754  
                     l2454 0723                       l2462 0737                       l2446 06DB  
                     l2438 064B                       l2390 04C8                       l2382 04B1  
                     l2374 049D                       l2366 048B                       l2198 0489  
                     l2358 17F4                       l2542 0AA2                       l2534 0A73  
                     l2526 0A46                       l2518 0A29                       l2278 0810  
                     l2702 09D6                       l2640 0D1C                       l2632 0D02  
                     l2624 0CE8                       l2616 0CCE                       l2608 0CB4  
                     l2560 16E9                       l2552 15DF                       l2296 0848  
                     l2288 0820                       l2480 0773                       l2464 073B  
                     l2456 0727                       l2448 0703                       l2392 04C9  
                     l2384 04B9                       l2376 04A2                       l2368 0492  
                     l2544 0AA6                       l2536 0A7D                       l2528 0A54  
                     l2720 092D                       l2712 08B6                       l2704 09E8  
                     l2642 0D23                       l2634 0D09                       l2626 0CEF  
                     l2618 0CD5                       l2570 170D                       l2562 16EF  
                     l2554 15E7                       l2298 0850                       l2810 00B3  
                     l2802 0093                       l2490 07B9                       l2482 078C  
                     l2474 075C                       l2466 073C                       l2458 0728  
                     l2394 04CE                       l2386 04BE                       l2378 04A7  
                     l2546 0AA7                       l2538 0A87                       l2722 0938  
                     l2714 08CB                       l2706 09EC                       l2644 0D29  
                     l2636 0D0F                       l2628 0CF5                       l2652 0D3A  
                     l2572 1713                       l2564 16FD                       l2556 15ED  
                     l2580 16A1                       l2820 00D2                       l2812 00BB  
                     l2804 0098                       l2492 07C3                       l2476 0761  
                     l2484 0792                       l2468 0740                       l2396 04D3  
                     l2388 04C4                       l2740 0C05                       l2732 0B8A  
                     l2724 0948                       l2716 08D1                       l2708 09F2  
                     l2646 0D30                       l2638 0D16                       l2590 0C81  
                     l2574 1719                       l2566 1701                       l2558 16E0  
                     l2582 16BD                       l2670 0B12                       l2750 15C5  
                     l2830 0104                       l2822 00E4                       l2814 00C3  
                     l2494 07C5                       l2486 079F                       l2478 076F  
                     l2398 04DB                       l2742 0C58                       l2734 0B9F  
                     l2726 094C                       l2718 0929                       l2910 0D9F  
                     l2902 0D83                       l2648 0D36                       l2656 0D72  
                     l2592 0C84                       l2576 171F                       l2568 1707  
                     l2584 16C3                       l2680 0B7C                       l2672 0B6B  
                     l2752 15CB                       l2840 0125                       l2832 0105  
                     l2824 00E8                       l2816 00CB                       l2808 00A1  
                     l2760 0027                       l2496 07D3                       l2488 07AA  
                     l2744 0C6B                       l2736 0BA5                       l2728 0952  
                     l2920 0DCF                       l2912 0DAE                       l2904 0D8C  
                     l2594 0C89                       l2586 0C79                       l2578 169E  
                     l2682 0B7F                       l2674 0B6E                       l2666 0AB0  
                     l2850 013E                       l2842 0127                       l2834 0113  
                     l2826 00E9                       l2818 00CD                       l2770 003B  
                     l2762 0028                       l2754 0016                       l2498 07D7  
                     l2746 0C76                       l2738 0BF2                       l2930 0E2E  
                     l2922 0DD6                       l2914 0DB7                       l2906 0D93  
                     l2596 0C8D                       l2588 0C7D                       l2684 0B82  
                     l2676 0B77                       l2668 0B09                       l2860 0161  
                     l2844 0130                       l2852 0144                       l2828 00F2  
                     l2836 0117                       l2780 0054                       l2764 002D  
                     l2772 003D                       l2756 001D                       l2692 0956  
                     l2940 0E8E                       l2932 0E32                       l2924 0DDD  
                     l2916 0DBF                       l2908 0D9A                       l2598 0C94  
                     l1990 1665                       l2686 0B83                       l2678 0B7B  
                     l2870 0180                       l2854 0148                       l2846 0134  
                     l2838 011D                       l2790 0068                       l2782 0055  
                     l2774 0045                       l2766 0032                       l2758 0023  
                     l2694 096B                       l2950 0EB9                       l2942 0E91  
                     l2934 0E39                       l2926 0DE3                       l2918 0DC9  
                     l1992 1670                       l2688 0B86                       l2880 01C9  
                     l2872 0199                       l2864 0169                       l2856 0149  
                     l2848 0135                       l2784 005A                       l2792 006A  
                     l2776 004A                       l2768 003A                       l2696 0976  
                     l2960 0F02                       l2952 0EC5                       l2944 0E9B  
                     l2936 0E40                       l2928 0E2B                       l1994 1677  
                     l2890 01E2                       l2882 01CD                       l2866 016E  
                     l2874 019F                       l2858 014D                       l2794 007A  
                     l2786 005F                       l2778 0050                       l2698 09CC  
                     l2970 0F7F                       l2962 0F24                       l2954 0ECE  
                     l2946 0EA4                       l2938 0E46                       l1996 167E  
                     l1988 1661                       l2884 01D5                       l2876 01AC  
                     l2868 017C                       l2796 0086                       l2788 0067  
                     l2980 0FE2                       l2972 0F87                       l2964 0F46  
                     l2956 0ED6                       l2948 0EB0                       l1998 1685  
                     l2886 01DC                       l2878 01BA                       l2798 008A  
                     l2982 0FEA                       l2974 0FA9                       l2966 0F4F  
                     l2958 0EFA                       l2888 01E0                       l2984 0FF2  
                     l2976 0FCB                       l2968 0F5B                       l2978 0FD4  
                     STR_1 1010                       STR_2 1014                       STR_3 1018  
                     _BRGH 04C2                       _CREN 00C4                       u2000 02D8  
                     u2001 02D7                       u2010 02E9                       u2011 02E8  
                     u2110 0368                       u2030 02FF                       u2111 0367  
                     u2031 02FE                       u2200 0404                       u2040 0303  
                     u3000 0A41                       u2201 0403                       u2121 0381  
                     u2113 0364                       u2105 0346                       u2041 0302  
                     u2025 02EE                       u3001 0A40                       u2210 040A  
                     u2130 0395                       u2122 0382                       u2050 0308  
                     u2211 0409                       u2131 0396                       u2123 0387  
                     u2051 0307                       u3100 15DF                       u2300 0462  
                     u2220 040F                       u2140 03B3                       u2132 039B  
                     u2124 0388                       u3020 0A63                       u3101 15DE  
                     u2301 0461                       u2221 040E                       u2141 03B2  
                     u2133 039C                       u2125 038D                       u2061 031A  
                     u3021 0A62                       u3110 15ED                       u2310 046F  
                     u2230 0415                       u2150 03D8                       u2126 038E  
                     u2070 032C                       u2062 0321                       u3111 15EC  
                     u2311 046E                       u2231 0414                       u2151 03D7  
                     u2071 032B                       u2063 0328                       u3015 0A55  
                     u3120 16AB                       u2400 0831                       u3200 0B3B  
                     u2320 0474                       u2240 041C                       u2160 03DD  
                     u2080 0330                       u3040 0A73                       u2401 0830  
                     u2321 0473                       u2241 041B                       u2161 03DC  
                     u2081 032F                       u3041 0A72                       u3130 16CD  
                     u2410 0850                       u2330 0489                       u2250 0422  
                     u2090 0341                       u3050 0A79                       u2411 084F  
                     u3211 0B4D                       u2331 0488                       u2251 0421  
                     u2091 0340                       u3051 0A78                       u3035 0A68  
                     u3140 16DF                       u3220 0B77                       u3212 0B4E  
                     u3300 007A                       u2340 1647                       u2260 0434  
                     u2180 03F5                       u2500 17A8                       u3060 0A7D  
                     u3141 16DE                       u3221 0B76                       u3213 0B53  
                     u3205 0B36                       u3301 0079                       u2341 1646  
                     u2261 0433                       u2181 03F4                       u3061 0A7C  
                     u2430 0864                       u3214 0B54                       u3150 0AC0  
                     u3230 15CB                       u3310 0098                       u2270 0445  
                     u2190 03FA                       u2510 17BE                       u3070 0A92  
                     u2431 0863                       u3215 0B59                       u3231 15CA  
                     u3311 0097                       u2191 03F9                       u2175 03EA  
                     u2511 17BD                       u1800 1665                       u3216 0B5A  
                     u3160 0AD9                       u3320 00D2                       u3240 0027  
                     u2360 165B                       u2600 04A2                       u2280 0454  
                     u2520 17C5                       u3080 0AA2                       u1801 1664  
                     u2425 0855                       u3321 00D1                       u3241 0026  
                     u2361 165A                       u2601 04A1                       u2281 0453  
                     u2521 17C4                       u2505 17A3                       u3081 0AA1  
                     u1810 1670                       u2450 087F                       u3410 0134  
                     u3250 002D                       u2610 04A7                       u2290 045D  
                     u3090 0AA6                       u2370 080A                       u1811 166F  
                     u2451 087E                       u3171 0AEB                       u3155 0ABB  
                     u3411 0133                       u3251 002C                       u2355 164E  
                     u2611 04A6                       u2291 045C                       u2275 0440  
                     u3091 0AA5                       u3075 0A8D                       u2371 0809  
                     u1820 1677                       u3180 0B12                       u3172 0AEC  
                     u3500 01AC                       u3260 0032                       u2620 04C8  
                     u1900 020F                       u2540 17D7                       u2380 0817  
                     u1821 1676                       u2445 0866                       u3181 0B11  
                     u3173 0AF1                       u3165 0AD4                       u3501 01AB  
                     u3405 0129                       u3261 0031                       u2701 05A4  
                     u2621 04C7                       u1901 020E                       u2541 17D6  
                     u2381 0816                       u1830 167E                       u2470 089D  
                     u2390 0820                       u3190 0B22                       u3174 0AF2  
                     u3510 01C9                       u3430 0148                       u3350 00E8  
                     u3270 0054                       u2702 05AB                       u2630 04CE  
                     u1910 022D                       u2550 17DE                       u1831 167D  
                     u2471 089C                       u2455 087B                       u2391 081F  
                     u3175 0AF7                       u3511 01C8                       u3431 0147  
                     u3351 00E7                       u3335 00D4                       u3271 0053  
                     u2703 05B2                       u2631 04CD                       u1911 022C  
                     u2551 17DD                       u2535 17C7                       u1840 1685  
                     u2480 08A2                       u3176 0AF8                       u3520 01E0  
                     u3440 014D                       u3280 005A                       u2800 06E9  
                     u2640 04D3                       u1920 0238                       u1841 1684  
                     u2481 08A1                       u2465 088F                       u3521 01DF  
                     u3505 01A8                       u3441 014C                       u3425 0137  
                     u3345 00DD                       u3281 0059                       u2721 05DA  
                     u2641 04D2                       u1921 0237                       u1850 168C  
                     u3450 0161                       u3370 0104                       u3290 005F  
                     u2722 05E1                       u2650 04EA                       u1930 023E  
                     u2570 17EF                       u2490 1791                       u3530 0DB2  
                     u1851 168B                       u3195 0B1D                       u3515 01C5  
                     u3451 0160                       u3371 0103                       u3291 005E  
                     u2811 06F5                       u2731 0607                       u2723 05E8  
                     u2715 05B4                       u2651 04E9                       u1931 023D  
                     u2571 17EE                       u2491 1790                       u1860 1693  
                     u3460 0168                       u3380 011D                       u2900 0761  
                     u2812 06FC                       u2732 060E                       u2660 04EF  
                     u1940 0243                       u2580 17F4                       u3540 0DBB  
                     u1861 1692                       u3461 0167                       u3381 011C  
                     u3365 00EB                       u2901 0760                       u2813 0703  
                     u2805 06E4                       u2733 0615                       u2661 04EE  
                     u1941 0242                       u2581 17F3                       u2565 17E1  
                     u1870 169A                       u3470 016E                       u3390 0125  
                     u2910 0773                       u2590 049C                       u1950 025C  
                     u3550 0DDD                       u1871 1699                       u3471 016D  
                     u3391 0124                       u3375 0100                       u2911 0772  
                     u2751 063D                       u2671 0540                       u2591 049B  
                     u1951 025B                       u3607 0FF8                       u3551 0DDC  
                     u3480 0180                       u2920 0782                       u2840 0727  
                     u2752 0644                       u2672 0547                       u1960 0260  
                     u1880 0204                       u3560 0E40                       u3617 15D3  
                     u3481 017F                       u2841 0726                       u2825 0705  
                     u2761 066A                       u2753 064B                       u2745 0617  
                     u2681 055C                       u2673 054E                       u1961 025F  
                     u1881 0203                       u3561 0E3F                       u3490 018F  
                     u2930 079F                       u2762 0671                       u2682 0563  
                     u1970 02B8                       u1890 020A                       u3627 15BE  
                     u2931 079E                       u2835 071C                       u2771 0697  
                     u2763 0678                       u2691 0588                       u2683 056A  
                     u1971 02B7                       u1891 0209                       u2940 07B9  
                     u2860 073B                       u2780 06C1                       u2772 069E  
                     u2692 058F                       u1980 02C1                       u3637 16E4  
                     u2941 07B8                       u2925 077D                       u2861 073A  
                     u2773 06A5                       u2693 0596                       u1981 02BF  
                     u2950 07D7                       u2870 0740                       u1990 02C2  
                     u3647 16F3                       u3495 018A                       u2951 07D6  
                     u2935 079B                       u2871 073F                       u2855 072A  
                     u2791 06CD                       u1975 02B4                       u2880 0754  
                     u2792 06D4                       u2960 09FC                       u3657 16FF  
                     u2945 07B5                       u2881 0753                       u2793 06DB  
                     u2785 06BC                       u2961 09FB                       u3577 0DD3  
                     u2890 075B                       u2970 0A00                       u3667 1606  
                     u2891 075A                       u2971 09FF                       u3587 0E36  
                     u2980 0A20                       _RCIF 0065                       u3677 160F  
                     u2981 0A1F                       u3597 0FDC                       u2995 0A33  
                     _SPEN 00C7                       _TRMT 04C1                       _TXEN 04C5  
                     _SYNC 04C4               __CFG_WRT$OFF 0000                       _adc1 00BB  
                     _adc2 00BA          ?_Lcd_Write_String 0073                       _cont 006C  
                     _main 0D83                       btemp 007E                       start 0000  
       ??_Lcd_Write_String 0075              __CFG_IESO$OFF 0000            ___fldiv@new_exp 0032  
          __end_of_Lcd_Cmd 1615          ___bmul@multiplier 0073              ___fltol@sign1 0053  
          __end_of___aldiv 08B6            __end_of___fladd 048B                      ?_main 0070  
          __end_of___fldiv 01F3              __CFG_WDTE$OFF 0000            __end_of___flmul 07EC  
          __end_of___flsub 1639            __end_of___fltol 1800                      _ANSEL 0188  
                    _RCREG 001A                      _SPBRG 0099    __size_of_Lcd_Set_Cursor 001C  
                    _TRISA 0085                      _TRISB 0086                      _TRISC 0087  
                    _TXREG 0019             __CFG_FCMEN$OFF 0000                      _adc11 00B6  
                    _adc22 00B2                ?_UART_Write 0070         __size_of_UART_Init 00DA  
                    _contm 00AE             __CFG_BOREN$OFF 0000                      pclath 000A  
                    status 0003                      wtemp0 007E           __end_of_Lcd_Init 1726  
         __end_of_Lcd_Port 169E             __CFG_MCLRE$OFF 0000            __initialization 07EC  
             __end_of_main 1000                     ??_main 0067               ??_ADC_CONFIG 0071  
                   _ADRESH 001E                     _ADRESL 009E                     _ANSELH 0189  
                ??_Lcd_Cmd 0071    __size_of_Lcd_Write_Char 0015                     _TRISC6 043E  
                   _TRISC7 043F           __end_of___xxtofl 0AB0             __CFG_PWRTE$OFF 0000  
        __end_of_UART_Init 0B8A                     ___bmul 0804        __size_of_UART_Write 0015  
                ??___aldiv 0078                  ??___fladd 0020         __end_of_ADC_CONFIG 0D83  
                ??___fldiv 0028                  ??___flmul 0038                  ??___flsub 007E  
                ??___fltol 004E           __end_of_int_strc 0C78           __end_of_int_strd 0956  
         __end_of_int_stre 09F6                     main@s1 00C0                     main@s2 00C5  
                   main@s3 00BC           __end_of_num_case 1784         __size_of__Umul8_16 0027  
          Lcd_Set_Cursor@a 0075            Lcd_Set_Cursor@b 0074               ___xxtofl@arg 007A  
             ___xxtofl@exp 0079               ___xxtofl@val 0070    __end_of__initialization 07FC  
               ___fltol@f1 004A        ___bmul@multiplicand 0070             __pcstackCOMMON 0070  
             __pidataBANK0 000D             _Lcd_Set_Cursor 15D9                  ?_Lcd_Init 0070  
                ?_Lcd_Port 0070                 __pbssBANK0 006B                 __pbssBANK1 00A0  
        __end_of__Umul8_16 1660                 __pmaintext 0D83                    ?___bmul 0070  
__size_of_Lcd_Write_String 0042     __end_of_Lcd_Set_Cursor 15F5                  ?___xxtofl 0070  
             ??_UART_Write 0070                 ??_Lcd_Init 0074                 ??_Lcd_Port 0070  
               __stringtab 1000             _Lcd_Write_Char 15AF                    _Lcd_Cmd 15F5  
                ?_int_strc 0055                  ?_int_strd 0055                  ?_int_stre 0055  
                ?_num_case 0070                    ___aldiv 0819            __size_of___bmul 0015  
                  ___fladd 01F3                    ___fldiv 0016                    ___flmul 048B  
                  ___flsub 1615                    ___fltol 1784         __end_of_UART_Write 15D9  
                _ANSELbits 0188            ?_Lcd_Set_Cursor 0074                    __ptext1 0956  
                  __ptext2 08B6                    __ptext3 0804                    __ptext4 0B8A  
                  __ptext5 1726                    __ptext6 09F6                    __ptext7 1784  
                  __ptext8 1615                    __ptext9 01F3                    _entrada 006B  
               ??___xxtofl 0074           ___aldiv@dividend 0074                    clrloop0 000F  
   __end_of_Lcd_Write_Char 15C4       end_of_initialization 07FC                num_case@num 0072  
               ??_int_strc 0059                 ??_int_strd 0059                 ??_int_stre 0059  
               ??_num_case 0070           ___aldiv@quotient 0022                  Lcd_Port@a 0070  
                _UART_Init 0AB0             UART_Write@data 0072                ___fladd@grs 007B  
            ___xxtofl@sign 0078                  _TRISAbits 0085                  _TRISBbits 0086  
                _TRISEbits 0089                ___fldiv@grs 0034                ___fldiv@rem 002D  
          ?_Lcd_Write_Char 0070          Lcd_Write_String@a 0073          Lcd_Write_String@i 0078  
              ___flmul@grs 003E             __end_of___bmul 0819           _Lcd_Write_String 169E  
               ?_UART_Init 0026               int_strc@loca 0063               int_strd@loca 0064  
             int_stre@loca 0064        start_initialization 07EC          __size_of_Lcd_Init 0046  
        __size_of_Lcd_Port 003E   __CFG_FOSC$INTRC_NOCLKOUT 0000                   ??___bmul 0071  
                __Umul8_16 1639                __pdataBANK0 006C            Lcd_Write_Char@a 0072  
                ___fladd@a 0074                  ___fladd@b 0070                  ___fldiv@a 0020  
                ___fldiv@b 0024                  ___flmul@a 0034                  ___flmul@b 0030  
                ___flsub@a 0028                  ___flsub@b 002C                  ___latbits 0002  
            __pcstackBANK0 0020              __pcstackBANK1 00BC                 int_strc@c3 0060  
               int_strd@c2 0061                 int_stre@c1 0061          __size_of___xxtofl 00BA  
                 ?_Lcd_Cmd 0070          __size_of_int_strc 00EE          __size_of_int_strd 00A0  
        __size_of_int_stre 00A0           ??_Lcd_Set_Cursor 0075                   ?___aldiv 0070  
                 ?___fladd 0070                   ?___fldiv 0020                   ?___flmul 0030  
                 ?___flsub 0028                   ?___fltol 004A                 ?__Umul8_16 0070  
        __size_of_num_case 005E                ??_UART_Init 002A                  __pstrings 1000  
               UART_Init@x 0079            ___aldiv@divisor 0070            ___aldiv@counter 0020  
                clear_ram0 000E                   _PIE1bits 008C                   Lcd_Cmd@a 0073  
                 _PIR1bits 000C                  main@F1530 00AA                  main@F1526 00A5  
                main@F1528 00A0          UART_Init@baudrate 0026                 _ADCON0bits 001F  
              __stringbase 100F                 _ADCON1bits 009F           ??_Lcd_Write_Char 0071  
               _ADC_CONFIG 0C78                   _Lcd_Init 16E0                   _Lcd_Port 1660  
 __end_of_Lcd_Write_String 16E0           __size_of_Lcd_Cmd 0020                ??__Umul8_16 0072  
         __size_of___aldiv 009D           __size_of___fladd 0298           __size_of___fldiv 01DD  
         __size_of___flmul 0361           __size_of___flsub 0024           __size_of___fltol 007C  
       __end_of__stringtab 1010                  int_strc@c 005F                  int_strc@d 0062  
                int_strc@e 0061                  int_strd@c 0060                  int_strd@d 0063  
                int_strd@e 0062                  int_stre@c 0060                  int_stre@d 0063  
                int_stre@e 0062                  int_strc@n 0055                  int_strd@n 0055  
                int_stre@n 0055                 _ANSELHbits 0189                   ___xxtofl 09F6  
                 __ptext10 048B                   __ptext11 1639                   __ptext20 15F5  
                 __ptext12 0016                   __ptext21 1660                   __ptext13 15C4  
                 __ptext22 0C78                   __ptext14 0AB0                   __ptext15 0819  
                 __ptext16 169E                   __ptext17 15AF                   __ptext18 15D9  
                 __ptext19 16E0          __CFG_BOR4V$BOR40V 0000              __size_of_main 027D  
                 _int_strc 0B8A                   _int_strd 08B6                   _int_stre 0956  
                num_case@r 0073                   _num_case 1726                 _INTCONbits 000B  
              ?_ADC_CONFIG 0070                  stringcode 100A     __Umul8_16@multiplicand 0070  
                 stringdir 100A                   stringtab 1000               ___aldiv@sign 0021  
               _UART_Write 15C4              ___fladd@signs 0078               ___fladd@aexp 0079  
             ___fladd@bexp 007A       __Umul8_16@multiplier 0078          __Umul8_16@product 0074  
