

Microchip MPLAB XC8 Assembler V2.10 build 88905656 
                                                                                               Sat Feb 08 19:38:42 2020

Microchip MPLAB XC8 C Compiler v2.10 (Free license) build 20190730164152 Og1 
     1                           	processor	16F887
     2                           	opt	pw 120
     3                           	opt	flic
     4                           	psect	strings,global,class=STRING,delta=2
     5                           	psect	cinit,global,class=CODE,merge=1,delta=2
     6                           	psect	bssBANK0,global,class=BANK0,space=1,delta=1
     7                           	psect	bssBANK1,global,class=BANK1,space=1,delta=1
     8                           	psect	clrtext,global,class=CODE,delta=2
     9                           	psect	cstackBANK1,global,class=BANK1,space=1,delta=1
    10                           	psect	cstackCOMMON,global,class=COMMON,space=1,delta=1
    11                           	psect	cstackBANK0,global,class=BANK0,space=1,delta=1
    12                           	psect	maintext,global,class=CODE,split=1,delta=2
    13                           	psect	text1,local,class=CODE,merge=1,delta=2
    14                           	psect	text2,local,class=CODE,merge=1,delta=2
    15                           	psect	text3,local,class=CODE,merge=1,delta=2,group=1
    16                           	psect	text4,local,class=CODE,merge=1,delta=2
    17                           	psect	text5,local,class=CODE,merge=1,delta=2
    18                           	psect	text6,local,class=CODE,merge=1,delta=2,group=1
    19                           	psect	text7,local,class=CODE,merge=1,delta=2,group=1
    20                           	psect	text8,local,class=CODE,merge=1,delta=2,group=1
    21                           	psect	text9,local,class=CODE,merge=1,delta=2,group=1
    22                           	psect	text10,local,class=CODE,merge=1,delta=2,group=1
    23                           	psect	text11,local,class=CODE,merge=1,delta=2,group=1
    24                           	psect	text12,local,class=CODE,merge=1,delta=2,group=1
    25                           	psect	text13,local,class=CODE,merge=1,delta=2
    26                           	psect	text14,local,class=CODE,merge=1,delta=2
    27                           	psect	text15,local,class=CODE,merge=1,delta=2,group=1
    28                           	psect	text16,local,class=CODE,merge=1,delta=2
    29                           	psect	text17,local,class=CODE,merge=1,delta=2
    30                           	psect	text18,local,class=CODE,merge=1,delta=2
    31                           	psect	text19,local,class=CODE,merge=1,delta=2
    32                           	psect	text20,local,class=CODE,merge=1,delta=2
    33                           	psect	text21,local,class=CODE,merge=1,delta=2
    34                           	psect	text22,local,class=CODE,merge=1,delta=2
    35                           	dabs	1,0x7E,2
    36  0000                     
    37                           ; Version 2.10
    38                           ; Generated 31/07/2019 GMT
    39                           ; 
    40                           ; Copyright © 2019, Microchip Technology Inc. and its subsidiaries ("Microchip")
    41                           ; All rights reserved.
    42                           ; 
    43                           ; This software is developed by Microchip Technology Inc. and its subsidiaries ("Microch
      +                          ip").
    44                           ; 
    45                           ; Redistribution and use in source and binary forms, with or without modification, are
    46                           ; permitted provided that the following conditions are met:
    47                           ; 
    48                           ;     1. Redistributions of source code must retain the above copyright notice, this lis
      +                          t of
    49                           ;        conditions and the following disclaimer.
    50                           ; 
    51                           ;     2. Redistributions in binary form must reproduce the above copyright notice, this 
      +                          list
    52                           ;        of conditions and the following disclaimer in the documentation and/or other
    53                           ;        materials provided with the distribution.
    54                           ; 
    55                           ;     3. Microchip's name may not be used to endorse or promote products derived from th
      +                          is
    56                           ;        software without specific prior written permission.
    57                           ; 
    58                           ; THIS SOFTWARE IS PROVIDED BY MICROCHIP "AS IS" AND ANY EXPRESS OR IMPLIED WARRANTIES,
    59                           ; INCLUDING, BUT NOT LIMITED TO, THE IMPLIED WARRANTIES OF MERCHANTABILITY AND FITNESS F
      +                          OR
    60                           ; PURPOSE ARE DISCLAIMED.  IN NO EVENT SHALL MICROCHIP BE LIABLE FOR ANY DIRECT, INDIREC
      +                          T,
    61                           ; INCIDENTAL, SPECIAL, EXEMPLARY, OR CONSEQUENTIAL DAMAGES (INCLUDING BUT NOT LIMITED TO
    62                           ; PROCUREMENT OF SUBSTITUTE GOODS OR SERVICES; LOSS OF USE, DATA OR PROFITS; OR BUSINESS
    63                           ; INTERRUPTION) HOWSOEVER CAUSED AND ON ANY THEORY OF LIABILITY, WHETHER IN CONTRACT, ST
      +                          RICT
    64                           ; LIABILITY, OR TORT (INCLUDING NEGLIGENCE OR OTHERWISE) ARISING IN ANY WAY OUT OF THE U
      +                          SE OF
    65                           ; THIS SOFTWARE, EVEN IF ADVISED OF THE POSSIBILITY OF SUCH DAMAGE.
    66                           ; 
    67                           ; 
    68                           ; Code-generator required, PIC16F887 Definitions
    69                           ; 
    70                           ; SFR Addresses
    71  0000                     	;# 
    72  0001                     	;# 
    73  0002                     	;# 
    74  0003                     	;# 
    75  0004                     	;# 
    76  0005                     	;# 
    77  0006                     	;# 
    78  0007                     	;# 
    79  0008                     	;# 
    80  0009                     	;# 
    81  000A                     	;# 
    82  000B                     	;# 
    83  000C                     	;# 
    84  000D                     	;# 
    85  000E                     	;# 
    86  000E                     	;# 
    87  000F                     	;# 
    88  0010                     	;# 
    89  0011                     	;# 
    90  0012                     	;# 
    91  0013                     	;# 
    92  0014                     	;# 
    93  0015                     	;# 
    94  0015                     	;# 
    95  0016                     	;# 
    96  0017                     	;# 
    97  0018                     	;# 
    98  0019                     	;# 
    99  001A                     	;# 
   100  001B                     	;# 
   101  001B                     	;# 
   102  001C                     	;# 
   103  001D                     	;# 
   104  001E                     	;# 
   105  001F                     	;# 
   106  0081                     	;# 
   107  0085                     	;# 
   108  0086                     	;# 
   109  0087                     	;# 
   110  0088                     	;# 
   111  0089                     	;# 
   112  008C                     	;# 
   113  008D                     	;# 
   114  008E                     	;# 
   115  008F                     	;# 
   116  0090                     	;# 
   117  0091                     	;# 
   118  0092                     	;# 
   119  0093                     	;# 
   120  0093                     	;# 
   121  0093                     	;# 
   122  0094                     	;# 
   123  0095                     	;# 
   124  0096                     	;# 
   125  0097                     	;# 
   126  0098                     	;# 
   127  0099                     	;# 
   128  009A                     	;# 
   129  009B                     	;# 
   130  009C                     	;# 
   131  009D                     	;# 
   132  009E                     	;# 
   133  009F                     	;# 
   134  0105                     	;# 
   135  0107                     	;# 
   136  0108                     	;# 
   137  0109                     	;# 
   138  010C                     	;# 
   139  010C                     	;# 
   140  010D                     	;# 
   141  010E                     	;# 
   142  010F                     	;# 
   143  0185                     	;# 
   144  0187                     	;# 
   145  0188                     	;# 
   146  0189                     	;# 
   147  018C                     	;# 
   148  018D                     	;# 
   149  0000                     	;# 
   150  0001                     	;# 
   151  0002                     	;# 
   152  0003                     	;# 
   153  0004                     	;# 
   154  0005                     	;# 
   155  0006                     	;# 
   156  0007                     	;# 
   157  0008                     	;# 
   158  0009                     	;# 
   159  000A                     	;# 
   160  000B                     	;# 
   161  000C                     	;# 
   162  000D                     	;# 
   163  000E                     	;# 
   164  000E                     	;# 
   165  000F                     	;# 
   166  0010                     	;# 
   167  0011                     	;# 
   168  0012                     	;# 
   169  0013                     	;# 
   170  0014                     	;# 
   171  0015                     	;# 
   172  0015                     	;# 
   173  0016                     	;# 
   174  0017                     	;# 
   175  0018                     	;# 
   176  0019                     	;# 
   177  001A                     	;# 
   178  001B                     	;# 
   179  001B                     	;# 
   180  001C                     	;# 
   181  001D                     	;# 
   182  001E                     	;# 
   183  001F                     	;# 
   184  0081                     	;# 
   185  0085                     	;# 
   186  0086                     	;# 
   187  0087                     	;# 
   188  0088                     	;# 
   189  0089                     	;# 
   190  008C                     	;# 
   191  008D                     	;# 
   192  008E                     	;# 
   193  008F                     	;# 
   194  0090                     	;# 
   195  0091                     	;# 
   196  0092                     	;# 
   197  0093                     	;# 
   198  0093                     	;# 
   199  0093                     	;# 
   200  0094                     	;# 
   201  0095                     	;# 
   202  0096                     	;# 
   203  0097                     	;# 
   204  0098                     	;# 
   205  0099                     	;# 
   206  009A                     	;# 
   207  009B                     	;# 
   208  009C                     	;# 
   209  009D                     	;# 
   210  009E                     	;# 
   211  009F                     	;# 
   212  0105                     	;# 
   213  0107                     	;# 
   214  0108                     	;# 
   215  0109                     	;# 
   216  010C                     	;# 
   217  010C                     	;# 
   218  010D                     	;# 
   219  010E                     	;# 
   220  010F                     	;# 
   221  0185                     	;# 
   222  0187                     	;# 
   223  0188                     	;# 
   224  0189                     	;# 
   225  018C                     	;# 
   226  018D                     	;# 
   227  0000                     	;# 
   228  0001                     	;# 
   229  0002                     	;# 
   230  0003                     	;# 
   231  0004                     	;# 
   232  0005                     	;# 
   233  0006                     	;# 
   234  0007                     	;# 
   235  0008                     	;# 
   236  0009                     	;# 
   237  000A                     	;# 
   238  000B                     	;# 
   239  000C                     	;# 
   240  000D                     	;# 
   241  000E                     	;# 
   242  000E                     	;# 
   243  000F                     	;# 
   244  0010                     	;# 
   245  0011                     	;# 
   246  0012                     	;# 
   247  0013                     	;# 
   248  0014                     	;# 
   249  0015                     	;# 
   250  0015                     	;# 
   251  0016                     	;# 
   252  0017                     	;# 
   253  0018                     	;# 
   254  0019                     	;# 
   255  001A                     	;# 
   256  001B                     	;# 
   257  001B                     	;# 
   258  001C                     	;# 
   259  001D                     	;# 
   260  001E                     	;# 
   261  001F                     	;# 
   262  0081                     	;# 
   263  0085                     	;# 
   264  0086                     	;# 
   265  0087                     	;# 
   266  0088                     	;# 
   267  0089                     	;# 
   268  008C                     	;# 
   269  008D                     	;# 
   270  008E                     	;# 
   271  008F                     	;# 
   272  0090                     	;# 
   273  0091                     	;# 
   274  0092                     	;# 
   275  0093                     	;# 
   276  0093                     	;# 
   277  0093                     	;# 
   278  0094                     	;# 
   279  0095                     	;# 
   280  0096                     	;# 
   281  0097                     	;# 
   282  0098                     	;# 
   283  0099                     	;# 
   284  009A                     	;# 
   285  009B                     	;# 
   286  009C                     	;# 
   287  009D                     	;# 
   288  009E                     	;# 
   289  009F                     	;# 
   290  0105                     	;# 
   291  0107                     	;# 
   292  0108                     	;# 
   293  0109                     	;# 
   294  010C                     	;# 
   295  010C                     	;# 
   296  010D                     	;# 
   297  010E                     	;# 
   298  010F                     	;# 
   299  0185                     	;# 
   300  0187                     	;# 
   301  0188                     	;# 
   302  0189                     	;# 
   303  018C                     	;# 
   304  018D                     	;# 
   305  0000                     	;# 
   306  0001                     	;# 
   307  0002                     	;# 
   308  0003                     	;# 
   309  0004                     	;# 
   310  0005                     	;# 
   311  0006                     	;# 
   312  0007                     	;# 
   313  0008                     	;# 
   314  0009                     	;# 
   315  000A                     	;# 
   316  000B                     	;# 
   317  000C                     	;# 
   318  000D                     	;# 
   319  000E                     	;# 
   320  000E                     	;# 
   321  000F                     	;# 
   322  0010                     	;# 
   323  0011                     	;# 
   324  0012                     	;# 
   325  0013                     	;# 
   326  0014                     	;# 
   327  0015                     	;# 
   328  0015                     	;# 
   329  0016                     	;# 
   330  0017                     	;# 
   331  0018                     	;# 
   332  0019                     	;# 
   333  001A                     	;# 
   334  001B                     	;# 
   335  001B                     	;# 
   336  001C                     	;# 
   337  001D                     	;# 
   338  001E                     	;# 
   339  001F                     	;# 
   340  0081                     	;# 
   341  0085                     	;# 
   342  0086                     	;# 
   343  0087                     	;# 
   344  0088                     	;# 
   345  0089                     	;# 
   346  008C                     	;# 
   347  008D                     	;# 
   348  008E                     	;# 
   349  008F                     	;# 
   350  0090                     	;# 
   351  0091                     	;# 
   352  0092                     	;# 
   353  0093                     	;# 
   354  0093                     	;# 
   355  0093                     	;# 
   356  0094                     	;# 
   357  0095                     	;# 
   358  0096                     	;# 
   359  0097                     	;# 
   360  0098                     	;# 
   361  0099                     	;# 
   362  009A                     	;# 
   363  009B                     	;# 
   364  009C                     	;# 
   365  009D                     	;# 
   366  009E                     	;# 
   367  009F                     	;# 
   368  0105                     	;# 
   369  0107                     	;# 
   370  0108                     	;# 
   371  0109                     	;# 
   372  010C                     	;# 
   373  010C                     	;# 
   374  010D                     	;# 
   375  010E                     	;# 
   376  010F                     	;# 
   377  0185                     	;# 
   378  0187                     	;# 
   379  0188                     	;# 
   380  0189                     	;# 
   381  018C                     	;# 
   382  018D                     	;# 
   383  0000                     	;# 
   384  0001                     	;# 
   385  0002                     	;# 
   386  0003                     	;# 
   387  0004                     	;# 
   388  0005                     	;# 
   389  0006                     	;# 
   390  0007                     	;# 
   391  0008                     	;# 
   392  0009                     	;# 
   393  000A                     	;# 
   394  000B                     	;# 
   395  000C                     	;# 
   396  000D                     	;# 
   397  000E                     	;# 
   398  000E                     	;# 
   399  000F                     	;# 
   400  0010                     	;# 
   401  0011                     	;# 
   402  0012                     	;# 
   403  0013                     	;# 
   404  0014                     	;# 
   405  0015                     	;# 
   406  0015                     	;# 
   407  0016                     	;# 
   408  0017                     	;# 
   409  0018                     	;# 
   410  0019                     	;# 
   411  001A                     	;# 
   412  001B                     	;# 
   413  001B                     	;# 
   414  001C                     	;# 
   415  001D                     	;# 
   416  001E                     	;# 
   417  001F                     	;# 
   418  0081                     	;# 
   419  0085                     	;# 
   420  0086                     	;# 
   421  0087                     	;# 
   422  0088                     	;# 
   423  0089                     	;# 
   424  008C                     	;# 
   425  008D                     	;# 
   426  008E                     	;# 
   427  008F                     	;# 
   428  0090                     	;# 
   429  0091                     	;# 
   430  0092                     	;# 
   431  0093                     	;# 
   432  0093                     	;# 
   433  0093                     	;# 
   434  0094                     	;# 
   435  0095                     	;# 
   436  0096                     	;# 
   437  0097                     	;# 
   438  0098                     	;# 
   439  0099                     	;# 
   440  009A                     	;# 
   441  009B                     	;# 
   442  009C                     	;# 
   443  009D                     	;# 
   444  009E                     	;# 
   445  009F                     	;# 
   446  0105                     	;# 
   447  0107                     	;# 
   448  0108                     	;# 
   449  0109                     	;# 
   450  010C                     	;# 
   451  010C                     	;# 
   452  010D                     	;# 
   453  010E                     	;# 
   454  010F                     	;# 
   455  0185                     	;# 
   456  0187                     	;# 
   457  0188                     	;# 
   458  0189                     	;# 
   459  018C                     	;# 
   460  018D                     	;# 
   461  0019                     _TXREG	set	25
   462  001E                     _ADRESH	set	30
   463  000B                     _INTCONbits	set	11
   464  000C                     _PIR1bits	set	12
   465  001F                     _ADCON0bits	set	31
   466  00C4                     _CREN	set	196
   467  00C7                     _SPEN	set	199
   468  0038                     _RC0	set	56
   469  0039                     _RC1	set	57
   470  002F                     _RA7	set	47
   471  002E                     _RA6	set	46
   472  002D                     _RA5	set	45
   473  002C                     _RA4	set	44
   474  002B                     _RA3	set	43
   475  002A                     _RA2	set	42
   476  0029                     _RA1	set	41
   477  0028                     _RA0	set	40
   478  0099                     _SPBRG	set	153
   479  0087                     _TRISC	set	135
   480  0086                     _TRISB	set	134
   481  0085                     _TRISA	set	133
   482  009E                     _ADRESL	set	158
   483  008C                     _PIE1bits	set	140
   484  0086                     _TRISBbits	set	134
   485  0089                     _TRISEbits	set	137
   486  0085                     _TRISAbits	set	133
   487  009F                     _ADCON1bits	set	159
   488  04C1                     _TRMT	set	1217
   489  04C5                     _TXEN	set	1221
   490  043E                     _TRISC6	set	1086
   491  043F                     _TRISC7	set	1087
   492  04C4                     _SYNC	set	1220
   493  04C2                     _BRGH	set	1218
   494  0188                     _ANSEL	set	392
   495  0189                     _ANSELH	set	393
   496  0189                     _ANSELHbits	set	393
   497  0188                     _ANSELbits	set	392
   498                           
   499                           	psect	strings
   500  1000                     __pstrings:	
   501  1000                     stringtab:	
   502  1000                     __stringtab:	
   503                           
   504                           ;	String table - string pointers are 1 byte each
   505  1000  1BFF               	btfsc	btemp+1,7
   506  1001  280A               	ljmp	stringcode
   507  1002  1383               	bcf	3,7
   508  1003  187F               	btfsc	btemp+1,0
   509  1004  1783               	bsf	3,7
   510  1005  0800               	movf	0,w
   511  1006  0A84               	incf	4,f
   512  1007  1903               	skipnz
   513  1008  0AFF               	incf	btemp+1,f
   514  1009  0008               	return
   515  100A                     stringcode:	
   516  100A                     stringdir:	
   517  100A  3010               	movlw	high stringdir
   518  100B  008A               	movwf	10
   519  100C  0804               	movf	4,w
   520  100D  0A84               	incf	4,f
   521  100E  0782               	addwf	2,f
   522  100F                     __stringbase:	
   523  100F  3400               	retlw	0
   524  1010                     __end_of__stringtab:	
   525  1010                     STR_1:	
   526  1010  3450               	retlw	80	;'P'
   527  1011  3431               	retlw	49	;'1'
   528  1012  343A               	retlw	58	;':'
   529  1013  3400               	retlw	0
   530  1014                     STR_2:	
   531  1014  3450               	retlw	80	;'P'
   532  1015  3432               	retlw	50	;'2'
   533  1016  343A               	retlw	58	;':'
   534  1017  3400               	retlw	0
   535  1018                     STR_3:	
   536  1018  3450               	retlw	80	;'P'
   537  1019  3433               	retlw	51	;'3'
   538  101A  343A               	retlw	58	;':'
   539  101B  3400               	retlw	0
   540                           
   541                           ; #config settings
   542  0000                     
   543                           	psect	cinit
   544  07EF                     start_initialization:	
   545  07EF                     __initialization:	
   546                           
   547                           ; Clear objects allocated to BANK0
   548  07EF  1283               	bcf	3,5	;RP0=0, select bank0
   549  07F0  1303               	bcf	3,6	;RP1=0, select bank0
   550  07F1  01EB               	clrf	__pbssBANK0& (0+127)
   551  07F2  01EC               	clrf	(__pbssBANK0+1)& (0+127)
   552                           
   553                           ; Clear objects allocated to BANK1
   554  07F3  1383               	bcf	3,7	;select IRP bank0
   555  07F4  30A0               	movlw	low __pbssBANK1
   556  07F5  0084               	movwf	4
   557  07F6  30B4               	movlw	low (__pbssBANK1+20)
   558  07F7  120A  158A  2008  120A  118A  	fcall	clear_ram0
   559  07FC                     end_of_initialization:	
   560                           ;End of C runtime variable initialization code
   561                           
   562  07FC                     __end_of__initialization:	
   563  07FC  0183               	clrf	3
   564  07FD  120A  158A  2D7A   	ljmp	_main	;jump to C main() function
   565                           
   566                           	psect	bssBANK0
   567  006B                     __pbssBANK0:	
   568  006B                     _ctrl2:	
   569  006B                     	ds	1
   570  006C                     _ctrl:	
   571  006C                     	ds	1
   572                           
   573                           	psect	bssBANK1
   574  00A0                     __pbssBANK1:	
   575  00A0                     main@F1516:	
   576  00A0                     	ds	5
   577  00A5                     main@F1514:	
   578  00A5                     	ds	5
   579  00AA                     _adc22:	
   580  00AA                     	ds	4
   581  00AE                     _adc11:	
   582  00AE                     	ds	4
   583  00B2                     _adc2:	
   584  00B2                     	ds	1
   585  00B3                     _adc1:	
   586  00B3                     	ds	1
   587                           
   588                           	psect	clrtext
   589  0808                     clear_ram0:	
   590                           ;	Called with FSR containing the base address, and
   591                           ;	W with the last address+1
   592                           
   593  0808  0064               	clrwdt	;clear the watchdog before getting into this loop
   594  0809                     clrloop0:	
   595  0809  0180               	clrf	0	;clear RAM location pointed to by FSR
   596  080A  0A84               	incf	4,f	;increment pointer
   597  080B  0604               	xorwf	4,w	;XOR with final address
   598  080C  1903               	btfsc	3,2	;have we reached the end yet?
   599  080D  3400               	retlw	0	;all done for this memory range, return
   600  080E  0604               	xorwf	4,w	;XOR again to restore value
   601  080F  2809               	goto	clrloop0	;do the next byte
   602                           
   603                           	psect	cstackBANK1
   604  00B4                     __pcstackBANK1:	
   605  00B4                     main@s1:	
   606                           
   607                           ; 5 bytes @ 0x0
   608  00B4                     	ds	5
   609  00B9                     main@s2:	
   610                           
   611                           ; 5 bytes @ 0x5
   612  00B9                     	ds	5
   613                           
   614                           	psect	cstackCOMMON
   615  0070                     __pcstackCOMMON:	
   616  0070                     ?_UART_Write:	
   617  0070                     ??_UART_Write:	
   618                           ; 1 bytes @ 0x0
   619                           
   620  0070                     ?_num_case:	
   621                           ; 1 bytes @ 0x0
   622                           
   623  0070                     ??_num_case:	
   624                           ; 1 bytes @ 0x0
   625                           
   626  0070                     ?_Lcd_Port:	
   627                           ; 1 bytes @ 0x0
   628                           
   629  0070                     ??_Lcd_Port:	
   630                           ; 1 bytes @ 0x0
   631                           
   632  0070                     ?_Lcd_Cmd:	
   633                           ; 1 bytes @ 0x0
   634                           
   635  0070                     ?_Lcd_Init:	
   636                           ; 1 bytes @ 0x0
   637                           
   638  0070                     ?_Lcd_Write_Char:	
   639                           ; 1 bytes @ 0x0
   640                           
   641  0070                     ?_ADC_CONFIG:	
   642                           ; 1 bytes @ 0x0
   643                           
   644  0070                     ?_main:	
   645                           ; 1 bytes @ 0x0
   646                           
   647  0070                     ?___bmul:	
   648                           ; 1 bytes @ 0x0
   649                           
   650  0070                     ?__Umul8_16:	
   651                           ; 1 bytes @ 0x0
   652                           
   653  0070                     ?___aldiv:	
   654                           ; 2 bytes @ 0x0
   655                           
   656  0070                     ?___fladd:	
   657                           ; 4 bytes @ 0x0
   658                           
   659  0070                     ?___xxtofl:	
   660                           ; 4 bytes @ 0x0
   661                           
   662  0070                     Lcd_Port@a:	
   663                           ; 4 bytes @ 0x0
   664                           
   665  0070                     ADC_CONFIG@justif:	
   666                           ; 1 bytes @ 0x0
   667                           
   668  0070                     ___bmul@multiplicand:	
   669                           ; 1 bytes @ 0x0
   670                           
   671  0070                     __Umul8_16@multiplicand:	
   672                           ; 1 bytes @ 0x0
   673                           
   674  0070                     ___aldiv@divisor:	
   675                           ; 1 bytes @ 0x0
   676                           
   677  0070                     ___fladd@b:	
   678                           ; 4 bytes @ 0x0
   679                           
   680  0070                     ___xxtofl@val:	
   681                           ; 4 bytes @ 0x0
   682                           
   683                           
   684                           ; 4 bytes @ 0x0
   685  0070                     	ds	1
   686  0071                     ??_Lcd_Cmd:	
   687  0071                     ??_Lcd_Write_Char:	
   688                           ; 1 bytes @ 0x1
   689                           
   690  0071                     ??_ADC_CONFIG:	
   691                           ; 1 bytes @ 0x1
   692                           
   693  0071                     ??___bmul:	
   694                           ; 1 bytes @ 0x1
   695                           
   696                           
   697                           ; 1 bytes @ 0x1
   698  0071                     	ds	1
   699  0072                     ??__Umul8_16:	
   700  0072                     Lcd_Write_Char@a:	
   701                           ; 1 bytes @ 0x2
   702                           
   703  0072                     num_case@num:	
   704                           ; 1 bytes @ 0x2
   705                           
   706  0072                     UART_Write@data:	
   707                           ; 1 bytes @ 0x2
   708                           
   709  0072                     ___bmul@product:	
   710                           ; 1 bytes @ 0x2
   711                           
   712                           
   713                           ; 1 bytes @ 0x2
   714  0072                     	ds	1
   715  0073                     ?_Lcd_Write_String:	
   716  0073                     Lcd_Cmd@a:	
   717                           ; 1 bytes @ 0x3
   718                           
   719  0073                     ADC_CONFIG@canal:	
   720                           ; 1 bytes @ 0x3
   721                           
   722  0073                     num_case@r:	
   723                           ; 1 bytes @ 0x3
   724                           
   725  0073                     ___bmul@multiplier:	
   726                           ; 1 bytes @ 0x3
   727                           
   728  0073                     Lcd_Write_String@a:	
   729                           ; 1 bytes @ 0x3
   730                           
   731                           
   732                           ; 2 bytes @ 0x3
   733  0073                     	ds	1
   734  0074                     ?_Lcd_Set_Cursor:	
   735  0074                     ??_Lcd_Init:	
   736                           ; 1 bytes @ 0x4
   737                           
   738  0074                     ??___xxtofl:	
   739                           ; 1 bytes @ 0x4
   740                           
   741  0074                     Lcd_Set_Cursor@b:	
   742                           ; 1 bytes @ 0x4
   743                           
   744  0074                     __Umul8_16@product:	
   745                           ; 1 bytes @ 0x4
   746                           
   747  0074                     ___aldiv@dividend:	
   748                           ; 2 bytes @ 0x4
   749                           
   750  0074                     ___fladd@a:	
   751                           ; 4 bytes @ 0x4
   752                           
   753                           
   754                           ; 4 bytes @ 0x4
   755  0074                     	ds	1
   756  0075                     ??_Lcd_Set_Cursor:	
   757  0075                     ??_Lcd_Write_String:	
   758                           ; 1 bytes @ 0x5
   759                           
   760  0075                     Lcd_Set_Cursor@a:	
   761                           ; 1 bytes @ 0x5
   762                           
   763                           
   764                           ; 1 bytes @ 0x5
   765  0075                     	ds	1
   766  0076                     __Umul8_16@word_mpld:	
   767                           
   768                           ; 2 bytes @ 0x6
   769  0076                     	ds	2
   770  0078                     ??___aldiv:	
   771  0078                     ___fladd@signs:	
   772                           ; 1 bytes @ 0x8
   773                           
   774  0078                     ___xxtofl@sign:	
   775                           ; 1 bytes @ 0x8
   776                           
   777  0078                     __Umul8_16@multiplier:	
   778                           ; 1 bytes @ 0x8
   779                           
   780  0078                     Lcd_Write_String@i:	
   781                           ; 1 bytes @ 0x8
   782                           
   783                           
   784                           ; 2 bytes @ 0x8
   785  0078                     	ds	1
   786  0079                     ___fladd@aexp:	
   787  0079                     ___xxtofl@exp:	
   788                           ; 1 bytes @ 0x9
   789                           
   790  0079                     UART_Init@x:	
   791                           ; 1 bytes @ 0x9
   792                           
   793                           
   794                           ; 2 bytes @ 0x9
   795  0079                     	ds	1
   796  007A                     ___fladd@bexp:	
   797  007A                     ___xxtofl@arg:	
   798                           ; 1 bytes @ 0xA
   799                           
   800                           
   801                           ; 4 bytes @ 0xA
   802  007A                     	ds	1
   803  007B                     ___fladd@grs:	
   804                           
   805                           ; 1 bytes @ 0xB
   806  007B                     	ds	3
   807  007E                     ??___flsub:	
   808                           
   809                           	psect	cstackBANK0
   810  0020                     __pcstackBANK0:	
   811                           ; 1 bytes @ 0xE
   812                           
   813  0020                     ??___fladd:	
   814  0020                     ?___fldiv:	
   815                           ; 1 bytes @ 0x0
   816                           
   817  0020                     ___aldiv@counter:	
   818                           ; 4 bytes @ 0x0
   819                           
   820  0020                     ___fldiv@a:	
   821                           ; 1 bytes @ 0x0
   822                           
   823                           
   824                           ; 4 bytes @ 0x0
   825  0020                     	ds	1
   826  0021                     ___aldiv@sign:	
   827                           
   828                           ; 1 bytes @ 0x1
   829  0021                     	ds	1
   830  0022                     ___aldiv@quotient:	
   831                           
   832                           ; 4 bytes @ 0x2
   833  0022                     	ds	2
   834  0024                     ___fldiv@b:	
   835                           
   836                           ; 4 bytes @ 0x4
   837  0024                     	ds	2
   838  0026                     ?_UART_Init:	
   839  0026                     UART_Init@baudrate:	
   840                           ; 1 bytes @ 0x6
   841                           
   842                           
   843                           ; 4 bytes @ 0x6
   844  0026                     	ds	2
   845  0028                     ??___fldiv:	
   846  0028                     ?___flsub:	
   847                           ; 1 bytes @ 0x8
   848                           
   849  0028                     ___flsub@a:	
   850                           ; 4 bytes @ 0x8
   851                           
   852                           
   853                           ; 4 bytes @ 0x8
   854  0028                     	ds	2
   855  002A                     ??_UART_Init:	
   856                           
   857                           ; 1 bytes @ 0xA
   858  002A                     	ds	2
   859  002C                     ___flsub@b:	
   860                           
   861                           ; 4 bytes @ 0xC
   862  002C                     	ds	1
   863  002D                     ___fldiv@rem:	
   864                           
   865                           ; 4 bytes @ 0xD
   866  002D                     	ds	3
   867  0030                     ?___flmul:	
   868  0030                     ___flmul@b:	
   869                           ; 4 bytes @ 0x10
   870                           
   871                           
   872                           ; 4 bytes @ 0x10
   873  0030                     	ds	1
   874  0031                     ___fldiv@sign:	
   875                           
   876                           ; 1 bytes @ 0x11
   877  0031                     	ds	1
   878  0032                     ___fldiv@new_exp:	
   879                           
   880                           ; 2 bytes @ 0x12
   881  0032                     	ds	2
   882  0034                     ___fldiv@grs:	
   883  0034                     ___flmul@a:	
   884                           ; 4 bytes @ 0x14
   885                           
   886                           
   887                           ; 4 bytes @ 0x14
   888  0034                     	ds	4
   889  0038                     ??___flmul:	
   890  0038                     ___fldiv@bexp:	
   891                           ; 1 bytes @ 0x18
   892                           
   893                           
   894                           ; 1 bytes @ 0x18
   895  0038                     	ds	1
   896  0039                     ___fldiv@aexp:	
   897                           
   898                           ; 1 bytes @ 0x19
   899  0039                     	ds	4
   900  003D                     ___flmul@sign:	
   901                           
   902                           ; 1 bytes @ 0x1D
   903  003D                     	ds	1
   904  003E                     ___flmul@grs:	
   905                           
   906                           ; 4 bytes @ 0x1E
   907  003E                     	ds	4
   908  0042                     ___flmul@aexp:	
   909                           
   910                           ; 1 bytes @ 0x22
   911  0042                     	ds	1
   912  0043                     ___flmul@bexp:	
   913                           
   914                           ; 1 bytes @ 0x23
   915  0043                     	ds	1
   916  0044                     ___flmul@prod:	
   917                           
   918                           ; 4 bytes @ 0x24
   919  0044                     	ds	4
   920  0048                     ___flmul@temp:	
   921                           
   922                           ; 2 bytes @ 0x28
   923  0048                     	ds	2
   924  004A                     ?___fltol:	
   925  004A                     ___fltol@f1:	
   926                           ; 4 bytes @ 0x2A
   927                           
   928                           
   929                           ; 4 bytes @ 0x2A
   930  004A                     	ds	4
   931  004E                     ??___fltol:	
   932                           
   933                           ; 1 bytes @ 0x2E
   934  004E                     	ds	5
   935  0053                     ___fltol@sign1:	
   936                           
   937                           ; 1 bytes @ 0x33
   938  0053                     	ds	1
   939  0054                     ___fltol@exp1:	
   940                           
   941                           ; 1 bytes @ 0x34
   942  0054                     	ds	1
   943  0055                     ?_int_stre:	
   944  0055                     ?_int_strd:	
   945                           ; 1 bytes @ 0x35
   946                           
   947  0055                     ?_int_strc:	
   948                           ; 1 bytes @ 0x35
   949                           
   950  0055                     int_stre@n:	
   951                           ; 1 bytes @ 0x35
   952                           
   953  0055                     int_strd@n:	
   954                           ; 4 bytes @ 0x35
   955                           
   956  0055                     int_strc@n:	
   957                           ; 4 bytes @ 0x35
   958                           
   959                           
   960                           ; 4 bytes @ 0x35
   961  0055                     	ds	4
   962  0059                     ??_int_stre:	
   963  0059                     ??_int_strd:	
   964                           ; 1 bytes @ 0x39
   965                           
   966  0059                     ??_int_strc:	
   967                           ; 1 bytes @ 0x39
   968                           
   969                           
   970                           ; 1 bytes @ 0x39
   971  0059                     	ds	6
   972  005F                     int_strc@c:	
   973                           
   974                           ; 1 bytes @ 0x3F
   975  005F                     	ds	1
   976  0060                     int_stre@c:	
   977  0060                     int_strd@c:	
   978                           ; 1 bytes @ 0x40
   979                           
   980  0060                     int_strc@c3:	
   981                           ; 1 bytes @ 0x40
   982                           
   983                           
   984                           ; 1 bytes @ 0x40
   985  0060                     	ds	1
   986  0061                     int_stre@c1:	
   987  0061                     int_strd@c2:	
   988                           ; 1 bytes @ 0x41
   989                           
   990  0061                     int_strc@e:	
   991                           ; 1 bytes @ 0x41
   992                           
   993                           
   994                           ; 1 bytes @ 0x41
   995  0061                     	ds	1
   996  0062                     int_stre@e:	
   997  0062                     int_strd@e:	
   998                           ; 1 bytes @ 0x42
   999                           
  1000  0062                     int_strc@d:	
  1001                           ; 1 bytes @ 0x42
  1002                           
  1003                           
  1004                           ; 1 bytes @ 0x42
  1005  0062                     	ds	1
  1006  0063                     int_stre@d:	
  1007  0063                     int_strd@d:	
  1008                           ; 1 bytes @ 0x43
  1009                           
  1010  0063                     int_strc@loca:	
  1011                           ; 1 bytes @ 0x43
  1012                           
  1013                           
  1014                           ; 4 bytes @ 0x43
  1015  0063                     	ds	1
  1016  0064                     int_stre@loca:	
  1017  0064                     int_strd@loca:	
  1018                           ; 1 bytes @ 0x44
  1019                           
  1020                           
  1021                           ; 1 bytes @ 0x44
  1022  0064                     	ds	3
  1023  0067                     ??_main:	
  1024                           
  1025                           ; 1 bytes @ 0x47
  1026  0067                     	ds	4
  1027                           
  1028                           	psect	maintext
  1029  0D7A                     __pmaintext:	
  1030 ;;
  1031 ;;Main: autosize = 0, tempsize = 4, incstack = 0, save=0
  1032 ;;
  1033 ;; *************** function _main *****************
  1034 ;; Defined at:
  1035 ;;		line 58 in file "Lab3.c"
  1036 ;; Parameters:    Size  Location     Type
  1037 ;;		None
  1038 ;; Auto vars:     Size  Location     Type
  1039 ;;  s2              5    5[BANK1 ] unsigned char [5]
  1040 ;;  s1              5    0[BANK1 ] unsigned char [5]
  1041 ;;  a               2    0        unsigned int 
  1042 ;; Return value:  Size  Location     Type
  1043 ;;                  1    wreg      void 
  1044 ;; Registers used:
  1045 ;;		wreg, fsr0l, fsr0h, status,2, status,0, btemp+1, pclath, cstack
  1046 ;; Tracked objects:
  1047 ;;		On entry : B00/0
  1048 ;;		On exit  : 0/0
  1049 ;;		Unchanged: 0/0
  1050 ;; Data sizes:     COMMON   BANK0   BANK1   BANK3   BANK2
  1051 ;;      Params:         0       0       0       0       0
  1052 ;;      Locals:         0       0      10       0       0
  1053 ;;      Temps:          0       4       0       0       0
  1054 ;;      Totals:         0       4      10       0       0
  1055 ;;Total ram usage:       14 bytes
  1056 ;; Hardware stack levels required when called:    3
  1057 ;; This function calls:
  1058 ;;		_ADC_CONFIG
  1059 ;;		_Lcd_Init
  1060 ;;		_Lcd_Set_Cursor
  1061 ;;		_Lcd_Write_String
  1062 ;;		_UART_Init
  1063 ;;		_UART_Write
  1064 ;;		___fldiv
  1065 ;;		___fltol
  1066 ;;		___xxtofl
  1067 ;;		_int_strc
  1068 ;;		_int_strd
  1069 ;;		_int_stre
  1070 ;; This function is called by:
  1071 ;;		Startup code after reset
  1072 ;; This function uses a non-reentrant model
  1073 ;;
  1074                           
  1075                           
  1076                           ;psect for function _main
  1077  0D7A                     _main:	
  1078  0D7A                     l2822:	
  1079                           ;incstack = 0
  1080                           ; Regs used in _main: [wreg-fsr0h+status,2+status,0+btemp+1+pclath+cstack]
  1081                           
  1082                           
  1083                           ;Lab3.c: 59:     unsigned int a;;Lab3.c: 60:     ANSELH = 0;
  1084  0D7A  1683               	bsf	3,5	;RP0=1, select bank3
  1085  0D7B  1703               	bsf	3,6	;RP1=1, select bank3
  1086  0D7C  0189               	clrf	9	;volatile
  1087                           
  1088                           ;Lab3.c: 61:     ANSEL = 0;
  1089  0D7D  0188               	clrf	8	;volatile
  1090                           
  1091                           ;Lab3.c: 62:     TRISA = 0x00;
  1092  0D7E  1683               	bsf	3,5	;RP0=1, select bank1
  1093  0D7F  1303               	bcf	3,6	;RP1=0, select bank1
  1094  0D80  0185               	clrf	5	;volatile
  1095                           
  1096                           ;Lab3.c: 63:     TRISB = 0x00;
  1097  0D81  0186               	clrf	6	;volatile
  1098                           
  1099                           ;Lab3.c: 64:     TRISC = 0x00;
  1100  0D82  0187               	clrf	7	;volatile
  1101  0D83                     l2824:	
  1102                           
  1103                           ;Lab3.c: 67:     ADC_CONFIG(12,0);
  1104  0D83  01F0               	clrf	ADC_CONFIG@justif
  1105  0D84  300C               	movlw	12
  1106  0D85  120A  158A  246F  120A  158A  	fcall	_ADC_CONFIG
  1107  0D8A                     l2826:	
  1108                           
  1109                           ;Lab3.c: 68:     ADC_CONFIG(10,0);
  1110  0D8A  01F0               	clrf	ADC_CONFIG@justif
  1111  0D8B  300A               	movlw	10
  1112  0D8C  120A  158A  246F  120A  158A  	fcall	_ADC_CONFIG
  1113  0D91                     l2828:	
  1114                           
  1115                           ;Lab3.c: 70:     Lcd_Init();
  1116  0D91  160A  118A  26E0  120A  158A  	fcall	_Lcd_Init
  1117  0D96                     l2830:	
  1118                           
  1119                           ;Lab3.c: 71:     UART_Init(9600);
  1120  0D96  3000               	movlw	0
  1121  0D97  1283               	bcf	3,5	;RP0=0, select bank0
  1122  0D98  1303               	bcf	3,6	;RP1=0, select bank0
  1123  0D99  00A9               	movwf	UART_Init@baudrate+3
  1124  0D9A  3000               	movlw	0
  1125  0D9B  00A8               	movwf	UART_Init@baudrate+2
  1126  0D9C  3025               	movlw	37
  1127  0D9D  00A7               	movwf	UART_Init@baudrate+1
  1128  0D9E  3080               	movlw	128
  1129  0D9F  00A6               	movwf	UART_Init@baudrate
  1130  0DA0  120A  158A  22A7  120A  158A  	fcall	_UART_Init
  1131  0DA5                     l2832:	
  1132                           
  1133                           ;Lab3.c: 74:     char s1[5] = "";
  1134  0DA5  30B4               	movlw	main@s1& (0+255)
  1135  0DA6  0084               	movwf	4
  1136  0DA7  3005               	movlw	5
  1137  0DA8  00FF               	movwf	btemp+1
  1138  0DA9                     u3510:	
  1139  0DA9  1383               	bcf	3,7	;select IRP bank1
  1140  0DAA  0180               	clrf	0
  1141  0DAB  0A84               	incf	4,f
  1142  0DAC  0BFF               	decfsz	btemp+1,f
  1143  0DAD  2DA9               	goto	u3510
  1144  0DAE                     l2834:	
  1145                           
  1146                           ;Lab3.c: 75:     char s2[5] = "";
  1147  0DAE  30B9               	movlw	main@s2& (0+255)
  1148  0DAF  0084               	movwf	4
  1149  0DB0  3005               	movlw	5
  1150  0DB1  00FF               	movwf	btemp+1
  1151  0DB2                     u3520:	
  1152  0DB2  0180               	clrf	0
  1153  0DB3  0A84               	incf	4,f
  1154  0DB4  0BFF               	decfsz	btemp+1,f
  1155  0DB5  2DB2               	goto	u3520
  1156  0DB6                     l2836:	
  1157                           
  1158                           ;Lab3.c: 80:         ADCON0bits.CHS = 10;
  1159  0DB6  1283               	bcf	3,5	;RP0=0, select bank0
  1160  0DB7  1303               	bcf	3,6	;RP1=0, select bank0
  1161  0DB8  081F               	movf	31,w	;volatile
  1162  0DB9  39C3               	andlw	-61
  1163  0DBA  3828               	iorlw	40
  1164  0DBB  009F               	movwf	31	;volatile
  1165  0DBC                     l2838:	
  1166                           
  1167                           ;Lab3.c: 81:         _delay((unsigned long)((500)*(4000000/4000000.0)));
  1168  0DBC  30A5               	movlw	165
  1169  0DBD  1283               	bcf	3,5	;RP0=0, select bank0
  1170  0DBE  1303               	bcf	3,6	;RP1=0, select bank0
  1171  0DBF  00E7               	movwf	??_main
  1172  0DC0                     u3557:	
  1173  0DC0  0BE7               	decfsz	??_main,f
  1174  0DC1  2DC0               	goto	u3557
  1175  0DC2  2DC3               	nop2
  1176  0DC3                     l2840:	
  1177                           
  1178                           ;Lab3.c: 82:         ADCON0bits.GO = 1;
  1179  0DC3  1283               	bcf	3,5	;RP0=0, select bank0
  1180  0DC4  1303               	bcf	3,6	;RP1=0, select bank0
  1181  0DC5  149F               	bsf	31,1	;volatile
  1182  0DC6                     l184:	
  1183                           ;Lab3.c: 83:         while(ADCON0bits.GO == 1){};
  1184                           
  1185  0DC6  189F               	btfsc	31,1	;volatile
  1186  0DC7  2DC9               	goto	u3531
  1187  0DC8  2DCA               	goto	u3530
  1188  0DC9                     u3531:	
  1189  0DC9  2DC6               	goto	l184
  1190  0DCA                     u3530:	
  1191  0DCA                     l2842:	
  1192                           
  1193                           ;Lab3.c: 84:         adc1 = ADRESH;
  1194  0DCA  081E               	movf	30,w	;volatile
  1195  0DCB  00E7               	movwf	??_main
  1196  0DCC  0867               	movf	??_main,w
  1197  0DCD  1683               	bsf	3,5	;RP0=1, select bank1
  1198  0DCE  1303               	bcf	3,6	;RP1=0, select bank1
  1199  0DCF  00B3               	movwf	_adc1^(0+128)
  1200  0DD0                     l2844:	
  1201                           
  1202                           ;Lab3.c: 85:         adc11 = adc1/51.0;
  1203  0DD0  3042               	movlw	66
  1204  0DD1  1283               	bcf	3,5	;RP0=0, select bank0
  1205  0DD2  1303               	bcf	3,6	;RP1=0, select bank0
  1206  0DD3  00A3               	movwf	___fldiv@a+3
  1207  0DD4  304C               	movlw	76
  1208  0DD5  00A2               	movwf	___fldiv@a+2
  1209  0DD6  3000               	movlw	0
  1210  0DD7  00A1               	movwf	___fldiv@a+1
  1211  0DD8  3000               	movlw	0
  1212  0DD9  00A0               	movwf	___fldiv@a
  1213  0DDA  1683               	bsf	3,5	;RP0=1, select bank1
  1214  0DDB  1303               	bcf	3,6	;RP1=0, select bank1
  1215  0DDC  0833               	movf	_adc1^(0+128),w
  1216  0DDD  1283               	bcf	3,5	;RP0=0, select bank0
  1217  0DDE  1303               	bcf	3,6	;RP1=0, select bank0
  1218  0DDF  00E7               	movwf	??_main
  1219  0DE0  01E8               	clrf	??_main+1
  1220  0DE1  01E9               	clrf	??_main+2
  1221  0DE2  01EA               	clrf	??_main+3
  1222  0DE3  086A               	movf	??_main+3,w
  1223  0DE4  00F3               	movwf	___xxtofl@val+3
  1224  0DE5  0869               	movf	??_main+2,w
  1225  0DE6  00F2               	movwf	___xxtofl@val+2
  1226  0DE7  0868               	movf	??_main+1,w
  1227  0DE8  00F1               	movwf	___xxtofl@val+1
  1228  0DE9  0867               	movf	??_main,w
  1229  0DEA  00F0               	movwf	___xxtofl@val
  1230  0DEB  3001               	movlw	1
  1231  0DEC  120A  158A  21ED  120A  158A  	fcall	___xxtofl
  1232  0DF1  0873               	movf	?___xxtofl+3,w
  1233  0DF2  1283               	bcf	3,5	;RP0=0, select bank0
  1234  0DF3  1303               	bcf	3,6	;RP1=0, select bank0
  1235  0DF4  00A7               	movwf	___fldiv@b+3
  1236  0DF5  0872               	movf	?___xxtofl+2,w
  1237  0DF6  00A6               	movwf	___fldiv@b+2
  1238  0DF7  0871               	movf	?___xxtofl+1,w
  1239  0DF8  00A5               	movwf	___fldiv@b+1
  1240  0DF9  0870               	movf	?___xxtofl,w
  1241  0DFA  00A4               	movwf	___fldiv@b
  1242  0DFB  120A  118A  2019  120A  158A  	fcall	___fldiv
  1243  0E00  1283               	bcf	3,5	;RP0=0, select bank0
  1244  0E01  1303               	bcf	3,6	;RP1=0, select bank0
  1245  0E02  0823               	movf	?___fldiv+3,w
  1246  0E03  1683               	bsf	3,5	;RP0=1, select bank1
  1247  0E04  1303               	bcf	3,6	;RP1=0, select bank1
  1248  0E05  00B1               	movwf	(_adc11+3)^(0+128)
  1249  0E06  1283               	bcf	3,5	;RP0=0, select bank0
  1250  0E07  1303               	bcf	3,6	;RP1=0, select bank0
  1251  0E08  0822               	movf	?___fldiv+2,w
  1252  0E09  1683               	bsf	3,5	;RP0=1, select bank1
  1253  0E0A  1303               	bcf	3,6	;RP1=0, select bank1
  1254  0E0B  00B0               	movwf	(_adc11+2)^(0+128)
  1255  0E0C  1283               	bcf	3,5	;RP0=0, select bank0
  1256  0E0D  1303               	bcf	3,6	;RP1=0, select bank0
  1257  0E0E  0821               	movf	?___fldiv+1,w
  1258  0E0F  1683               	bsf	3,5	;RP0=1, select bank1
  1259  0E10  1303               	bcf	3,6	;RP1=0, select bank1
  1260  0E11  00AF               	movwf	(_adc11+1)^(0+128)
  1261  0E12  1283               	bcf	3,5	;RP0=0, select bank0
  1262  0E13  1303               	bcf	3,6	;RP1=0, select bank0
  1263  0E14  0820               	movf	?___fldiv,w
  1264  0E15  1683               	bsf	3,5	;RP0=1, select bank1
  1265  0E16  1303               	bcf	3,6	;RP1=0, select bank1
  1266  0E17  00AE               	movwf	_adc11^(0+128)
  1267  0E18                     l2846:	
  1268                           
  1269                           ;Lab3.c: 86:         PIR1bits.ADIF = 0;
  1270  0E18  1283               	bcf	3,5	;RP0=0, select bank0
  1271  0E19  1303               	bcf	3,6	;RP1=0, select bank0
  1272  0E1A  130C               	bcf	12,6	;volatile
  1273  0E1B                     l2848:	
  1274                           
  1275                           ;Lab3.c: 87:         ADCON0bits.CHS = 12;
  1276  0E1B  081F               	movf	31,w	;volatile
  1277  0E1C  39C3               	andlw	-61
  1278  0E1D  3830               	iorlw	48
  1279  0E1E  009F               	movwf	31	;volatile
  1280  0E1F                     l2850:	
  1281                           
  1282                           ;Lab3.c: 88:         _delay((unsigned long)((500)*(4000000/4000000.0)));
  1283  0E1F  30A5               	movlw	165
  1284  0E20  1283               	bcf	3,5	;RP0=0, select bank0
  1285  0E21  1303               	bcf	3,6	;RP1=0, select bank0
  1286  0E22  00E7               	movwf	??_main
  1287  0E23                     u3567:	
  1288  0E23  0BE7               	decfsz	??_main,f
  1289  0E24  2E23               	goto	u3567
  1290  0E25  2E26               	nop2
  1291  0E26                     l2852:	
  1292                           
  1293                           ;Lab3.c: 89:         ADCON0bits.GO = 1;
  1294  0E26  1283               	bcf	3,5	;RP0=0, select bank0
  1295  0E27  1303               	bcf	3,6	;RP1=0, select bank0
  1296  0E28  149F               	bsf	31,1	;volatile
  1297  0E29                     l187:	
  1298                           ;Lab3.c: 90:         while(ADCON0bits.GO == 1){};
  1299                           
  1300  0E29  189F               	btfsc	31,1	;volatile
  1301  0E2A  2E2C               	goto	u3541
  1302  0E2B  2E2D               	goto	u3540
  1303  0E2C                     u3541:	
  1304  0E2C  2E29               	goto	l187
  1305  0E2D                     u3540:	
  1306  0E2D                     l2854:	
  1307                           
  1308                           ;Lab3.c: 91:         adc2 = ADRESH;
  1309  0E2D  081E               	movf	30,w	;volatile
  1310  0E2E  00E7               	movwf	??_main
  1311  0E2F  0867               	movf	??_main,w
  1312  0E30  1683               	bsf	3,5	;RP0=1, select bank1
  1313  0E31  1303               	bcf	3,6	;RP1=0, select bank1
  1314  0E32  00B2               	movwf	_adc2^(0+128)
  1315  0E33                     l2856:	
  1316                           
  1317                           ;Lab3.c: 92:         adc22 = adc2/51.0;
  1318  0E33  3042               	movlw	66
  1319  0E34  1283               	bcf	3,5	;RP0=0, select bank0
  1320  0E35  1303               	bcf	3,6	;RP1=0, select bank0
  1321  0E36  00A3               	movwf	___fldiv@a+3
  1322  0E37  304C               	movlw	76
  1323  0E38  00A2               	movwf	___fldiv@a+2
  1324  0E39  3000               	movlw	0
  1325  0E3A  00A1               	movwf	___fldiv@a+1
  1326  0E3B  3000               	movlw	0
  1327  0E3C  00A0               	movwf	___fldiv@a
  1328  0E3D  1683               	bsf	3,5	;RP0=1, select bank1
  1329  0E3E  1303               	bcf	3,6	;RP1=0, select bank1
  1330  0E3F  0832               	movf	_adc2^(0+128),w
  1331  0E40  1283               	bcf	3,5	;RP0=0, select bank0
  1332  0E41  1303               	bcf	3,6	;RP1=0, select bank0
  1333  0E42  00E7               	movwf	??_main
  1334  0E43  01E8               	clrf	??_main+1
  1335  0E44  01E9               	clrf	??_main+2
  1336  0E45  01EA               	clrf	??_main+3
  1337  0E46  086A               	movf	??_main+3,w
  1338  0E47  00F3               	movwf	___xxtofl@val+3
  1339  0E48  0869               	movf	??_main+2,w
  1340  0E49  00F2               	movwf	___xxtofl@val+2
  1341  0E4A  0868               	movf	??_main+1,w
  1342  0E4B  00F1               	movwf	___xxtofl@val+1
  1343  0E4C  0867               	movf	??_main,w
  1344  0E4D  00F0               	movwf	___xxtofl@val
  1345  0E4E  3001               	movlw	1
  1346  0E4F  120A  158A  21ED  120A  158A  	fcall	___xxtofl
  1347  0E54  0873               	movf	?___xxtofl+3,w
  1348  0E55  1283               	bcf	3,5	;RP0=0, select bank0
  1349  0E56  1303               	bcf	3,6	;RP1=0, select bank0
  1350  0E57  00A7               	movwf	___fldiv@b+3
  1351  0E58  0872               	movf	?___xxtofl+2,w
  1352  0E59  00A6               	movwf	___fldiv@b+2
  1353  0E5A  0871               	movf	?___xxtofl+1,w
  1354  0E5B  00A5               	movwf	___fldiv@b+1
  1355  0E5C  0870               	movf	?___xxtofl,w
  1356  0E5D  00A4               	movwf	___fldiv@b
  1357  0E5E  120A  118A  2019  120A  158A  	fcall	___fldiv
  1358  0E63  1283               	bcf	3,5	;RP0=0, select bank0
  1359  0E64  1303               	bcf	3,6	;RP1=0, select bank0
  1360  0E65  0823               	movf	?___fldiv+3,w
  1361  0E66  1683               	bsf	3,5	;RP0=1, select bank1
  1362  0E67  1303               	bcf	3,6	;RP1=0, select bank1
  1363  0E68  00AD               	movwf	(_adc22+3)^(0+128)
  1364  0E69  1283               	bcf	3,5	;RP0=0, select bank0
  1365  0E6A  1303               	bcf	3,6	;RP1=0, select bank0
  1366  0E6B  0822               	movf	?___fldiv+2,w
  1367  0E6C  1683               	bsf	3,5	;RP0=1, select bank1
  1368  0E6D  1303               	bcf	3,6	;RP1=0, select bank1
  1369  0E6E  00AC               	movwf	(_adc22+2)^(0+128)
  1370  0E6F  1283               	bcf	3,5	;RP0=0, select bank0
  1371  0E70  1303               	bcf	3,6	;RP1=0, select bank0
  1372  0E71  0821               	movf	?___fldiv+1,w
  1373  0E72  1683               	bsf	3,5	;RP0=1, select bank1
  1374  0E73  1303               	bcf	3,6	;RP1=0, select bank1
  1375  0E74  00AB               	movwf	(_adc22+1)^(0+128)
  1376  0E75  1283               	bcf	3,5	;RP0=0, select bank0
  1377  0E76  1303               	bcf	3,6	;RP1=0, select bank0
  1378  0E77  0820               	movf	?___fldiv,w
  1379  0E78  1683               	bsf	3,5	;RP0=1, select bank1
  1380  0E79  1303               	bcf	3,6	;RP1=0, select bank1
  1381  0E7A  00AA               	movwf	_adc22^(0+128)
  1382  0E7B                     l2858:	
  1383                           
  1384                           ;Lab3.c: 93:         PIR1bits.ADIF = 0;
  1385  0E7B  1283               	bcf	3,5	;RP0=0, select bank0
  1386  0E7C  1303               	bcf	3,6	;RP1=0, select bank0
  1387  0E7D  130C               	bcf	12,6	;volatile
  1388  0E7E                     l2860:	
  1389                           
  1390                           ;Lab3.c: 96:         Lcd_Set_Cursor(1,2);
  1391  0E7E  3002               	movlw	2
  1392  0E7F  00E7               	movwf	??_main
  1393  0E80  0867               	movf	??_main,w
  1394  0E81  00F4               	movwf	Lcd_Set_Cursor@b
  1395  0E82  3001               	movlw	1
  1396  0E83  160A  118A  25D9  120A  158A  	fcall	_Lcd_Set_Cursor
  1397  0E88                     l2862:	
  1398                           
  1399                           ;Lab3.c: 97:         Lcd_Write_String("P1:");
  1400  0E88  3001               	movlw	(low ((STR_1-__stringbase)| (0+32768)))& (0+255)
  1401  0E89  00F3               	movwf	Lcd_Write_String@a
  1402  0E8A  3080               	movlw	128
  1403  0E8B  00F4               	movwf	Lcd_Write_String@a+1
  1404  0E8C  160A  118A  269E  120A  158A  	fcall	_Lcd_Write_String
  1405  0E91                     l2864:	
  1406                           
  1407                           ;Lab3.c: 98:         Lcd_Set_Cursor(1,7);
  1408  0E91  3007               	movlw	7
  1409  0E92  1283               	bcf	3,5	;RP0=0, select bank0
  1410  0E93  1303               	bcf	3,6	;RP1=0, select bank0
  1411  0E94  00E7               	movwf	??_main
  1412  0E95  0867               	movf	??_main,w
  1413  0E96  00F4               	movwf	Lcd_Set_Cursor@b
  1414  0E97  3001               	movlw	1
  1415  0E98  160A  118A  25D9  120A  158A  	fcall	_Lcd_Set_Cursor
  1416  0E9D                     l2866:	
  1417                           
  1418                           ;Lab3.c: 99:         Lcd_Write_String("P2:");
  1419  0E9D  3005               	movlw	(low ((STR_2-__stringbase)| (0+32768)))& (0+255)
  1420  0E9E  00F3               	movwf	Lcd_Write_String@a
  1421  0E9F  3080               	movlw	128
  1422  0EA0  00F4               	movwf	Lcd_Write_String@a+1
  1423  0EA1  160A  118A  269E  120A  158A  	fcall	_Lcd_Write_String
  1424  0EA6                     l2868:	
  1425                           
  1426                           ;Lab3.c: 100:         Lcd_Set_Cursor(1,12);
  1427  0EA6  300C               	movlw	12
  1428  0EA7  1283               	bcf	3,5	;RP0=0, select bank0
  1429  0EA8  1303               	bcf	3,6	;RP1=0, select bank0
  1430  0EA9  00E7               	movwf	??_main
  1431  0EAA  0867               	movf	??_main,w
  1432  0EAB  00F4               	movwf	Lcd_Set_Cursor@b
  1433  0EAC  3001               	movlw	1
  1434  0EAD  160A  118A  25D9  120A  158A  	fcall	_Lcd_Set_Cursor
  1435  0EB2                     l2870:	
  1436                           
  1437                           ;Lab3.c: 101:         Lcd_Write_String("P3:");
  1438  0EB2  3009               	movlw	(low ((STR_3-__stringbase)| (0+32768)))& (0+255)
  1439  0EB3  00F3               	movwf	Lcd_Write_String@a
  1440  0EB4  3080               	movlw	128
  1441  0EB5  00F4               	movwf	Lcd_Write_String@a+1
  1442  0EB6  160A  118A  269E  120A  158A  	fcall	_Lcd_Write_String
  1443  0EBB                     l2872:	
  1444                           
  1445                           ;Lab3.c: 102:         Lcd_Set_Cursor(2,1);
  1446  0EBB  01F4               	clrf	Lcd_Set_Cursor@b
  1447  0EBC  0AF4               	incf	Lcd_Set_Cursor@b,f
  1448  0EBD  3002               	movlw	2
  1449  0EBE  160A  118A  25D9  120A  158A  	fcall	_Lcd_Set_Cursor
  1450  0EC3                     l2874:	
  1451                           
  1452                           ;Lab3.c: 103:         s1[0] = int_stre(adc11);
  1453  0EC3  1683               	bsf	3,5	;RP0=1, select bank1
  1454  0EC4  1303               	bcf	3,6	;RP1=0, select bank1
  1455  0EC5  0831               	movf	(_adc11+3)^(0+128),w
  1456  0EC6  1283               	bcf	3,5	;RP0=0, select bank0
  1457  0EC7  1303               	bcf	3,6	;RP1=0, select bank0
  1458  0EC8  00D8               	movwf	int_stre@n+3
  1459  0EC9  1683               	bsf	3,5	;RP0=1, select bank1
  1460  0ECA  1303               	bcf	3,6	;RP1=0, select bank1
  1461  0ECB  0830               	movf	(_adc11+2)^(0+128),w
  1462  0ECC  1283               	bcf	3,5	;RP0=0, select bank0
  1463  0ECD  1303               	bcf	3,6	;RP1=0, select bank0
  1464  0ECE  00D7               	movwf	int_stre@n+2
  1465  0ECF  1683               	bsf	3,5	;RP0=1, select bank1
  1466  0ED0  1303               	bcf	3,6	;RP1=0, select bank1
  1467  0ED1  082F               	movf	(_adc11+1)^(0+128),w
  1468  0ED2  1283               	bcf	3,5	;RP0=0, select bank0
  1469  0ED3  1303               	bcf	3,6	;RP1=0, select bank0
  1470  0ED4  00D6               	movwf	int_stre@n+1
  1471  0ED5  1683               	bsf	3,5	;RP0=1, select bank1
  1472  0ED6  1303               	bcf	3,6	;RP1=0, select bank1
  1473  0ED7  082E               	movf	_adc11^(0+128),w
  1474  0ED8  1283               	bcf	3,5	;RP0=0, select bank0
  1475  0ED9  1303               	bcf	3,6	;RP1=0, select bank0
  1476  0EDA  00D5               	movwf	int_stre@n
  1477  0EDB  120A  158A  214D  120A  158A  	fcall	_int_stre
  1478  0EE0  1283               	bcf	3,5	;RP0=0, select bank0
  1479  0EE1  1303               	bcf	3,6	;RP1=0, select bank0
  1480  0EE2  00E7               	movwf	??_main
  1481  0EE3  0867               	movf	??_main,w
  1482  0EE4  1683               	bsf	3,5	;RP0=1, select bank1
  1483  0EE5  1303               	bcf	3,6	;RP1=0, select bank1
  1484  0EE6  00B4               	movwf	main@s1^(0+128)
  1485  0EE7                     l2876:	
  1486                           
  1487                           ;Lab3.c: 104:         s1[1]='.';
  1488  0EE7  302E               	movlw	46
  1489  0EE8  1283               	bcf	3,5	;RP0=0, select bank0
  1490  0EE9  1303               	bcf	3,6	;RP1=0, select bank0
  1491  0EEA  00E7               	movwf	??_main
  1492  0EEB  0867               	movf	??_main,w
  1493  0EEC  1683               	bsf	3,5	;RP0=1, select bank1
  1494  0EED  1303               	bcf	3,6	;RP1=0, select bank1
  1495  0EEE  00B5               	movwf	(main@s1^(0+128)+1)
  1496  0EEF                     l2878:	
  1497                           
  1498                           ;Lab3.c: 105:         s1[2] = int_strd(adc11);
  1499  0EEF  0831               	movf	(_adc11+3)^(0+128),w
  1500  0EF0  1283               	bcf	3,5	;RP0=0, select bank0
  1501  0EF1  1303               	bcf	3,6	;RP1=0, select bank0
  1502  0EF2  00D8               	movwf	int_strd@n+3
  1503  0EF3  1683               	bsf	3,5	;RP0=1, select bank1
  1504  0EF4  1303               	bcf	3,6	;RP1=0, select bank1
  1505  0EF5  0830               	movf	(_adc11+2)^(0+128),w
  1506  0EF6  1283               	bcf	3,5	;RP0=0, select bank0
  1507  0EF7  1303               	bcf	3,6	;RP1=0, select bank0
  1508  0EF8  00D7               	movwf	int_strd@n+2
  1509  0EF9  1683               	bsf	3,5	;RP0=1, select bank1
  1510  0EFA  1303               	bcf	3,6	;RP1=0, select bank1
  1511  0EFB  082F               	movf	(_adc11+1)^(0+128),w
  1512  0EFC  1283               	bcf	3,5	;RP0=0, select bank0
  1513  0EFD  1303               	bcf	3,6	;RP1=0, select bank0
  1514  0EFE  00D6               	movwf	int_strd@n+1
  1515  0EFF  1683               	bsf	3,5	;RP0=1, select bank1
  1516  0F00  1303               	bcf	3,6	;RP1=0, select bank1
  1517  0F01  082E               	movf	_adc11^(0+128),w
  1518  0F02  1283               	bcf	3,5	;RP0=0, select bank0
  1519  0F03  1303               	bcf	3,6	;RP1=0, select bank0
  1520  0F04  00D5               	movwf	int_strd@n
  1521  0F05  120A  158A  20AD  120A  158A  	fcall	_int_strd
  1522  0F0A  1283               	bcf	3,5	;RP0=0, select bank0
  1523  0F0B  1303               	bcf	3,6	;RP1=0, select bank0
  1524  0F0C  00E7               	movwf	??_main
  1525  0F0D  0867               	movf	??_main,w
  1526  0F0E  1683               	bsf	3,5	;RP0=1, select bank1
  1527  0F0F  1303               	bcf	3,6	;RP1=0, select bank1
  1528  0F10  00B6               	movwf	(main@s1^(0+128)+2)
  1529  0F11                     l2880:	
  1530                           
  1531                           ;Lab3.c: 106:         s1[3] = int_strc(adc11);
  1532  0F11  0831               	movf	(_adc11+3)^(0+128),w
  1533  0F12  1283               	bcf	3,5	;RP0=0, select bank0
  1534  0F13  1303               	bcf	3,6	;RP1=0, select bank0
  1535  0F14  00D8               	movwf	int_strc@n+3
  1536  0F15  1683               	bsf	3,5	;RP0=1, select bank1
  1537  0F16  1303               	bcf	3,6	;RP1=0, select bank1
  1538  0F17  0830               	movf	(_adc11+2)^(0+128),w
  1539  0F18  1283               	bcf	3,5	;RP0=0, select bank0
  1540  0F19  1303               	bcf	3,6	;RP1=0, select bank0
  1541  0F1A  00D7               	movwf	int_strc@n+2
  1542  0F1B  1683               	bsf	3,5	;RP0=1, select bank1
  1543  0F1C  1303               	bcf	3,6	;RP1=0, select bank1
  1544  0F1D  082F               	movf	(_adc11+1)^(0+128),w
  1545  0F1E  1283               	bcf	3,5	;RP0=0, select bank0
  1546  0F1F  1303               	bcf	3,6	;RP1=0, select bank0
  1547  0F20  00D6               	movwf	int_strc@n+1
  1548  0F21  1683               	bsf	3,5	;RP0=1, select bank1
  1549  0F22  1303               	bcf	3,6	;RP1=0, select bank1
  1550  0F23  082E               	movf	_adc11^(0+128),w
  1551  0F24  1283               	bcf	3,5	;RP0=0, select bank0
  1552  0F25  1303               	bcf	3,6	;RP1=0, select bank0
  1553  0F26  00D5               	movwf	int_strc@n
  1554  0F27  120A  158A  2381  120A  158A  	fcall	_int_strc
  1555  0F2C  1283               	bcf	3,5	;RP0=0, select bank0
  1556  0F2D  1303               	bcf	3,6	;RP1=0, select bank0
  1557  0F2E  00E7               	movwf	??_main
  1558  0F2F  0867               	movf	??_main,w
  1559  0F30  1683               	bsf	3,5	;RP0=1, select bank1
  1560  0F31  1303               	bcf	3,6	;RP1=0, select bank1
  1561  0F32  00B7               	movwf	(main@s1^(0+128)+3)
  1562  0F33                     l2882:	
  1563                           
  1564                           ;Lab3.c: 107:         Lcd_Write_String(s1);
  1565  0F33  30B4               	movlw	(low (main@s1| 0))& (0+255)
  1566  0F34  00F3               	movwf	Lcd_Write_String@a
  1567  0F35  3000               	movlw	0
  1568  0F36  00F4               	movwf	Lcd_Write_String@a+1
  1569  0F37  160A  118A  269E  120A  158A  	fcall	_Lcd_Write_String
  1570  0F3C                     l2884:	
  1571                           
  1572                           ;Lab3.c: 108:         Lcd_Set_Cursor(2,6);
  1573  0F3C  3006               	movlw	6
  1574  0F3D  1283               	bcf	3,5	;RP0=0, select bank0
  1575  0F3E  1303               	bcf	3,6	;RP1=0, select bank0
  1576  0F3F  00E7               	movwf	??_main
  1577  0F40  0867               	movf	??_main,w
  1578  0F41  00F4               	movwf	Lcd_Set_Cursor@b
  1579  0F42  3002               	movlw	2
  1580  0F43  160A  118A  25D9  120A  158A  	fcall	_Lcd_Set_Cursor
  1581  0F48                     l2886:	
  1582                           
  1583                           ;Lab3.c: 109:         s2[0] = int_stre(adc22);
  1584  0F48  1683               	bsf	3,5	;RP0=1, select bank1
  1585  0F49  1303               	bcf	3,6	;RP1=0, select bank1
  1586  0F4A  082D               	movf	(_adc22+3)^(0+128),w
  1587  0F4B  1283               	bcf	3,5	;RP0=0, select bank0
  1588  0F4C  1303               	bcf	3,6	;RP1=0, select bank0
  1589  0F4D  00D8               	movwf	int_stre@n+3
  1590  0F4E  1683               	bsf	3,5	;RP0=1, select bank1
  1591  0F4F  1303               	bcf	3,6	;RP1=0, select bank1
  1592  0F50  082C               	movf	(_adc22+2)^(0+128),w
  1593  0F51  1283               	bcf	3,5	;RP0=0, select bank0
  1594  0F52  1303               	bcf	3,6	;RP1=0, select bank0
  1595  0F53  00D7               	movwf	int_stre@n+2
  1596  0F54  1683               	bsf	3,5	;RP0=1, select bank1
  1597  0F55  1303               	bcf	3,6	;RP1=0, select bank1
  1598  0F56  082B               	movf	(_adc22+1)^(0+128),w
  1599  0F57  1283               	bcf	3,5	;RP0=0, select bank0
  1600  0F58  1303               	bcf	3,6	;RP1=0, select bank0
  1601  0F59  00D6               	movwf	int_stre@n+1
  1602  0F5A  1683               	bsf	3,5	;RP0=1, select bank1
  1603  0F5B  1303               	bcf	3,6	;RP1=0, select bank1
  1604  0F5C  082A               	movf	_adc22^(0+128),w
  1605  0F5D  1283               	bcf	3,5	;RP0=0, select bank0
  1606  0F5E  1303               	bcf	3,6	;RP1=0, select bank0
  1607  0F5F  00D5               	movwf	int_stre@n
  1608  0F60  120A  158A  214D  120A  158A  	fcall	_int_stre
  1609  0F65  1283               	bcf	3,5	;RP0=0, select bank0
  1610  0F66  1303               	bcf	3,6	;RP1=0, select bank0
  1611  0F67  00E7               	movwf	??_main
  1612  0F68  0867               	movf	??_main,w
  1613  0F69  1683               	bsf	3,5	;RP0=1, select bank1
  1614  0F6A  1303               	bcf	3,6	;RP1=0, select bank1
  1615  0F6B  00B9               	movwf	main@s2^(0+128)
  1616  0F6C                     l2888:	
  1617                           
  1618                           ;Lab3.c: 110:         s2[1]='.';
  1619  0F6C  302E               	movlw	46
  1620  0F6D  1283               	bcf	3,5	;RP0=0, select bank0
  1621  0F6E  1303               	bcf	3,6	;RP1=0, select bank0
  1622  0F6F  00E7               	movwf	??_main
  1623  0F70  0867               	movf	??_main,w
  1624  0F71  1683               	bsf	3,5	;RP0=1, select bank1
  1625  0F72  1303               	bcf	3,6	;RP1=0, select bank1
  1626  0F73  00BA               	movwf	(main@s2^(0+128)+1)
  1627  0F74                     l2890:	
  1628                           
  1629                           ;Lab3.c: 111:         s2[2] = int_strd(adc22);
  1630  0F74  082D               	movf	(_adc22+3)^(0+128),w
  1631  0F75  1283               	bcf	3,5	;RP0=0, select bank0
  1632  0F76  1303               	bcf	3,6	;RP1=0, select bank0
  1633  0F77  00D8               	movwf	int_strd@n+3
  1634  0F78  1683               	bsf	3,5	;RP0=1, select bank1
  1635  0F79  1303               	bcf	3,6	;RP1=0, select bank1
  1636  0F7A  082C               	movf	(_adc22+2)^(0+128),w
  1637  0F7B  1283               	bcf	3,5	;RP0=0, select bank0
  1638  0F7C  1303               	bcf	3,6	;RP1=0, select bank0
  1639  0F7D  00D7               	movwf	int_strd@n+2
  1640  0F7E  1683               	bsf	3,5	;RP0=1, select bank1
  1641  0F7F  1303               	bcf	3,6	;RP1=0, select bank1
  1642  0F80  082B               	movf	(_adc22+1)^(0+128),w
  1643  0F81  1283               	bcf	3,5	;RP0=0, select bank0
  1644  0F82  1303               	bcf	3,6	;RP1=0, select bank0
  1645  0F83  00D6               	movwf	int_strd@n+1
  1646  0F84  1683               	bsf	3,5	;RP0=1, select bank1
  1647  0F85  1303               	bcf	3,6	;RP1=0, select bank1
  1648  0F86  082A               	movf	_adc22^(0+128),w
  1649  0F87  1283               	bcf	3,5	;RP0=0, select bank0
  1650  0F88  1303               	bcf	3,6	;RP1=0, select bank0
  1651  0F89  00D5               	movwf	int_strd@n
  1652  0F8A  120A  158A  20AD  120A  158A  	fcall	_int_strd
  1653  0F8F  1283               	bcf	3,5	;RP0=0, select bank0
  1654  0F90  1303               	bcf	3,6	;RP1=0, select bank0
  1655  0F91  00E7               	movwf	??_main
  1656  0F92  0867               	movf	??_main,w
  1657  0F93  1683               	bsf	3,5	;RP0=1, select bank1
  1658  0F94  1303               	bcf	3,6	;RP1=0, select bank1
  1659  0F95  00BB               	movwf	(main@s2^(0+128)+2)
  1660  0F96                     l2892:	
  1661                           
  1662                           ;Lab3.c: 112:         s2[3] = int_strc(adc22);
  1663  0F96  082D               	movf	(_adc22+3)^(0+128),w
  1664  0F97  1283               	bcf	3,5	;RP0=0, select bank0
  1665  0F98  1303               	bcf	3,6	;RP1=0, select bank0
  1666  0F99  00D8               	movwf	int_strc@n+3
  1667  0F9A  1683               	bsf	3,5	;RP0=1, select bank1
  1668  0F9B  1303               	bcf	3,6	;RP1=0, select bank1
  1669  0F9C  082C               	movf	(_adc22+2)^(0+128),w
  1670  0F9D  1283               	bcf	3,5	;RP0=0, select bank0
  1671  0F9E  1303               	bcf	3,6	;RP1=0, select bank0
  1672  0F9F  00D7               	movwf	int_strc@n+2
  1673  0FA0  1683               	bsf	3,5	;RP0=1, select bank1
  1674  0FA1  1303               	bcf	3,6	;RP1=0, select bank1
  1675  0FA2  082B               	movf	(_adc22+1)^(0+128),w
  1676  0FA3  1283               	bcf	3,5	;RP0=0, select bank0
  1677  0FA4  1303               	bcf	3,6	;RP1=0, select bank0
  1678  0FA5  00D6               	movwf	int_strc@n+1
  1679  0FA6  1683               	bsf	3,5	;RP0=1, select bank1
  1680  0FA7  1303               	bcf	3,6	;RP1=0, select bank1
  1681  0FA8  082A               	movf	_adc22^(0+128),w
  1682  0FA9  1283               	bcf	3,5	;RP0=0, select bank0
  1683  0FAA  1303               	bcf	3,6	;RP1=0, select bank0
  1684  0FAB  00D5               	movwf	int_strc@n
  1685  0FAC  120A  158A  2381  120A  158A  	fcall	_int_strc
  1686  0FB1  1283               	bcf	3,5	;RP0=0, select bank0
  1687  0FB2  1303               	bcf	3,6	;RP1=0, select bank0
  1688  0FB3  00E7               	movwf	??_main
  1689  0FB4  0867               	movf	??_main,w
  1690  0FB5  1683               	bsf	3,5	;RP0=1, select bank1
  1691  0FB6  1303               	bcf	3,6	;RP1=0, select bank1
  1692  0FB7  00BC               	movwf	(main@s2^(0+128)+3)
  1693  0FB8                     l2894:	
  1694                           
  1695                           ;Lab3.c: 113:         Lcd_Write_String(s2);
  1696  0FB8  30B9               	movlw	(low (main@s2| 0))& (0+255)
  1697  0FB9  00F3               	movwf	Lcd_Write_String@a
  1698  0FBA  3000               	movlw	0
  1699  0FBB  00F4               	movwf	Lcd_Write_String@a+1
  1700  0FBC  160A  118A  269E  120A  158A  	fcall	_Lcd_Write_String
  1701  0FC1                     l2896:	
  1702                           
  1703                           ;Lab3.c: 114:         _delay((unsigned long)((2000)*(4000000/4000.0)));
  1704  0FC1  300B               	movlw	11
  1705  0FC2  1283               	bcf	3,5	;RP0=0, select bank0
  1706  0FC3  1303               	bcf	3,6	;RP1=0, select bank0
  1707  0FC4  00E9               	movwf	??_main+2
  1708  0FC5  3026               	movlw	38
  1709  0FC6  00E8               	movwf	??_main+1
  1710  0FC7  305D               	movlw	93
  1711  0FC8  00E7               	movwf	??_main
  1712  0FC9                     u3577:	
  1713  0FC9  0BE7               	decfsz	??_main,f
  1714  0FCA  2FC9               	goto	u3577
  1715  0FCB  0BE8               	decfsz	??_main+1,f
  1716  0FCC  2FC9               	goto	u3577
  1717  0FCD  0BE9               	decfsz	??_main+2,f
  1718  0FCE  2FC9               	goto	u3577
  1719  0FCF                     l2898:	
  1720                           
  1721                           ;Lab3.c: 117:         UART_Write(adc11);
  1722  0FCF  1683               	bsf	3,5	;RP0=1, select bank1
  1723  0FD0  1303               	bcf	3,6	;RP1=0, select bank1
  1724  0FD1  0831               	movf	(_adc11+3)^(0+128),w
  1725  0FD2  1283               	bcf	3,5	;RP0=0, select bank0
  1726  0FD3  1303               	bcf	3,6	;RP1=0, select bank0
  1727  0FD4  00CD               	movwf	___fltol@f1+3
  1728  0FD5  1683               	bsf	3,5	;RP0=1, select bank1
  1729  0FD6  1303               	bcf	3,6	;RP1=0, select bank1
  1730  0FD7  0830               	movf	(_adc11+2)^(0+128),w
  1731  0FD8  1283               	bcf	3,5	;RP0=0, select bank0
  1732  0FD9  1303               	bcf	3,6	;RP1=0, select bank0
  1733  0FDA  00CC               	movwf	___fltol@f1+2
  1734  0FDB  1683               	bsf	3,5	;RP0=1, select bank1
  1735  0FDC  1303               	bcf	3,6	;RP1=0, select bank1
  1736  0FDD  082F               	movf	(_adc11+1)^(0+128),w
  1737  0FDE  1283               	bcf	3,5	;RP0=0, select bank0
  1738  0FDF  1303               	bcf	3,6	;RP1=0, select bank0
  1739  0FE0  00CB               	movwf	___fltol@f1+1
  1740  0FE1  1683               	bsf	3,5	;RP0=1, select bank1
  1741  0FE2  1303               	bcf	3,6	;RP1=0, select bank1
  1742  0FE3  082E               	movf	_adc11^(0+128),w
  1743  0FE4  1283               	bcf	3,5	;RP0=0, select bank0
  1744  0FE5  1303               	bcf	3,6	;RP1=0, select bank0
  1745  0FE6  00CA               	movwf	___fltol@f1
  1746  0FE7  160A  118A  2784  120A  158A  	fcall	___fltol
  1747  0FEC  1283               	bcf	3,5	;RP0=0, select bank0
  1748  0FED  1303               	bcf	3,6	;RP1=0, select bank0
  1749  0FEE  084A               	movf	?___fltol,w
  1750  0FEF  160A  118A  25C4  120A  158A  	fcall	_UART_Write
  1751  0FF4                     l2900:	
  1752                           
  1753                           ;Lab3.c: 118:         UART_Write(adc2);
  1754  0FF4  1683               	bsf	3,5	;RP0=1, select bank1
  1755  0FF5  1303               	bcf	3,6	;RP1=0, select bank1
  1756  0FF6  0832               	movf	_adc2^(0+128),w
  1757  0FF7  160A  118A  25C4  120A  158A  	fcall	_UART_Write
  1758  0FFC  2DB6               	goto	l2836
  1759  0FFD  120A  118A  2800   	ljmp	start
  1760  1000                     __end_of_main:	
  1761                           
  1762                           	psect	text1
  1763  094D                     __ptext1:	
  1764 ;; *************** function _int_stre *****************
  1765 ;; Defined at:
  1766 ;;		line 122 in file "Lab3.c"
  1767 ;; Parameters:    Size  Location     Type
  1768 ;;  n               4   53[BANK0 ] float 
  1769 ;; Auto vars:     Size  Location     Type
  1770 ;;  loca            1   68[BANK0 ] unsigned char 
  1771 ;;  d               1   67[BANK0 ] unsigned char 
  1772 ;;  e               1   66[BANK0 ] unsigned char 
  1773 ;;  c1              1   65[BANK0 ] unsigned char 
  1774 ;;  c               1   64[BANK0 ] unsigned char 
  1775 ;;  c3              1    0        unsigned char 
  1776 ;;  c2              1    0        unsigned char 
  1777 ;; Return value:  Size  Location     Type
  1778 ;;                  1    wreg      unsigned char 
  1779 ;; Registers used:
  1780 ;;		wreg, fsr0l, fsr0h, status,2, status,0, btemp+1, pclath, cstack
  1781 ;; Tracked objects:
  1782 ;;		On entry : 0/0
  1783 ;;		On exit  : 0/0
  1784 ;;		Unchanged: 0/0
  1785 ;; Data sizes:     COMMON   BANK0   BANK1   BANK3   BANK2
  1786 ;;      Params:         0       4       0       0       0
  1787 ;;      Locals:         0       7       0       0       0
  1788 ;;      Temps:          0       5       0       0       0
  1789 ;;      Totals:         0      16       0       0       0
  1790 ;;Total ram usage:       16 bytes
  1791 ;; Hardware stack levels used:    1
  1792 ;; Hardware stack levels required when called:    2
  1793 ;; This function calls:
  1794 ;;		___bmul
  1795 ;;		___flmul
  1796 ;;		___flsub
  1797 ;;		___fltol
  1798 ;;		___xxtofl
  1799 ;;		_num_case
  1800 ;; This function is called by:
  1801 ;;		_main
  1802 ;; This function uses a non-reentrant model
  1803 ;;
  1804                           
  1805                           
  1806                           ;psect for function _int_stre
  1807  094D                     _int_stre:	
  1808  094D                     l2612:	
  1809                           ;incstack = 0
  1810                           ; Regs used in _int_stre: [wreg-fsr0h+status,2+status,0+btemp+1+pclath+cstack]
  1811                           
  1812                           
  1813                           ;Lab3.c: 123:     uint8_t e;;Lab3.c: 124:     uint8_t d;;Lab3.c: 125:     uint8_t c;;Lab
      +                          3.c: 126:     uint8_t loca;;Lab3.c: 127:     char c1;;Lab3.c: 128:     char c2;;Lab3.c: 
      +                          129:     char c3;;Lab3.c: 131:     e = n;
  1814  094D  1283               	bcf	3,5	;RP0=0, select bank0
  1815  094E  1303               	bcf	3,6	;RP1=0, select bank0
  1816  094F  0858               	movf	int_stre@n+3,w
  1817  0950  00CD               	movwf	___fltol@f1+3
  1818  0951  0857               	movf	int_stre@n+2,w
  1819  0952  00CC               	movwf	___fltol@f1+2
  1820  0953  0856               	movf	int_stre@n+1,w
  1821  0954  00CB               	movwf	___fltol@f1+1
  1822  0955  0855               	movf	int_stre@n,w
  1823  0956  00CA               	movwf	___fltol@f1
  1824  0957  160A  118A  2784  120A  158A  	fcall	___fltol
  1825  095C  1283               	bcf	3,5	;RP0=0, select bank0
  1826  095D  1303               	bcf	3,6	;RP1=0, select bank0
  1827  095E  084A               	movf	?___fltol,w
  1828  095F  00D9               	movwf	??_int_stre
  1829  0960  0859               	movf	??_int_stre,w
  1830  0961  00E2               	movwf	int_stre@e
  1831  0962                     l2614:	
  1832                           
  1833                           ;Lab3.c: 132:     c1 = num_case(e);
  1834  0962  0862               	movf	int_stre@e,w
  1835  0963  160A  118A  2726  120A  158A  	fcall	_num_case
  1836  0968  1283               	bcf	3,5	;RP0=0, select bank0
  1837  0969  1303               	bcf	3,6	;RP1=0, select bank0
  1838  096A  00D9               	movwf	??_int_stre
  1839  096B  0859               	movf	??_int_stre,w
  1840  096C  00E1               	movwf	int_stre@c1
  1841  096D                     l2616:	
  1842                           
  1843                           ;Lab3.c: 133:     loca = (n - e)*10;
  1844  096D  0858               	movf	int_stre@n+3,w
  1845  096E  00AF               	movwf	___flsub@b+3
  1846  096F  0857               	movf	int_stre@n+2,w
  1847  0970  00AE               	movwf	___flsub@b+2
  1848  0971  0856               	movf	int_stre@n+1,w
  1849  0972  00AD               	movwf	___flsub@b+1
  1850  0973  0855               	movf	int_stre@n,w
  1851  0974  00AC               	movwf	___flsub@b
  1852  0975  0862               	movf	int_stre@e,w
  1853  0976  00D9               	movwf	??_int_stre
  1854  0977  01DA               	clrf	??_int_stre+1
  1855  0978  01DB               	clrf	??_int_stre+2
  1856  0979  01DC               	clrf	??_int_stre+3
  1857  097A  085C               	movf	??_int_stre+3,w
  1858  097B  00F3               	movwf	___xxtofl@val+3
  1859  097C  085B               	movf	??_int_stre+2,w
  1860  097D  00F2               	movwf	___xxtofl@val+2
  1861  097E  085A               	movf	??_int_stre+1,w
  1862  097F  00F1               	movwf	___xxtofl@val+1
  1863  0980  0859               	movf	??_int_stre,w
  1864  0981  00F0               	movwf	___xxtofl@val
  1865  0982  3001               	movlw	1
  1866  0983  120A  158A  21ED  120A  158A  	fcall	___xxtofl
  1867  0988  0873               	movf	?___xxtofl+3,w
  1868  0989  1283               	bcf	3,5	;RP0=0, select bank0
  1869  098A  1303               	bcf	3,6	;RP1=0, select bank0
  1870  098B  00AB               	movwf	___flsub@a+3
  1871  098C  0872               	movf	?___xxtofl+2,w
  1872  098D  00AA               	movwf	___flsub@a+2
  1873  098E  0871               	movf	?___xxtofl+1,w
  1874  098F  00A9               	movwf	___flsub@a+1
  1875  0990  0870               	movf	?___xxtofl,w
  1876  0991  00A8               	movwf	___flsub@a
  1877  0992  160A  118A  2615  120A  158A  	fcall	___flsub
  1878  0997  1283               	bcf	3,5	;RP0=0, select bank0
  1879  0998  1303               	bcf	3,6	;RP1=0, select bank0
  1880  0999  082B               	movf	?___flsub+3,w
  1881  099A  00B7               	movwf	___flmul@a+3
  1882  099B  082A               	movf	?___flsub+2,w
  1883  099C  00B6               	movwf	___flmul@a+2
  1884  099D  0829               	movf	?___flsub+1,w
  1885  099E  00B5               	movwf	___flmul@a+1
  1886  099F  0828               	movf	?___flsub,w
  1887  09A0  00B4               	movwf	___flmul@a
  1888  09A1  3041               	movlw	65
  1889  09A2  00B3               	movwf	___flmul@b+3
  1890  09A3  3020               	movlw	32
  1891  09A4  00B2               	movwf	___flmul@b+2
  1892  09A5  3000               	movlw	0
  1893  09A6  00B1               	movwf	___flmul@b+1
  1894  09A7  3000               	movlw	0
  1895  09A8  00B0               	movwf	___flmul@b
  1896  09A9  120A  118A  248E  120A  158A  	fcall	___flmul
  1897  09AE  1283               	bcf	3,5	;RP0=0, select bank0
  1898  09AF  1303               	bcf	3,6	;RP1=0, select bank0
  1899  09B0  0833               	movf	?___flmul+3,w
  1900  09B1  00CD               	movwf	___fltol@f1+3
  1901  09B2  0832               	movf	?___flmul+2,w
  1902  09B3  00CC               	movwf	___fltol@f1+2
  1903  09B4  0831               	movf	?___flmul+1,w
  1904  09B5  00CB               	movwf	___fltol@f1+1
  1905  09B6  0830               	movf	?___flmul,w
  1906  09B7  00CA               	movwf	___fltol@f1
  1907  09B8  160A  118A  2784  120A  158A  	fcall	___fltol
  1908  09BD  1283               	bcf	3,5	;RP0=0, select bank0
  1909  09BE  1303               	bcf	3,6	;RP1=0, select bank0
  1910  09BF  084A               	movf	?___fltol,w
  1911  09C0  00DD               	movwf	??_int_stre+4
  1912  09C1  085D               	movf	??_int_stre+4,w
  1913  09C2  00E4               	movwf	int_stre@loca
  1914  09C3                     l2618:	
  1915                           
  1916                           ;Lab3.c: 134:     d = loca;
  1917  09C3  0864               	movf	int_stre@loca,w
  1918  09C4  00D9               	movwf	??_int_stre
  1919  09C5  0859               	movf	??_int_stre,w
  1920  09C6  00E3               	movwf	int_stre@d
  1921  09C7                     l2620:	
  1922  09C7  0863               	movf	int_stre@d,w
  1923  09C8  160A  118A  2726  120A  158A  	fcall	_num_case
  1924  09CD                     l2622:	
  1925                           
  1926                           ;Lab3.c: 136:     loca = (loca-d)*10;
  1927  09CD  300A               	movlw	10
  1928  09CE  1283               	bcf	3,5	;RP0=0, select bank0
  1929  09CF  1303               	bcf	3,6	;RP1=0, select bank0
  1930  09D0  00D9               	movwf	??_int_stre
  1931  09D1  0859               	movf	??_int_stre,w
  1932  09D2  00F0               	movwf	___bmul@multiplicand
  1933  09D3  0863               	movf	int_stre@d,w
  1934  09D4  0264               	subwf	int_stre@loca,w
  1935  09D5  120A  118A  2004  120A  158A  	fcall	___bmul
  1936  09DA  1283               	bcf	3,5	;RP0=0, select bank0
  1937  09DB  1303               	bcf	3,6	;RP1=0, select bank0
  1938  09DC  00DA               	movwf	??_int_stre+1
  1939  09DD  085A               	movf	??_int_stre+1,w
  1940  09DE  00E4               	movwf	int_stre@loca
  1941  09DF                     l2624:	
  1942                           
  1943                           ;Lab3.c: 137:     c = loca;
  1944  09DF  0864               	movf	int_stre@loca,w
  1945  09E0  00D9               	movwf	??_int_stre
  1946  09E1  0859               	movf	??_int_stre,w
  1947  09E2  00E0               	movwf	int_stre@c
  1948  09E3                     l2626:	
  1949  09E3  0860               	movf	int_stre@c,w
  1950  09E4  160A  118A  2726  120A  158A  	fcall	_num_case
  1951  09E9                     l2628:	
  1952                           
  1953                           ;Lab3.c: 139:     return c1;
  1954  09E9  1283               	bcf	3,5	;RP0=0, select bank0
  1955  09EA  1303               	bcf	3,6	;RP1=0, select bank0
  1956  09EB  0861               	movf	int_stre@c1,w
  1957  09EC                     l195:	
  1958  09EC  0008               	return
  1959  09ED                     __end_of_int_stre:	
  1960                           
  1961                           	psect	text2
  1962  08AD                     __ptext2:	
  1963 ;; *************** function _int_strd *****************
  1964 ;; Defined at:
  1965 ;;		line 142 in file "Lab3.c"
  1966 ;; Parameters:    Size  Location     Type
  1967 ;;  n               4   53[BANK0 ] float 
  1968 ;; Auto vars:     Size  Location     Type
  1969 ;;  loca            1   68[BANK0 ] unsigned char 
  1970 ;;  d               1   67[BANK0 ] unsigned char 
  1971 ;;  e               1   66[BANK0 ] unsigned char 
  1972 ;;  c2              1   65[BANK0 ] unsigned char 
  1973 ;;  c               1   64[BANK0 ] unsigned char 
  1974 ;;  c3              1    0        unsigned char 
  1975 ;;  c1              1    0        unsigned char 
  1976 ;; Return value:  Size  Location     Type
  1977 ;;                  1    wreg      unsigned char 
  1978 ;; Registers used:
  1979 ;;		wreg, fsr0l, fsr0h, status,2, status,0, btemp+1, pclath, cstack
  1980 ;; Tracked objects:
  1981 ;;		On entry : 0/0
  1982 ;;		On exit  : 0/0
  1983 ;;		Unchanged: 0/0
  1984 ;; Data sizes:     COMMON   BANK0   BANK1   BANK3   BANK2
  1985 ;;      Params:         0       4       0       0       0
  1986 ;;      Locals:         0       7       0       0       0
  1987 ;;      Temps:          0       5       0       0       0
  1988 ;;      Totals:         0      16       0       0       0
  1989 ;;Total ram usage:       16 bytes
  1990 ;; Hardware stack levels used:    1
  1991 ;; Hardware stack levels required when called:    2
  1992 ;; This function calls:
  1993 ;;		___bmul
  1994 ;;		___flmul
  1995 ;;		___flsub
  1996 ;;		___fltol
  1997 ;;		___xxtofl
  1998 ;;		_num_case
  1999 ;; This function is called by:
  2000 ;;		_main
  2001 ;; This function uses a non-reentrant model
  2002 ;;
  2003                           
  2004                           
  2005                           ;psect for function _int_strd
  2006  08AD                     _int_strd:	
  2007  08AD                     l2632:	
  2008                           ;incstack = 0
  2009                           ; Regs used in _int_strd: [wreg-fsr0h+status,2+status,0+btemp+1+pclath+cstack]
  2010                           
  2011                           
  2012                           ;Lab3.c: 143:     uint8_t e;;Lab3.c: 144:     uint8_t d;;Lab3.c: 145:     uint8_t c;;Lab
      +                          3.c: 146:     uint8_t loca;;Lab3.c: 147:     char c1;;Lab3.c: 148:     char c2;;Lab3.c: 
      +                          149:     char c3;;Lab3.c: 151:     e = n;
  2013  08AD  1283               	bcf	3,5	;RP0=0, select bank0
  2014  08AE  1303               	bcf	3,6	;RP1=0, select bank0
  2015  08AF  0858               	movf	int_strd@n+3,w
  2016  08B0  00CD               	movwf	___fltol@f1+3
  2017  08B1  0857               	movf	int_strd@n+2,w
  2018  08B2  00CC               	movwf	___fltol@f1+2
  2019  08B3  0856               	movf	int_strd@n+1,w
  2020  08B4  00CB               	movwf	___fltol@f1+1
  2021  08B5  0855               	movf	int_strd@n,w
  2022  08B6  00CA               	movwf	___fltol@f1
  2023  08B7  160A  118A  2784  120A  158A  	fcall	___fltol
  2024  08BC  1283               	bcf	3,5	;RP0=0, select bank0
  2025  08BD  1303               	bcf	3,6	;RP1=0, select bank0
  2026  08BE  084A               	movf	?___fltol,w
  2027  08BF  00D9               	movwf	??_int_strd
  2028  08C0  0859               	movf	??_int_strd,w
  2029  08C1  00E2               	movwf	int_strd@e
  2030  08C2                     l2634:	
  2031  08C2  0862               	movf	int_strd@e,w
  2032  08C3  160A  118A  2726  120A  158A  	fcall	_num_case
  2033  08C8                     l2636:	
  2034                           
  2035                           ;Lab3.c: 153:     loca = (n - e)*10;
  2036  08C8  1283               	bcf	3,5	;RP0=0, select bank0
  2037  08C9  1303               	bcf	3,6	;RP1=0, select bank0
  2038  08CA  0858               	movf	int_strd@n+3,w
  2039  08CB  00AF               	movwf	___flsub@b+3
  2040  08CC  0857               	movf	int_strd@n+2,w
  2041  08CD  00AE               	movwf	___flsub@b+2
  2042  08CE  0856               	movf	int_strd@n+1,w
  2043  08CF  00AD               	movwf	___flsub@b+1
  2044  08D0  0855               	movf	int_strd@n,w
  2045  08D1  00AC               	movwf	___flsub@b
  2046  08D2  0862               	movf	int_strd@e,w
  2047  08D3  00D9               	movwf	??_int_strd
  2048  08D4  01DA               	clrf	??_int_strd+1
  2049  08D5  01DB               	clrf	??_int_strd+2
  2050  08D6  01DC               	clrf	??_int_strd+3
  2051  08D7  085C               	movf	??_int_strd+3,w
  2052  08D8  00F3               	movwf	___xxtofl@val+3
  2053  08D9  085B               	movf	??_int_strd+2,w
  2054  08DA  00F2               	movwf	___xxtofl@val+2
  2055  08DB  085A               	movf	??_int_strd+1,w
  2056  08DC  00F1               	movwf	___xxtofl@val+1
  2057  08DD  0859               	movf	??_int_strd,w
  2058  08DE  00F0               	movwf	___xxtofl@val
  2059  08DF  3001               	movlw	1
  2060  08E0  120A  158A  21ED  120A  158A  	fcall	___xxtofl
  2061  08E5  0873               	movf	?___xxtofl+3,w
  2062  08E6  1283               	bcf	3,5	;RP0=0, select bank0
  2063  08E7  1303               	bcf	3,6	;RP1=0, select bank0
  2064  08E8  00AB               	movwf	___flsub@a+3
  2065  08E9  0872               	movf	?___xxtofl+2,w
  2066  08EA  00AA               	movwf	___flsub@a+2
  2067  08EB  0871               	movf	?___xxtofl+1,w
  2068  08EC  00A9               	movwf	___flsub@a+1
  2069  08ED  0870               	movf	?___xxtofl,w
  2070  08EE  00A8               	movwf	___flsub@a
  2071  08EF  160A  118A  2615  120A  158A  	fcall	___flsub
  2072  08F4  1283               	bcf	3,5	;RP0=0, select bank0
  2073  08F5  1303               	bcf	3,6	;RP1=0, select bank0
  2074  08F6  082B               	movf	?___flsub+3,w
  2075  08F7  00B7               	movwf	___flmul@a+3
  2076  08F8  082A               	movf	?___flsub+2,w
  2077  08F9  00B6               	movwf	___flmul@a+2
  2078  08FA  0829               	movf	?___flsub+1,w
  2079  08FB  00B5               	movwf	___flmul@a+1
  2080  08FC  0828               	movf	?___flsub,w
  2081  08FD  00B4               	movwf	___flmul@a
  2082  08FE  3041               	movlw	65
  2083  08FF  00B3               	movwf	___flmul@b+3
  2084  0900  3020               	movlw	32
  2085  0901  00B2               	movwf	___flmul@b+2
  2086  0902  3000               	movlw	0
  2087  0903  00B1               	movwf	___flmul@b+1
  2088  0904  3000               	movlw	0
  2089  0905  00B0               	movwf	___flmul@b
  2090  0906  120A  118A  248E  120A  158A  	fcall	___flmul
  2091  090B  1283               	bcf	3,5	;RP0=0, select bank0
  2092  090C  1303               	bcf	3,6	;RP1=0, select bank0
  2093  090D  0833               	movf	?___flmul+3,w
  2094  090E  00CD               	movwf	___fltol@f1+3
  2095  090F  0832               	movf	?___flmul+2,w
  2096  0910  00CC               	movwf	___fltol@f1+2
  2097  0911  0831               	movf	?___flmul+1,w
  2098  0912  00CB               	movwf	___fltol@f1+1
  2099  0913  0830               	movf	?___flmul,w
  2100  0914  00CA               	movwf	___fltol@f1
  2101  0915  160A  118A  2784  120A  158A  	fcall	___fltol
  2102  091A  1283               	bcf	3,5	;RP0=0, select bank0
  2103  091B  1303               	bcf	3,6	;RP1=0, select bank0
  2104  091C  084A               	movf	?___fltol,w
  2105  091D  00DD               	movwf	??_int_strd+4
  2106  091E  085D               	movf	??_int_strd+4,w
  2107  091F  00E4               	movwf	int_strd@loca
  2108  0920                     l2638:	
  2109                           
  2110                           ;Lab3.c: 154:     d = loca;
  2111  0920  0864               	movf	int_strd@loca,w
  2112  0921  00D9               	movwf	??_int_strd
  2113  0922  0859               	movf	??_int_strd,w
  2114  0923  00E3               	movwf	int_strd@d
  2115  0924                     l2640:	
  2116                           
  2117                           ;Lab3.c: 155:     c2 = num_case(d);
  2118  0924  0863               	movf	int_strd@d,w
  2119  0925  160A  118A  2726  120A  158A  	fcall	_num_case
  2120  092A  1283               	bcf	3,5	;RP0=0, select bank0
  2121  092B  1303               	bcf	3,6	;RP1=0, select bank0
  2122  092C  00D9               	movwf	??_int_strd
  2123  092D  0859               	movf	??_int_strd,w
  2124  092E  00E1               	movwf	int_strd@c2
  2125  092F                     l2642:	
  2126                           
  2127                           ;Lab3.c: 156:     loca = (loca-d)*10;
  2128  092F  300A               	movlw	10
  2129  0930  00D9               	movwf	??_int_strd
  2130  0931  0859               	movf	??_int_strd,w
  2131  0932  00F0               	movwf	___bmul@multiplicand
  2132  0933  0863               	movf	int_strd@d,w
  2133  0934  0264               	subwf	int_strd@loca,w
  2134  0935  120A  118A  2004  120A  158A  	fcall	___bmul
  2135  093A  1283               	bcf	3,5	;RP0=0, select bank0
  2136  093B  1303               	bcf	3,6	;RP1=0, select bank0
  2137  093C  00DA               	movwf	??_int_strd+1
  2138  093D  085A               	movf	??_int_strd+1,w
  2139  093E  00E4               	movwf	int_strd@loca
  2140  093F                     l2644:	
  2141                           
  2142                           ;Lab3.c: 157:     c = loca;
  2143  093F  0864               	movf	int_strd@loca,w
  2144  0940  00D9               	movwf	??_int_strd
  2145  0941  0859               	movf	??_int_strd,w
  2146  0942  00E0               	movwf	int_strd@c
  2147  0943                     l2646:	
  2148  0943  0860               	movf	int_strd@c,w
  2149  0944  160A  118A  2726  120A  158A  	fcall	_num_case
  2150  0949                     l2648:	
  2151                           
  2152                           ;Lab3.c: 159:     return c2;
  2153  0949  1283               	bcf	3,5	;RP0=0, select bank0
  2154  094A  1303               	bcf	3,6	;RP1=0, select bank0
  2155  094B  0861               	movf	int_strd@c2,w
  2156  094C                     l198:	
  2157  094C  0008               	return
  2158  094D                     __end_of_int_strd:	
  2159                           
  2160                           	psect	text3
  2161  0004                     __ptext3:	
  2162 ;; *************** function ___bmul *****************
  2163 ;; Defined at:
  2164 ;;		line 4 in file "C:\Program Files (x86)\Microchip\xc8\v2.10\pic\sources\c90\common\Umul8.c"
  2165 ;; Parameters:    Size  Location     Type
  2166 ;;  multiplier      1    wreg     unsigned char 
  2167 ;;  multiplicand    1    0[COMMON] unsigned char 
  2168 ;; Auto vars:     Size  Location     Type
  2169 ;;  multiplier      1    3[COMMON] unsigned char 
  2170 ;;  product         1    2[COMMON] unsigned char 
  2171 ;; Return value:  Size  Location     Type
  2172 ;;                  1    wreg      unsigned char 
  2173 ;; Registers used:
  2174 ;;		wreg, status,2, status,0
  2175 ;; Tracked objects:
  2176 ;;		On entry : 0/0
  2177 ;;		On exit  : 0/0
  2178 ;;		Unchanged: 0/0
  2179 ;; Data sizes:     COMMON   BANK0   BANK1   BANK3   BANK2
  2180 ;;      Params:         1       0       0       0       0
  2181 ;;      Locals:         2       0       0       0       0
  2182 ;;      Temps:          1       0       0       0       0
  2183 ;;      Totals:         4       0       0       0       0
  2184 ;;Total ram usage:        4 bytes
  2185 ;; Hardware stack levels used:    1
  2186 ;; This function calls:
  2187 ;;		Nothing
  2188 ;; This function is called by:
  2189 ;;		_int_stre
  2190 ;;		_int_strd
  2191 ;; This function uses a non-reentrant model
  2192 ;;
  2193                           
  2194                           
  2195                           ;psect for function ___bmul
  2196  0004                     ___bmul:	
  2197                           
  2198                           ;incstack = 0
  2199                           ; Regs used in ___bmul: [wreg+status,2+status,0]
  2200                           ;___bmul@multiplier stored from wreg
  2201  0004  00F3               	movwf	___bmul@multiplier
  2202  0005                     l2190:	
  2203  0005  01F2               	clrf	___bmul@product
  2204  0006                     l2192:	
  2205  0006  1C73               	btfss	___bmul@multiplier,0
  2206  0007  2809               	goto	u2351
  2207  0008  280A               	goto	u2350
  2208  0009                     u2351:	
  2209  0009  280E               	goto	l2196
  2210  000A                     u2350:	
  2211  000A                     l2194:	
  2212  000A  0870               	movf	___bmul@multiplicand,w
  2213  000B  00F1               	movwf	??___bmul
  2214  000C  0871               	movf	??___bmul,w
  2215  000D  07F2               	addwf	___bmul@product,f
  2216  000E                     l2196:	
  2217  000E  1003               	clrc
  2218  000F  0DF0               	rlf	___bmul@multiplicand,f
  2219  0010                     l2198:	
  2220  0010  1003               	clrc
  2221  0011  0CF3               	rrf	___bmul@multiplier,f
  2222  0012  0873               	movf	___bmul@multiplier,w
  2223  0013  1D03               	btfss	3,2
  2224  0014  2816               	goto	u2361
  2225  0015  2817               	goto	u2360
  2226  0016                     u2361:	
  2227  0016  2806               	goto	l2192
  2228  0017                     u2360:	
  2229  0017                     l2200:	
  2230  0017  0872               	movf	___bmul@product,w
  2231  0018                     l364:	
  2232  0018  0008               	return
  2233  0019                     __end_of___bmul:	
  2234                           
  2235                           	psect	text4
  2236  0B81                     __ptext4:	
  2237 ;; *************** function _int_strc *****************
  2238 ;; Defined at:
  2239 ;;		line 161 in file "Lab3.c"
  2240 ;; Parameters:    Size  Location     Type
  2241 ;;  n               4   53[BANK0 ] float 
  2242 ;; Auto vars:     Size  Location     Type
  2243 ;;  loca            4   67[BANK0 ] float 
  2244 ;;  d               1   66[BANK0 ] unsigned char 
  2245 ;;  e               1   65[BANK0 ] unsigned char 
  2246 ;;  c3              1   64[BANK0 ] unsigned char 
  2247 ;;  c               1   63[BANK0 ] unsigned char 
  2248 ;;  c2              1    0        unsigned char 
  2249 ;;  c1              1    0        unsigned char 
  2250 ;; Return value:  Size  Location     Type
  2251 ;;                  1    wreg      unsigned char 
  2252 ;; Registers used:
  2253 ;;		wreg, fsr0l, fsr0h, status,2, status,0, btemp+1, pclath, cstack
  2254 ;; Tracked objects:
  2255 ;;		On entry : 0/0
  2256 ;;		On exit  : 0/0
  2257 ;;		Unchanged: 0/0
  2258 ;; Data sizes:     COMMON   BANK0   BANK1   BANK3   BANK2
  2259 ;;      Params:         0       4       0       0       0
  2260 ;;      Locals:         0      10       0       0       0
  2261 ;;      Temps:          0       4       0       0       0
  2262 ;;      Totals:         0      18       0       0       0
  2263 ;;Total ram usage:       18 bytes
  2264 ;; Hardware stack levels used:    1
  2265 ;; Hardware stack levels required when called:    2
  2266 ;; This function calls:
  2267 ;;		___flmul
  2268 ;;		___flsub
  2269 ;;		___fltol
  2270 ;;		___xxtofl
  2271 ;;		_num_case
  2272 ;; This function is called by:
  2273 ;;		_main
  2274 ;; This function uses a non-reentrant model
  2275 ;;
  2276                           
  2277                           
  2278                           ;psect for function _int_strc
  2279  0B81                     _int_strc:	
  2280  0B81                     l2652:	
  2281                           ;incstack = 0
  2282                           ; Regs used in _int_strc: [wreg-fsr0h+status,2+status,0+btemp+1+pclath+cstack]
  2283                           
  2284                           
  2285                           ;Lab3.c: 162:     uint8_t e;;Lab3.c: 163:     uint8_t d;;Lab3.c: 164:     uint8_t c;;Lab
      +                          3.c: 165:     float loca;;Lab3.c: 166:     char c1;;Lab3.c: 167:     char c2;;Lab3.c: 16
      +                          8:     char c3;;Lab3.c: 170:     e = n;
  2286  0B81  1283               	bcf	3,5	;RP0=0, select bank0
  2287  0B82  1303               	bcf	3,6	;RP1=0, select bank0
  2288  0B83  0858               	movf	int_strc@n+3,w
  2289  0B84  00CD               	movwf	___fltol@f1+3
  2290  0B85  0857               	movf	int_strc@n+2,w
  2291  0B86  00CC               	movwf	___fltol@f1+2
  2292  0B87  0856               	movf	int_strc@n+1,w
  2293  0B88  00CB               	movwf	___fltol@f1+1
  2294  0B89  0855               	movf	int_strc@n,w
  2295  0B8A  00CA               	movwf	___fltol@f1
  2296  0B8B  160A  118A  2784  120A  158A  	fcall	___fltol
  2297  0B90  1283               	bcf	3,5	;RP0=0, select bank0
  2298  0B91  1303               	bcf	3,6	;RP1=0, select bank0
  2299  0B92  084A               	movf	?___fltol,w
  2300  0B93  00D9               	movwf	??_int_strc
  2301  0B94  0859               	movf	??_int_strc,w
  2302  0B95  00E1               	movwf	int_strc@e
  2303  0B96                     l2654:	
  2304  0B96  0861               	movf	int_strc@e,w
  2305  0B97  160A  118A  2726  120A  158A  	fcall	_num_case
  2306  0B9C                     l2656:	
  2307                           
  2308                           ;Lab3.c: 172:     loca = (n - e)*10;
  2309  0B9C  3041               	movlw	65
  2310  0B9D  1283               	bcf	3,5	;RP0=0, select bank0
  2311  0B9E  1303               	bcf	3,6	;RP1=0, select bank0
  2312  0B9F  00B3               	movwf	___flmul@b+3
  2313  0BA0  3020               	movlw	32
  2314  0BA1  00B2               	movwf	___flmul@b+2
  2315  0BA2  3000               	movlw	0
  2316  0BA3  00B1               	movwf	___flmul@b+1
  2317  0BA4  3000               	movlw	0
  2318  0BA5  00B0               	movwf	___flmul@b
  2319  0BA6  0861               	movf	int_strc@e,w
  2320  0BA7  00D9               	movwf	??_int_strc
  2321  0BA8  01DA               	clrf	??_int_strc+1
  2322  0BA9  01DB               	clrf	??_int_strc+2
  2323  0BAA  01DC               	clrf	??_int_strc+3
  2324  0BAB  085C               	movf	??_int_strc+3,w
  2325  0BAC  00F3               	movwf	___xxtofl@val+3
  2326  0BAD  085B               	movf	??_int_strc+2,w
  2327  0BAE  00F2               	movwf	___xxtofl@val+2
  2328  0BAF  085A               	movf	??_int_strc+1,w
  2329  0BB0  00F1               	movwf	___xxtofl@val+1
  2330  0BB1  0859               	movf	??_int_strc,w
  2331  0BB2  00F0               	movwf	___xxtofl@val
  2332  0BB3  3001               	movlw	1
  2333  0BB4  120A  158A  21ED  120A  158A  	fcall	___xxtofl
  2334  0BB9  0873               	movf	?___xxtofl+3,w
  2335  0BBA  1283               	bcf	3,5	;RP0=0, select bank0
  2336  0BBB  1303               	bcf	3,6	;RP1=0, select bank0
  2337  0BBC  00AB               	movwf	___flsub@a+3
  2338  0BBD  0872               	movf	?___xxtofl+2,w
  2339  0BBE  00AA               	movwf	___flsub@a+2
  2340  0BBF  0871               	movf	?___xxtofl+1,w
  2341  0BC0  00A9               	movwf	___flsub@a+1
  2342  0BC1  0870               	movf	?___xxtofl,w
  2343  0BC2  00A8               	movwf	___flsub@a
  2344  0BC3  0858               	movf	int_strc@n+3,w
  2345  0BC4  00AF               	movwf	___flsub@b+3
  2346  0BC5  0857               	movf	int_strc@n+2,w
  2347  0BC6  00AE               	movwf	___flsub@b+2
  2348  0BC7  0856               	movf	int_strc@n+1,w
  2349  0BC8  00AD               	movwf	___flsub@b+1
  2350  0BC9  0855               	movf	int_strc@n,w
  2351  0BCA  00AC               	movwf	___flsub@b
  2352  0BCB  160A  118A  2615  120A  158A  	fcall	___flsub
  2353  0BD0  1283               	bcf	3,5	;RP0=0, select bank0
  2354  0BD1  1303               	bcf	3,6	;RP1=0, select bank0
  2355  0BD2  082B               	movf	?___flsub+3,w
  2356  0BD3  00B7               	movwf	___flmul@a+3
  2357  0BD4  082A               	movf	?___flsub+2,w
  2358  0BD5  00B6               	movwf	___flmul@a+2
  2359  0BD6  0829               	movf	?___flsub+1,w
  2360  0BD7  00B5               	movwf	___flmul@a+1
  2361  0BD8  0828               	movf	?___flsub,w
  2362  0BD9  00B4               	movwf	___flmul@a
  2363  0BDA  120A  118A  248E  120A  158A  	fcall	___flmul
  2364  0BDF  1283               	bcf	3,5	;RP0=0, select bank0
  2365  0BE0  1303               	bcf	3,6	;RP1=0, select bank0
  2366  0BE1  0833               	movf	?___flmul+3,w
  2367  0BE2  00E6               	movwf	int_strc@loca+3
  2368  0BE3  0832               	movf	?___flmul+2,w
  2369  0BE4  00E5               	movwf	int_strc@loca+2
  2370  0BE5  0831               	movf	?___flmul+1,w
  2371  0BE6  00E4               	movwf	int_strc@loca+1
  2372  0BE7  0830               	movf	?___flmul,w
  2373  0BE8  00E3               	movwf	int_strc@loca
  2374  0BE9                     l2658:	
  2375                           
  2376                           ;Lab3.c: 173:     d = loca;
  2377  0BE9  0866               	movf	int_strc@loca+3,w
  2378  0BEA  00CD               	movwf	___fltol@f1+3
  2379  0BEB  0865               	movf	int_strc@loca+2,w
  2380  0BEC  00CC               	movwf	___fltol@f1+2
  2381  0BED  0864               	movf	int_strc@loca+1,w
  2382  0BEE  00CB               	movwf	___fltol@f1+1
  2383  0BEF  0863               	movf	int_strc@loca,w
  2384  0BF0  00CA               	movwf	___fltol@f1
  2385  0BF1  160A  118A  2784  120A  158A  	fcall	___fltol
  2386  0BF6  1283               	bcf	3,5	;RP0=0, select bank0
  2387  0BF7  1303               	bcf	3,6	;RP1=0, select bank0
  2388  0BF8  084A               	movf	?___fltol,w
  2389  0BF9  00D9               	movwf	??_int_strc
  2390  0BFA  0859               	movf	??_int_strc,w
  2391  0BFB  00E2               	movwf	int_strc@d
  2392  0BFC                     l2660:	
  2393  0BFC  0862               	movf	int_strc@d,w
  2394  0BFD  160A  118A  2726  120A  158A  	fcall	_num_case
  2395                           
  2396                           ;Lab3.c: 175:     loca = (loca-d)*10;
  2397  0C02  3041               	movlw	65
  2398  0C03  1283               	bcf	3,5	;RP0=0, select bank0
  2399  0C04  1303               	bcf	3,6	;RP1=0, select bank0
  2400  0C05  00B3               	movwf	___flmul@b+3
  2401  0C06  3020               	movlw	32
  2402  0C07  00B2               	movwf	___flmul@b+2
  2403  0C08  3000               	movlw	0
  2404  0C09  00B1               	movwf	___flmul@b+1
  2405  0C0A  3000               	movlw	0
  2406  0C0B  00B0               	movwf	___flmul@b
  2407  0C0C  0862               	movf	int_strc@d,w
  2408  0C0D  00D9               	movwf	??_int_strc
  2409  0C0E  01DA               	clrf	??_int_strc+1
  2410  0C0F  01DB               	clrf	??_int_strc+2
  2411  0C10  01DC               	clrf	??_int_strc+3
  2412  0C11  085C               	movf	??_int_strc+3,w
  2413  0C12  00F3               	movwf	___xxtofl@val+3
  2414  0C13  085B               	movf	??_int_strc+2,w
  2415  0C14  00F2               	movwf	___xxtofl@val+2
  2416  0C15  085A               	movf	??_int_strc+1,w
  2417  0C16  00F1               	movwf	___xxtofl@val+1
  2418  0C17  0859               	movf	??_int_strc,w
  2419  0C18  00F0               	movwf	___xxtofl@val
  2420  0C19  3001               	movlw	1
  2421  0C1A  120A  158A  21ED  120A  158A  	fcall	___xxtofl
  2422  0C1F  0873               	movf	?___xxtofl+3,w
  2423  0C20  1283               	bcf	3,5	;RP0=0, select bank0
  2424  0C21  1303               	bcf	3,6	;RP1=0, select bank0
  2425  0C22  00AB               	movwf	___flsub@a+3
  2426  0C23  0872               	movf	?___xxtofl+2,w
  2427  0C24  00AA               	movwf	___flsub@a+2
  2428  0C25  0871               	movf	?___xxtofl+1,w
  2429  0C26  00A9               	movwf	___flsub@a+1
  2430  0C27  0870               	movf	?___xxtofl,w
  2431  0C28  00A8               	movwf	___flsub@a
  2432  0C29  0866               	movf	int_strc@loca+3,w
  2433  0C2A  00AF               	movwf	___flsub@b+3
  2434  0C2B  0865               	movf	int_strc@loca+2,w
  2435  0C2C  00AE               	movwf	___flsub@b+2
  2436  0C2D  0864               	movf	int_strc@loca+1,w
  2437  0C2E  00AD               	movwf	___flsub@b+1
  2438  0C2F  0863               	movf	int_strc@loca,w
  2439  0C30  00AC               	movwf	___flsub@b
  2440  0C31  160A  118A  2615  120A  158A  	fcall	___flsub
  2441  0C36  1283               	bcf	3,5	;RP0=0, select bank0
  2442  0C37  1303               	bcf	3,6	;RP1=0, select bank0
  2443  0C38  082B               	movf	?___flsub+3,w
  2444  0C39  00B7               	movwf	___flmul@a+3
  2445  0C3A  082A               	movf	?___flsub+2,w
  2446  0C3B  00B6               	movwf	___flmul@a+2
  2447  0C3C  0829               	movf	?___flsub+1,w
  2448  0C3D  00B5               	movwf	___flmul@a+1
  2449  0C3E  0828               	movf	?___flsub,w
  2450  0C3F  00B4               	movwf	___flmul@a
  2451  0C40  120A  118A  248E  120A  158A  	fcall	___flmul
  2452  0C45  1283               	bcf	3,5	;RP0=0, select bank0
  2453  0C46  1303               	bcf	3,6	;RP1=0, select bank0
  2454  0C47  0833               	movf	?___flmul+3,w
  2455  0C48  00E6               	movwf	int_strc@loca+3
  2456  0C49  0832               	movf	?___flmul+2,w
  2457  0C4A  00E5               	movwf	int_strc@loca+2
  2458  0C4B  0831               	movf	?___flmul+1,w
  2459  0C4C  00E4               	movwf	int_strc@loca+1
  2460  0C4D  0830               	movf	?___flmul,w
  2461  0C4E  00E3               	movwf	int_strc@loca
  2462  0C4F                     l2662:	
  2463                           
  2464                           ;Lab3.c: 176:     c = loca;
  2465  0C4F  0866               	movf	int_strc@loca+3,w
  2466  0C50  00CD               	movwf	___fltol@f1+3
  2467  0C51  0865               	movf	int_strc@loca+2,w
  2468  0C52  00CC               	movwf	___fltol@f1+2
  2469  0C53  0864               	movf	int_strc@loca+1,w
  2470  0C54  00CB               	movwf	___fltol@f1+1
  2471  0C55  0863               	movf	int_strc@loca,w
  2472  0C56  00CA               	movwf	___fltol@f1
  2473  0C57  160A  118A  2784  120A  158A  	fcall	___fltol
  2474  0C5C  1283               	bcf	3,5	;RP0=0, select bank0
  2475  0C5D  1303               	bcf	3,6	;RP1=0, select bank0
  2476  0C5E  084A               	movf	?___fltol,w
  2477  0C5F  00D9               	movwf	??_int_strc
  2478  0C60  0859               	movf	??_int_strc,w
  2479  0C61  00DF               	movwf	int_strc@c
  2480  0C62                     l2664:	
  2481                           
  2482                           ;Lab3.c: 177:     c3 = num_case(c);
  2483  0C62  085F               	movf	int_strc@c,w
  2484  0C63  160A  118A  2726  120A  158A  	fcall	_num_case
  2485  0C68  1283               	bcf	3,5	;RP0=0, select bank0
  2486  0C69  1303               	bcf	3,6	;RP1=0, select bank0
  2487  0C6A  00D9               	movwf	??_int_strc
  2488  0C6B  0859               	movf	??_int_strc,w
  2489  0C6C  00E0               	movwf	int_strc@c3
  2490  0C6D                     l2666:	
  2491                           
  2492                           ;Lab3.c: 178:     return c3;
  2493  0C6D  0860               	movf	int_strc@c3,w
  2494  0C6E                     l201:	
  2495  0C6E  0008               	return
  2496  0C6F                     __end_of_int_strc:	
  2497                           
  2498                           	psect	text5
  2499  1726                     __ptext5:	
  2500 ;; *************** function _num_case *****************
  2501 ;; Defined at:
  2502 ;;		line 181 in file "Lab3.c"
  2503 ;; Parameters:    Size  Location     Type
  2504 ;;  num             1    wreg     unsigned char 
  2505 ;; Auto vars:     Size  Location     Type
  2506 ;;  num             1    2[COMMON] unsigned char 
  2507 ;;  r               1    3[COMMON] unsigned char 
  2508 ;; Return value:  Size  Location     Type
  2509 ;;                  1    wreg      unsigned char 
  2510 ;; Registers used:
  2511 ;;		wreg, fsr0l, fsr0h, status,2, status,0
  2512 ;; Tracked objects:
  2513 ;;		On entry : 0/0
  2514 ;;		On exit  : 0/0
  2515 ;;		Unchanged: 0/0
  2516 ;; Data sizes:     COMMON   BANK0   BANK1   BANK3   BANK2
  2517 ;;      Params:         0       0       0       0       0
  2518 ;;      Locals:         2       0       0       0       0
  2519 ;;      Temps:          2       0       0       0       0
  2520 ;;      Totals:         4       0       0       0       0
  2521 ;;Total ram usage:        4 bytes
  2522 ;; Hardware stack levels used:    1
  2523 ;; This function calls:
  2524 ;;		Nothing
  2525 ;; This function is called by:
  2526 ;;		_int_stre
  2527 ;;		_int_strd
  2528 ;;		_int_strc
  2529 ;; This function uses a non-reentrant model
  2530 ;;
  2531                           
  2532                           
  2533                           ;psect for function _num_case
  2534  1726                     _num_case:	
  2535                           
  2536                           ;incstack = 0
  2537                           ; Regs used in _num_case: [wreg-fsr0h+status,2+status,0]
  2538                           ;num_case@num stored from wreg
  2539  1726  00F2               	movwf	num_case@num
  2540  1727                     l2156:	
  2541                           
  2542                           ;Lab3.c: 182:     char r;;Lab3.c: 183:     switch(num){
  2543  1727  2F5A               	goto	l2180
  2544  1728                     l2158:	
  2545                           
  2546                           ;Lab3.c: 185:             r = '0';
  2547  1728  3030               	movlw	48
  2548  1729  00F0               	movwf	??_num_case
  2549  172A  0870               	movf	??_num_case,w
  2550  172B  00F3               	movwf	num_case@r
  2551                           
  2552                           ;Lab3.c: 186:             break;
  2553  172C  2F82               	goto	l2182
  2554  172D                     l2160:	
  2555                           
  2556                           ;Lab3.c: 188:             r = '1';
  2557  172D  3031               	movlw	49
  2558  172E  00F0               	movwf	??_num_case
  2559  172F  0870               	movf	??_num_case,w
  2560  1730  00F3               	movwf	num_case@r
  2561                           
  2562                           ;Lab3.c: 189:             break;
  2563  1731  2F82               	goto	l2182
  2564  1732                     l2162:	
  2565                           
  2566                           ;Lab3.c: 191:             r = '2';
  2567  1732  3032               	movlw	50
  2568  1733  00F0               	movwf	??_num_case
  2569  1734  0870               	movf	??_num_case,w
  2570  1735  00F3               	movwf	num_case@r
  2571                           
  2572                           ;Lab3.c: 192:             break;
  2573  1736  2F82               	goto	l2182
  2574  1737                     l2164:	
  2575                           
  2576                           ;Lab3.c: 194:             r = '3';
  2577  1737  3033               	movlw	51
  2578  1738  00F0               	movwf	??_num_case
  2579  1739  0870               	movf	??_num_case,w
  2580  173A  00F3               	movwf	num_case@r
  2581                           
  2582                           ;Lab3.c: 195:             break;
  2583  173B  2F82               	goto	l2182
  2584  173C                     l2166:	
  2585                           
  2586                           ;Lab3.c: 197:             r = '4';
  2587  173C  3034               	movlw	52
  2588  173D  00F0               	movwf	??_num_case
  2589  173E  0870               	movf	??_num_case,w
  2590  173F  00F3               	movwf	num_case@r
  2591                           
  2592                           ;Lab3.c: 198:             break;
  2593  1740  2F82               	goto	l2182
  2594  1741                     l2168:	
  2595                           
  2596                           ;Lab3.c: 200:             r = '5';
  2597  1741  3035               	movlw	53
  2598  1742  00F0               	movwf	??_num_case
  2599  1743  0870               	movf	??_num_case,w
  2600  1744  00F3               	movwf	num_case@r
  2601                           
  2602                           ;Lab3.c: 201:             break;
  2603  1745  2F82               	goto	l2182
  2604  1746                     l2170:	
  2605                           
  2606                           ;Lab3.c: 203:             r = '6';
  2607  1746  3036               	movlw	54
  2608  1747  00F0               	movwf	??_num_case
  2609  1748  0870               	movf	??_num_case,w
  2610  1749  00F3               	movwf	num_case@r
  2611                           
  2612                           ;Lab3.c: 204:             break;
  2613  174A  2F82               	goto	l2182
  2614  174B                     l2172:	
  2615                           
  2616                           ;Lab3.c: 206:             r = '7';
  2617  174B  3037               	movlw	55
  2618  174C  00F0               	movwf	??_num_case
  2619  174D  0870               	movf	??_num_case,w
  2620  174E  00F3               	movwf	num_case@r
  2621                           
  2622                           ;Lab3.c: 207:             break;
  2623  174F  2F82               	goto	l2182
  2624  1750                     l2174:	
  2625                           
  2626                           ;Lab3.c: 209:             r = '8';
  2627  1750  3038               	movlw	56
  2628  1751  00F0               	movwf	??_num_case
  2629  1752  0870               	movf	??_num_case,w
  2630  1753  00F3               	movwf	num_case@r
  2631                           
  2632                           ;Lab3.c: 210:             break;
  2633  1754  2F82               	goto	l2182
  2634  1755                     l2176:	
  2635                           
  2636                           ;Lab3.c: 212:             r = '9';
  2637  1755  3039               	movlw	57
  2638  1756  00F0               	movwf	??_num_case
  2639  1757  0870               	movf	??_num_case,w
  2640  1758  00F3               	movwf	num_case@r
  2641                           
  2642                           ;Lab3.c: 213:             break;
  2643  1759  2F82               	goto	l2182
  2644  175A                     l2180:	
  2645  175A  0872               	movf	num_case@num,w
  2646  175B  00F0               	movwf	??_num_case
  2647  175C  01F1               	clrf	??_num_case+1
  2648                           
  2649                           ; Switch on 2 bytes has been partitioned into a top level switch of size 1, and 1 sub-sw
      +                          itches
  2650                           ; Switch size 1, requested type "simple"
  2651                           ; Number of cases is 1, Range of values is 0 to 0
  2652                           ; switch strategies available:
  2653                           ; Name         Instructions Cycles
  2654                           ; simple_byte            4     3 (average)
  2655                           ; direct_byte           11     8 (fixed)
  2656                           ; jumptable            260     6 (fixed)
  2657                           ;	Chosen strategy is simple_byte
  2658  175D  0871               	movf	??_num_case+1,w
  2659  175E  3A00               	xorlw	0	; case 0
  2660  175F  1903               	skipnz
  2661  1760  2F62               	goto	l2962
  2662  1761  2F82               	goto	l2182
  2663  1762                     l2962:	
  2664                           
  2665                           ; Switch size 1, requested type "simple"
  2666                           ; Number of cases is 10, Range of values is 0 to 9
  2667                           ; switch strategies available:
  2668                           ; Name         Instructions Cycles
  2669                           ; simple_byte           31    16 (average)
  2670                           ; direct_byte           38     8 (fixed)
  2671                           ; jumptable            260     6 (fixed)
  2672                           ;	Chosen strategy is simple_byte
  2673  1762  0870               	movf	??_num_case,w
  2674  1763  3A00               	xorlw	0	; case 0
  2675  1764  1903               	skipnz
  2676  1765  2F28               	goto	l2158
  2677  1766  3A01               	xorlw	1	; case 1
  2678  1767  1903               	skipnz
  2679  1768  2F2D               	goto	l2160
  2680  1769  3A03               	xorlw	3	; case 2
  2681  176A  1903               	skipnz
  2682  176B  2F32               	goto	l2162
  2683  176C  3A01               	xorlw	1	; case 3
  2684  176D  1903               	skipnz
  2685  176E  2F37               	goto	l2164
  2686  176F  3A07               	xorlw	7	; case 4
  2687  1770  1903               	skipnz
  2688  1771  2F3C               	goto	l2166
  2689  1772  3A01               	xorlw	1	; case 5
  2690  1773  1903               	skipnz
  2691  1774  2F41               	goto	l2168
  2692  1775  3A03               	xorlw	3	; case 6
  2693  1776  1903               	skipnz
  2694  1777  2F46               	goto	l2170
  2695  1778  3A01               	xorlw	1	; case 7
  2696  1779  1903               	skipnz
  2697  177A  2F4B               	goto	l2172
  2698  177B  3A0F               	xorlw	15	; case 8
  2699  177C  1903               	skipnz
  2700  177D  2F50               	goto	l2174
  2701  177E  3A01               	xorlw	1	; case 9
  2702  177F  1903               	skipnz
  2703  1780  2F55               	goto	l2176
  2704  1781  2F82               	goto	l2182
  2705  1782                     l2182:	
  2706                           
  2707                           ;Lab3.c: 215:     return r;
  2708  1782  0873               	movf	num_case@r,w
  2709  1783                     l216:	
  2710  1783  0008               	return
  2711  1784                     __end_of_num_case:	
  2712                           
  2713                           	psect	text6
  2714  09ED                     __ptext6:	
  2715 ;; *************** function ___xxtofl *****************
  2716 ;; Defined at:
  2717 ;;		line 10 in file "C:\Program Files (x86)\Microchip\xc8\v2.10\pic\sources\c90\common\xxtofl.c"
  2718 ;; Parameters:    Size  Location     Type
  2719 ;;  sign            1    wreg     unsigned char 
  2720 ;;  val             4    0[COMMON] long 
  2721 ;; Auto vars:     Size  Location     Type
  2722 ;;  sign            1    8[COMMON] unsigned char 
  2723 ;;  arg             4   10[COMMON] unsigned long 
  2724 ;;  exp             1    9[COMMON] unsigned char 
  2725 ;; Return value:  Size  Location     Type
  2726 ;;                  4    0[COMMON] unsigned char 
  2727 ;; Registers used:
  2728 ;;		wreg, status,2, status,0
  2729 ;; Tracked objects:
  2730 ;;		On entry : 0/0
  2731 ;;		On exit  : 0/0
  2732 ;;		Unchanged: 0/0
  2733 ;; Data sizes:     COMMON   BANK0   BANK1   BANK3   BANK2
  2734 ;;      Params:         4       0       0       0       0
  2735 ;;      Locals:         6       0       0       0       0
  2736 ;;      Temps:          4       0       0       0       0
  2737 ;;      Totals:        14       0       0       0       0
  2738 ;;Total ram usage:       14 bytes
  2739 ;; Hardware stack levels used:    1
  2740 ;; This function calls:
  2741 ;;		Nothing
  2742 ;; This function is called by:
  2743 ;;		_main
  2744 ;;		_int_stre
  2745 ;;		_int_strd
  2746 ;;		_int_strc
  2747 ;; This function uses a non-reentrant model
  2748 ;;
  2749                           
  2750                           
  2751                           ;psect for function ___xxtofl
  2752  09ED                     ___xxtofl:	
  2753                           
  2754                           ;incstack = 0
  2755                           ; Regs used in ___xxtofl: [wreg+status,2+status,0]
  2756                           ;___xxtofl@sign stored from wreg
  2757  09ED  00F8               	movwf	___xxtofl@sign
  2758  09EE                     l2426:	
  2759  09EE  0878               	movf	___xxtofl@sign,w
  2760  09EF  1903               	btfsc	3,2
  2761  09F0  29F2               	goto	u2941
  2762  09F1  29F3               	goto	u2940
  2763  09F2                     u2941:	
  2764  09F2  2A07               	goto	l2432
  2765  09F3                     u2940:	
  2766  09F3                     l2428:	
  2767  09F3  1FF3               	btfss	___xxtofl@val+3,7
  2768  09F4  29F6               	goto	u2951
  2769  09F5  29F7               	goto	u2950
  2770  09F6                     u2951:	
  2771  09F6  2A07               	goto	l2432
  2772  09F7                     u2950:	
  2773  09F7                     l2430:	
  2774  09F7  0970               	comf	___xxtofl@val,w
  2775  09F8  00FA               	movwf	___xxtofl@arg
  2776  09F9  0971               	comf	___xxtofl@val+1,w
  2777  09FA  00FB               	movwf	___xxtofl@arg+1
  2778  09FB  0972               	comf	___xxtofl@val+2,w
  2779  09FC  00FC               	movwf	___xxtofl@arg+2
  2780  09FD  0973               	comf	___xxtofl@val+3,w
  2781  09FE  00FD               	movwf	___xxtofl@arg+3
  2782  09FF  0AFA               	incf	___xxtofl@arg,f
  2783  0A00  1903               	skipnz
  2784  0A01  0AFB               	incf	___xxtofl@arg+1,f
  2785  0A02  1903               	skipnz
  2786  0A03  0AFC               	incf	___xxtofl@arg+2,f
  2787  0A04  1903               	skipnz
  2788  0A05  0AFD               	incf	___xxtofl@arg+3,f
  2789  0A06  2A0F               	goto	l765
  2790  0A07                     l2432:	
  2791  0A07  0873               	movf	___xxtofl@val+3,w
  2792  0A08  00FD               	movwf	___xxtofl@arg+3
  2793  0A09  0872               	movf	___xxtofl@val+2,w
  2794  0A0A  00FC               	movwf	___xxtofl@arg+2
  2795  0A0B  0871               	movf	___xxtofl@val+1,w
  2796  0A0C  00FB               	movwf	___xxtofl@arg+1
  2797  0A0D  0870               	movf	___xxtofl@val,w
  2798  0A0E  00FA               	movwf	___xxtofl@arg
  2799  0A0F                     l765:	
  2800  0A0F  0873               	movf	___xxtofl@val+3,w
  2801  0A10  0472               	iorwf	___xxtofl@val+2,w
  2802  0A11  0471               	iorwf	___xxtofl@val+1,w
  2803  0A12  0470               	iorwf	___xxtofl@val,w
  2804  0A13  1D03               	skipz
  2805  0A14  2A16               	goto	u2961
  2806  0A15  2A17               	goto	u2960
  2807  0A16                     u2961:	
  2808  0A16  2A20               	goto	l2438
  2809  0A17                     u2960:	
  2810  0A17                     l2434:	
  2811  0A17  3000               	movlw	0
  2812  0A18  00F3               	movwf	?___xxtofl+3
  2813  0A19  3000               	movlw	0
  2814  0A1A  00F2               	movwf	?___xxtofl+2
  2815  0A1B  3000               	movlw	0
  2816  0A1C  00F1               	movwf	?___xxtofl+1
  2817  0A1D  3000               	movlw	0
  2818  0A1E  00F0               	movwf	?___xxtofl
  2819  0A1F  2AA6               	goto	l767
  2820  0A20                     l2438:	
  2821  0A20  3096               	movlw	150
  2822  0A21  00F4               	movwf	??___xxtofl
  2823  0A22  0874               	movf	??___xxtofl,w
  2824  0A23  00F9               	movwf	___xxtofl@exp
  2825  0A24  2A32               	goto	l2442
  2826  0A25                     l2440:	
  2827  0A25  3001               	movlw	1
  2828  0A26  00F4               	movwf	??___xxtofl
  2829  0A27  0874               	movf	??___xxtofl,w
  2830  0A28  07F9               	addwf	___xxtofl@exp,f
  2831  0A29  3001               	movlw	1
  2832  0A2A                     u2975:	
  2833  0A2A  1003               	clrc
  2834  0A2B  0CFD               	rrf	___xxtofl@arg+3,f
  2835  0A2C  0CFC               	rrf	___xxtofl@arg+2,f
  2836  0A2D  0CFB               	rrf	___xxtofl@arg+1,f
  2837  0A2E  0CFA               	rrf	___xxtofl@arg,f
  2838  0A2F  3EFF               	addlw	-1
  2839  0A30  1D03               	skipz
  2840  0A31  2A2A               	goto	u2975
  2841  0A32                     l2442:	
  2842  0A32  30FE               	movlw	254
  2843  0A33  057D               	andwf	___xxtofl@arg+3,w
  2844  0A34  1D03               	btfss	3,2
  2845  0A35  2A37               	goto	u2981
  2846  0A36  2A38               	goto	u2980
  2847  0A37                     u2981:	
  2848  0A37  2A25               	goto	l2440
  2849  0A38                     u2980:	
  2850  0A38  2A54               	goto	l771
  2851  0A39                     l2444:	
  2852  0A39  3001               	movlw	1
  2853  0A3A  00F4               	movwf	??___xxtofl
  2854  0A3B  0874               	movf	??___xxtofl,w
  2855  0A3C  07F9               	addwf	___xxtofl@exp,f
  2856  0A3D                     l2446:	
  2857  0A3D  3001               	movlw	1
  2858  0A3E  07FA               	addwf	___xxtofl@arg,f
  2859  0A3F  3000               	movlw	0
  2860  0A40  1803               	skipnc
  2861  0A41  3001               	movlw	1
  2862  0A42  07FB               	addwf	___xxtofl@arg+1,f
  2863  0A43  3000               	movlw	0
  2864  0A44  1803               	skipnc
  2865  0A45  3001               	movlw	1
  2866  0A46  07FC               	addwf	___xxtofl@arg+2,f
  2867  0A47  3000               	movlw	0
  2868  0A48  1803               	skipnc
  2869  0A49  3001               	movlw	1
  2870  0A4A  07FD               	addwf	___xxtofl@arg+3,f
  2871  0A4B                     l2448:	
  2872  0A4B  3001               	movlw	1
  2873  0A4C                     u2995:	
  2874  0A4C  1003               	clrc
  2875  0A4D  0CFD               	rrf	___xxtofl@arg+3,f
  2876  0A4E  0CFC               	rrf	___xxtofl@arg+2,f
  2877  0A4F  0CFB               	rrf	___xxtofl@arg+1,f
  2878  0A50  0CFA               	rrf	___xxtofl@arg,f
  2879  0A51  3EFF               	addlw	-1
  2880  0A52  1D03               	skipz
  2881  0A53  2A4C               	goto	u2995
  2882  0A54                     l771:	
  2883  0A54  30FF               	movlw	255
  2884  0A55  057D               	andwf	___xxtofl@arg+3,w
  2885  0A56  1D03               	btfss	3,2
  2886  0A57  2A59               	goto	u3001
  2887  0A58  2A5A               	goto	u3000
  2888  0A59                     u3001:	
  2889  0A59  2A39               	goto	l2444
  2890  0A5A                     u3000:	
  2891  0A5A  2A66               	goto	l2452
  2892  0A5B                     l2450:	
  2893  0A5B  3001               	movlw	1
  2894  0A5C  02F9               	subwf	___xxtofl@exp,f
  2895  0A5D  3001               	movlw	1
  2896  0A5E  00F4               	movwf	??___xxtofl
  2897  0A5F                     u3015:	
  2898  0A5F  1003               	clrc
  2899  0A60  0DFA               	rlf	___xxtofl@arg,f
  2900  0A61  0DFB               	rlf	___xxtofl@arg+1,f
  2901  0A62  0DFC               	rlf	___xxtofl@arg+2,f
  2902  0A63  0DFD               	rlf	___xxtofl@arg+3,f
  2903  0A64  0BF4               	decfsz	??___xxtofl,f
  2904  0A65  2A5F               	goto	u3015
  2905  0A66                     l2452:	
  2906  0A66  1BFC               	btfsc	___xxtofl@arg+2,7
  2907  0A67  2A69               	goto	u3021
  2908  0A68  2A6A               	goto	u3020
  2909  0A69                     u3021:	
  2910  0A69  2A70               	goto	l778
  2911  0A6A                     u3020:	
  2912  0A6A                     l2454:	
  2913  0A6A  3002               	movlw	2
  2914  0A6B  0279               	subwf	___xxtofl@exp,w
  2915  0A6C  1803               	skipnc
  2916  0A6D  2A6F               	goto	u3031
  2917  0A6E  2A70               	goto	u3030
  2918  0A6F                     u3031:	
  2919  0A6F  2A5B               	goto	l2450
  2920  0A70                     u3030:	
  2921  0A70                     l778:	
  2922  0A70  1879               	btfsc	___xxtofl@exp,0
  2923  0A71  2A73               	goto	u3041
  2924  0A72  2A74               	goto	u3040
  2925  0A73                     u3041:	
  2926  0A73  2A7C               	goto	l779
  2927  0A74                     u3040:	
  2928  0A74                     l2456:	
  2929  0A74  30FF               	movlw	255
  2930  0A75  05FA               	andwf	___xxtofl@arg,f
  2931  0A76  30FF               	movlw	255
  2932  0A77  05FB               	andwf	___xxtofl@arg+1,f
  2933  0A78  307F               	movlw	127
  2934  0A79  05FC               	andwf	___xxtofl@arg+2,f
  2935  0A7A  30FF               	movlw	255
  2936  0A7B  05FD               	andwf	___xxtofl@arg+3,f
  2937  0A7C                     l779:	
  2938  0A7C  1003               	clrc
  2939  0A7D  0CF9               	rrf	___xxtofl@exp,f
  2940  0A7E                     l2458:	
  2941  0A7E  0879               	movf	___xxtofl@exp,w
  2942  0A7F  00F4               	movwf	??___xxtofl
  2943  0A80  01F5               	clrf	??___xxtofl+1
  2944  0A81  01F6               	clrf	??___xxtofl+2
  2945  0A82  01F7               	clrf	??___xxtofl+3
  2946  0A83  3018               	movlw	24
  2947  0A84                     u3055:	
  2948  0A84  1003               	clrc
  2949  0A85  0DF4               	rlf	??___xxtofl,f
  2950  0A86  0DF5               	rlf	??___xxtofl+1,f
  2951  0A87  0DF6               	rlf	??___xxtofl+2,f
  2952  0A88  0DF7               	rlf	??___xxtofl+3,f
  2953  0A89                     u3050:	
  2954  0A89  3EFF               	addlw	-1
  2955  0A8A  1D03               	skipz
  2956  0A8B  2A84               	goto	u3055
  2957  0A8C  0874               	movf	??___xxtofl,w
  2958  0A8D  04FA               	iorwf	___xxtofl@arg,f
  2959  0A8E  0875               	movf	??___xxtofl+1,w
  2960  0A8F  04FB               	iorwf	___xxtofl@arg+1,f
  2961  0A90  0876               	movf	??___xxtofl+2,w
  2962  0A91  04FC               	iorwf	___xxtofl@arg+2,f
  2963  0A92  0877               	movf	??___xxtofl+3,w
  2964  0A93  04FD               	iorwf	___xxtofl@arg+3,f
  2965  0A94                     l2460:	
  2966  0A94  0878               	movf	___xxtofl@sign,w
  2967  0A95  1903               	btfsc	3,2
  2968  0A96  2A98               	goto	u3061
  2969  0A97  2A99               	goto	u3060
  2970  0A98                     u3061:	
  2971  0A98  2A9E               	goto	l2466
  2972  0A99                     u3060:	
  2973  0A99                     l2462:	
  2974  0A99  1FF3               	btfss	___xxtofl@val+3,7
  2975  0A9A  2A9C               	goto	u3071
  2976  0A9B  2A9D               	goto	u3070
  2977  0A9C                     u3071:	
  2978  0A9C  2A9E               	goto	l2466
  2979  0A9D                     u3070:	
  2980  0A9D                     l2464:	
  2981  0A9D  17FD               	bsf	___xxtofl@arg+3,7
  2982  0A9E                     l2466:	
  2983  0A9E  087D               	movf	___xxtofl@arg+3,w
  2984  0A9F  00F3               	movwf	?___xxtofl+3
  2985  0AA0  087C               	movf	___xxtofl@arg+2,w
  2986  0AA1  00F2               	movwf	?___xxtofl+2
  2987  0AA2  087B               	movf	___xxtofl@arg+1,w
  2988  0AA3  00F1               	movwf	?___xxtofl+1
  2989  0AA4  087A               	movf	___xxtofl@arg,w
  2990  0AA5  00F0               	movwf	?___xxtofl
  2991  0AA6                     l767:	
  2992  0AA6  0008               	return
  2993  0AA7                     __end_of___xxtofl:	
  2994                           
  2995                           	psect	text7
  2996  1784                     __ptext7:	
  2997 ;; *************** function ___fltol *****************
  2998 ;; Defined at:
  2999 ;;		line 43 in file "C:\Program Files (x86)\Microchip\xc8\v2.10\pic\sources\c90\common\fltol.c"
  3000 ;; Parameters:    Size  Location     Type
  3001 ;;  f1              4   42[BANK0 ] unsigned char 
  3002 ;; Auto vars:     Size  Location     Type
  3003 ;;  exp1            1   52[BANK0 ] unsigned char 
  3004 ;;  sign1           1   51[BANK0 ] unsigned char 
  3005 ;; Return value:  Size  Location     Type
  3006 ;;                  4   42[BANK0 ] long 
  3007 ;; Registers used:
  3008 ;;		wreg, status,2, status,0
  3009 ;; Tracked objects:
  3010 ;;		On entry : 0/0
  3011 ;;		On exit  : 0/0
  3012 ;;		Unchanged: 0/0
  3013 ;; Data sizes:     COMMON   BANK0   BANK1   BANK3   BANK2
  3014 ;;      Params:         0       4       0       0       0
  3015 ;;      Locals:         0       2       0       0       0
  3016 ;;      Temps:          0       5       0       0       0
  3017 ;;      Totals:         0      11       0       0       0
  3018 ;;Total ram usage:       11 bytes
  3019 ;; Hardware stack levels used:    1
  3020 ;; This function calls:
  3021 ;;		Nothing
  3022 ;; This function is called by:
  3023 ;;		_main
  3024 ;;		_int_stre
  3025 ;;		_int_strd
  3026 ;;		_int_strc
  3027 ;; This function uses a non-reentrant model
  3028 ;;
  3029                           
  3030                           
  3031                           ;psect for function ___fltol
  3032  1784                     ___fltol:	
  3033  1784                     l2244:	
  3034                           ;incstack = 0
  3035                           ; Regs used in ___fltol: [wreg+status,2+status,0]
  3036                           
  3037  1784  1003               	clrc
  3038  1785  1283               	bcf	3,5	;RP0=0, select bank0
  3039  1786  1303               	bcf	3,6	;RP1=0, select bank0
  3040  1787  0D4C               	rlf	___fltol@f1+2,w
  3041  1788  0D4D               	rlf	___fltol@f1+3,w
  3042  1789  00CE               	movwf	??___fltol
  3043  178A  084E               	movf	??___fltol,w
  3044  178B  00D4               	movwf	___fltol@exp1
  3045  178C  0854               	movf	___fltol@exp1,w
  3046  178D  1D03               	btfss	3,2
  3047  178E  2F90               	goto	u2471
  3048  178F  2F91               	goto	u2470
  3049  1790                     u2471:	
  3050  1790  2F9A               	goto	l2250
  3051  1791                     u2470:	
  3052  1791                     l2246:	
  3053  1791  3000               	movlw	0
  3054  1792  00CD               	movwf	?___fltol+3
  3055  1793  3000               	movlw	0
  3056  1794  00CC               	movwf	?___fltol+2
  3057  1795  3000               	movlw	0
  3058  1796  00CB               	movwf	?___fltol+1
  3059  1797  3000               	movlw	0
  3060  1798  00CA               	movwf	?___fltol
  3061  1799  2FFF               	goto	l524
  3062  179A                     l2250:	
  3063  179A  084A               	movf	___fltol@f1,w
  3064  179B  00CE               	movwf	??___fltol
  3065  179C  084B               	movf	___fltol@f1+1,w
  3066  179D  00CF               	movwf	??___fltol+1
  3067  179E  084C               	movf	___fltol@f1+2,w
  3068  179F  00D0               	movwf	??___fltol+2
  3069  17A0  084D               	movf	___fltol@f1+3,w
  3070  17A1  00D1               	movwf	??___fltol+3
  3071  17A2  301F               	movlw	31
  3072  17A3                     u2485:	
  3073  17A3  1003               	clrc
  3074  17A4  0CD1               	rrf	??___fltol+3,f
  3075  17A5  0CD0               	rrf	??___fltol+2,f
  3076  17A6  0CCF               	rrf	??___fltol+1,f
  3077  17A7  0CCE               	rrf	??___fltol,f
  3078  17A8                     u2480:	
  3079  17A8  3EFF               	addlw	-1
  3080  17A9  1D03               	skipz
  3081  17AA  2FA3               	goto	u2485
  3082  17AB  084E               	movf	??___fltol,w
  3083  17AC  00D2               	movwf	??___fltol+4
  3084  17AD  0852               	movf	??___fltol+4,w
  3085  17AE  00D3               	movwf	___fltol@sign1
  3086  17AF                     l2252:	
  3087  17AF  17CC               	bsf	___fltol@f1+2,7
  3088  17B0                     l2254:	
  3089  17B0  30FF               	movlw	255
  3090  17B1  05CA               	andwf	___fltol@f1,f
  3091  17B2  30FF               	movlw	255
  3092  17B3  05CB               	andwf	___fltol@f1+1,f
  3093  17B4  30FF               	movlw	255
  3094  17B5  05CC               	andwf	___fltol@f1+2,f
  3095  17B6  3000               	movlw	0
  3096  17B7  05CD               	andwf	___fltol@f1+3,f
  3097  17B8                     l2256:	
  3098  17B8  3096               	movlw	150
  3099  17B9  02D4               	subwf	___fltol@exp1,f
  3100  17BA                     l2258:	
  3101  17BA  1FD4               	btfss	___fltol@exp1,7
  3102  17BB  2FBD               	goto	u2491
  3103  17BC  2FBE               	goto	u2490
  3104  17BD                     u2491:	
  3105  17BD  2FD8               	goto	l2268
  3106  17BE                     u2490:	
  3107  17BE                     l2260:	
  3108  17BE  0854               	movf	___fltol@exp1,w
  3109  17BF  3A80               	xorlw	128
  3110  17C0  3E97               	addlw	151
  3111  17C1  1803               	skipnc
  3112  17C2  2FC4               	goto	u2501
  3113  17C3  2FC5               	goto	u2500
  3114  17C4                     u2501:	
  3115  17C4  2FC6               	goto	l2266
  3116  17C5                     u2500:	
  3117  17C5  2F91               	goto	l2246
  3118  17C6                     l2266:	
  3119  17C6  3001               	movlw	1
  3120  17C7                     u2515:	
  3121  17C7  1003               	clrc
  3122  17C8  0CCD               	rrf	___fltol@f1+3,f
  3123  17C9  0CCC               	rrf	___fltol@f1+2,f
  3124  17CA  0CCB               	rrf	___fltol@f1+1,f
  3125  17CB  0CCA               	rrf	___fltol@f1,f
  3126  17CC  3EFF               	addlw	-1
  3127  17CD  1D03               	skipz
  3128  17CE  2FC7               	goto	u2515
  3129  17CF  3001               	movlw	1
  3130  17D0  00CE               	movwf	??___fltol
  3131  17D1  084E               	movf	??___fltol,w
  3132  17D2  07D4               	addwf	___fltol@exp1,f
  3133  17D3  1D03               	btfss	3,2
  3134  17D4  2FD6               	goto	u2521
  3135  17D5  2FD7               	goto	u2520
  3136  17D6                     u2521:	
  3137  17D6  2FC6               	goto	l2266
  3138  17D7                     u2520:	
  3139  17D7  2FEF               	goto	l2276
  3140  17D8                     l2268:	
  3141  17D8  3020               	movlw	32
  3142  17D9  0254               	subwf	___fltol@exp1,w
  3143  17DA  1C03               	skipc
  3144  17DB  2FDD               	goto	u2531
  3145  17DC  2FDE               	goto	u2530
  3146  17DD                     u2531:	
  3147  17DD  2FEA               	goto	l531
  3148  17DE                     u2530:	
  3149  17DE  2F91               	goto	l2246
  3150  17DF                     l2274:	
  3151  17DF  3001               	movlw	1
  3152  17E0  00CE               	movwf	??___fltol
  3153  17E1                     u2545:	
  3154  17E1  1003               	clrc
  3155  17E2  0DCA               	rlf	___fltol@f1,f
  3156  17E3  0DCB               	rlf	___fltol@f1+1,f
  3157  17E4  0DCC               	rlf	___fltol@f1+2,f
  3158  17E5  0DCD               	rlf	___fltol@f1+3,f
  3159  17E6  0BCE               	decfsz	??___fltol,f
  3160  17E7  2FE1               	goto	u2545
  3161  17E8  3001               	movlw	1
  3162  17E9  02D4               	subwf	___fltol@exp1,f
  3163  17EA                     l531:	
  3164  17EA  0854               	movf	___fltol@exp1,w
  3165  17EB  1D03               	btfss	3,2
  3166  17EC  2FEE               	goto	u2551
  3167  17ED  2FEF               	goto	u2550
  3168  17EE                     u2551:	
  3169  17EE  2FDF               	goto	l2274
  3170  17EF                     u2550:	
  3171  17EF                     l2276:	
  3172  17EF  0853               	movf	___fltol@sign1,w
  3173  17F0  1903               	btfsc	3,2
  3174  17F1  2FF3               	goto	u2561
  3175  17F2  2FF4               	goto	u2560
  3176  17F3                     u2561:	
  3177  17F3  2FFF               	goto	l534
  3178  17F4                     u2560:	
  3179  17F4                     l2278:	
  3180  17F4  09CA               	comf	___fltol@f1,f
  3181  17F5  09CB               	comf	___fltol@f1+1,f
  3182  17F6  09CC               	comf	___fltol@f1+2,f
  3183  17F7  09CD               	comf	___fltol@f1+3,f
  3184  17F8  0ACA               	incf	___fltol@f1,f
  3185  17F9  1903               	skipnz
  3186  17FA  0ACB               	incf	___fltol@f1+1,f
  3187  17FB  1903               	skipnz
  3188  17FC  0ACC               	incf	___fltol@f1+2,f
  3189  17FD  1903               	skipnz
  3190  17FE  0ACD               	incf	___fltol@f1+3,f
  3191  17FF                     l534:	
  3192  17FF                     l524:	
  3193  17FF  0008               	return
  3194  1800                     __end_of___fltol:	
  3195                           
  3196                           	psect	text8
  3197  1615                     __ptext8:	
  3198 ;; *************** function ___flsub *****************
  3199 ;; Defined at:
  3200 ;;		line 242 in file "C:\Program Files (x86)\Microchip\xc8\v2.10\pic\sources\c90\common\sprcadd.c"
  3201 ;; Parameters:    Size  Location     Type
  3202 ;;  a               4    8[BANK0 ] long 
  3203 ;;  b               4   12[BANK0 ] long 
  3204 ;; Auto vars:     Size  Location     Type
  3205 ;;		None
  3206 ;; Return value:  Size  Location     Type
  3207 ;;                  4    8[BANK0 ] long 
  3208 ;; Registers used:
  3209 ;;		wreg, status,2, status,0, btemp+1, pclath, cstack
  3210 ;; Tracked objects:
  3211 ;;		On entry : 0/0
  3212 ;;		On exit  : 0/0
  3213 ;;		Unchanged: 0/0
  3214 ;; Data sizes:     COMMON   BANK0   BANK1   BANK3   BANK2
  3215 ;;      Params:         0       8       0       0       0
  3216 ;;      Locals:         0       0       0       0       0
  3217 ;;      Temps:          0       0       0       0       0
  3218 ;;      Totals:         0       8       0       0       0
  3219 ;;Total ram usage:        8 bytes
  3220 ;; Hardware stack levels used:    1
  3221 ;; Hardware stack levels required when called:    1
  3222 ;; This function calls:
  3223 ;;		___fladd
  3224 ;; This function is called by:
  3225 ;;		_int_stre
  3226 ;;		_int_strd
  3227 ;;		_int_strc
  3228 ;; This function uses a non-reentrant model
  3229 ;;
  3230                           
  3231                           
  3232                           ;psect for function ___flsub
  3233  1615                     ___flsub:	
  3234  1615                     l2280:	
  3235                           ;incstack = 0
  3236                           ; Regs used in ___flsub: [wreg+status,2+status,0+btemp+1+pclath+cstack]
  3237                           
  3238  1615  3080               	movlw	128
  3239  1616  1283               	bcf	3,5	;RP0=0, select bank0
  3240  1617  1303               	bcf	3,6	;RP1=0, select bank0
  3241  1618  06AB               	xorwf	___flsub@a+3,f
  3242  1619                     l2282:	
  3243  1619  082F               	movf	___flsub@b+3,w
  3244  161A  00F3               	movwf	___fladd@b+3
  3245  161B  082E               	movf	___flsub@b+2,w
  3246  161C  00F2               	movwf	___fladd@b+2
  3247  161D  082D               	movf	___flsub@b+1,w
  3248  161E  00F1               	movwf	___fladd@b+1
  3249  161F  082C               	movf	___flsub@b,w
  3250  1620  00F0               	movwf	___fladd@b
  3251  1621  082B               	movf	___flsub@a+3,w
  3252  1622  00F7               	movwf	___fladd@a+3
  3253  1623  082A               	movf	___flsub@a+2,w
  3254  1624  00F6               	movwf	___fladd@a+2
  3255  1625  0829               	movf	___flsub@a+1,w
  3256  1626  00F5               	movwf	___fladd@a+1
  3257  1627  0828               	movf	___flsub@a,w
  3258  1628  00F4               	movwf	___fladd@a
  3259  1629  120A  118A  21F6  160A  118A  	fcall	___fladd
  3260  162E  0873               	movf	?___fladd+3,w
  3261  162F  1283               	bcf	3,5	;RP0=0, select bank0
  3262  1630  1303               	bcf	3,6	;RP1=0, select bank0
  3263  1631  00AB               	movwf	?___flsub+3
  3264  1632  0872               	movf	?___fladd+2,w
  3265  1633  00AA               	movwf	?___flsub+2
  3266  1634  0871               	movf	?___fladd+1,w
  3267  1635  00A9               	movwf	?___flsub+1
  3268  1636  0870               	movf	?___fladd,w
  3269  1637  00A8               	movwf	?___flsub
  3270  1638                     l677:	
  3271  1638  0008               	return
  3272  1639                     __end_of___flsub:	
  3273                           
  3274                           	psect	text9
  3275  01F6                     __ptext9:	
  3276 ;; *************** function ___fladd *****************
  3277 ;; Defined at:
  3278 ;;		line 10 in file "C:\Program Files (x86)\Microchip\xc8\v2.10\pic\sources\c90\common\sprcadd.c"
  3279 ;; Parameters:    Size  Location     Type
  3280 ;;  b               4    0[COMMON] long 
  3281 ;;  a               4    4[COMMON] long 
  3282 ;; Auto vars:     Size  Location     Type
  3283 ;;  grs             1   11[COMMON] unsigned char 
  3284 ;;  bexp            1   10[COMMON] unsigned char 
  3285 ;;  aexp            1    9[COMMON] unsigned char 
  3286 ;;  signs           1    8[COMMON] unsigned char 
  3287 ;; Return value:  Size  Location     Type
  3288 ;;                  4    0[COMMON] unsigned char 
  3289 ;; Registers used:
  3290 ;;		wreg, status,2, status,0, btemp+1
  3291 ;; Tracked objects:
  3292 ;;		On entry : 0/0
  3293 ;;		On exit  : 0/0
  3294 ;;		Unchanged: 0/0
  3295 ;; Data sizes:     COMMON   BANK0   BANK1   BANK3   BANK2
  3296 ;;      Params:         8       0       0       0       0
  3297 ;;      Locals:         4       0       0       0       0
  3298 ;;      Temps:          0       8       0       0       0
  3299 ;;      Totals:        12       8       0       0       0
  3300 ;;Total ram usage:       20 bytes
  3301 ;; Hardware stack levels used:    1
  3302 ;; This function calls:
  3303 ;;		Nothing
  3304 ;; This function is called by:
  3305 ;;		___flsub
  3306 ;; This function uses a non-reentrant model
  3307 ;;
  3308                           
  3309                           
  3310                           ;psect for function ___fladd
  3311  01F6                     ___fladd:	
  3312  01F6                     l1926:	
  3313                           ;incstack = 0
  3314                           ; Regs used in ___fladd: [wreg+status,2+status,0+btemp+1]
  3315                           
  3316  01F6  0873               	movf	___fladd@b+3,w
  3317  01F7  3980               	andlw	128
  3318  01F8  1283               	bcf	3,5	;RP0=0, select bank0
  3319  01F9  1303               	bcf	3,6	;RP1=0, select bank0
  3320  01FA  00A0               	movwf	??___fladd
  3321  01FB  0820               	movf	??___fladd,w
  3322  01FC  00F8               	movwf	___fladd@signs
  3323  01FD                     l1928:	
  3324  01FD  0873               	movf	___fladd@b+3,w
  3325  01FE  00A0               	movwf	??___fladd
  3326  01FF  0720               	addwf	??___fladd,w
  3327  0200  00A1               	movwf	??___fladd+1
  3328  0201  0821               	movf	??___fladd+1,w
  3329  0202  00FA               	movwf	___fladd@bexp
  3330  0203                     l1930:	
  3331  0203  1FF2               	btfss	___fladd@b+2,7
  3332  0204  2A06               	goto	u1861
  3333  0205  2A07               	goto	u1860
  3334  0206                     u1861:	
  3335  0206  2A08               	goto	l1934
  3336  0207                     u1860:	
  3337  0207                     l1932:	
  3338  0207  147A               	bsf	___fladd@bexp,0
  3339  0208                     l1934:	
  3340  0208  087A               	movf	___fladd@bexp,w
  3341  0209  1903               	btfsc	3,2
  3342  020A  2A0C               	goto	u1871
  3343  020B  2A0D               	goto	u1870
  3344  020C                     u1871:	
  3345  020C  2A1D               	goto	l1944
  3346  020D                     u1870:	
  3347  020D                     l1936:	
  3348  020D  0A7A               	incf	___fladd@bexp,w
  3349  020E  1D03               	btfss	3,2
  3350  020F  2A11               	goto	u1881
  3351  0210  2A12               	goto	u1880
  3352  0211                     u1881:	
  3353  0211  2A1A               	goto	l1940
  3354  0212                     u1880:	
  3355  0212                     l1938:	
  3356  0212  3000               	movlw	0
  3357  0213  00F3               	movwf	___fladd@b+3
  3358  0214  3000               	movlw	0
  3359  0215  00F2               	movwf	___fladd@b+2
  3360  0216  3000               	movlw	0
  3361  0217  00F1               	movwf	___fladd@b+1
  3362  0218  3000               	movlw	0
  3363  0219  00F0               	movwf	___fladd@b
  3364  021A                     l1940:	
  3365  021A  17F2               	bsf	___fladd@b+2,7
  3366  021B                     l1942:	
  3367  021B  01F3               	clrf	___fladd@b+3
  3368  021C  2A25               	goto	l1946
  3369  021D                     l1944:	
  3370  021D  3000               	movlw	0
  3371  021E  00F3               	movwf	___fladd@b+3
  3372  021F  3000               	movlw	0
  3373  0220  00F2               	movwf	___fladd@b+2
  3374  0221  3000               	movlw	0
  3375  0222  00F1               	movwf	___fladd@b+1
  3376  0223  3000               	movlw	0
  3377  0224  00F0               	movwf	___fladd@b
  3378  0225                     l1946:	
  3379  0225  0877               	movf	___fladd@a+3,w
  3380  0226  3980               	andlw	128
  3381  0227  00A0               	movwf	??___fladd
  3382  0228  0820               	movf	??___fladd,w
  3383  0229  00F9               	movwf	___fladd@aexp
  3384  022A                     l1948:	
  3385  022A  0879               	movf	___fladd@aexp,w
  3386  022B  0678               	xorwf	___fladd@signs,w
  3387  022C  1903               	skipnz
  3388  022D  2A2F               	goto	u1891
  3389  022E  2A30               	goto	u1890
  3390  022F                     u1891:	
  3391  022F  2A31               	goto	l1952
  3392  0230                     u1890:	
  3393  0230                     l1950:	
  3394  0230  1778               	bsf	___fladd@signs,6
  3395  0231                     l1952:	
  3396  0231  0877               	movf	___fladd@a+3,w
  3397  0232  00A0               	movwf	??___fladd
  3398  0233  0720               	addwf	??___fladd,w
  3399  0234  00A1               	movwf	??___fladd+1
  3400  0235  0821               	movf	??___fladd+1,w
  3401  0236  00F9               	movwf	___fladd@aexp
  3402  0237                     l1954:	
  3403  0237  1FF6               	btfss	___fladd@a+2,7
  3404  0238  2A3A               	goto	u1901
  3405  0239  2A3B               	goto	u1900
  3406  023A                     u1901:	
  3407  023A  2A3C               	goto	l1958
  3408  023B                     u1900:	
  3409  023B                     l1956:	
  3410  023B  1479               	bsf	___fladd@aexp,0
  3411  023C                     l1958:	
  3412  023C  0879               	movf	___fladd@aexp,w
  3413  023D  1903               	btfsc	3,2
  3414  023E  2A40               	goto	u1911
  3415  023F  2A41               	goto	u1910
  3416  0240                     u1911:	
  3417  0240  2A51               	goto	l1968
  3418  0241                     u1910:	
  3419  0241                     l1960:	
  3420  0241  0A79               	incf	___fladd@aexp,w
  3421  0242  1D03               	btfss	3,2
  3422  0243  2A45               	goto	u1921
  3423  0244  2A46               	goto	u1920
  3424  0245                     u1921:	
  3425  0245  2A4E               	goto	l1964
  3426  0246                     u1920:	
  3427  0246                     l1962:	
  3428  0246  3000               	movlw	0
  3429  0247  00F7               	movwf	___fladd@a+3
  3430  0248  3000               	movlw	0
  3431  0249  00F6               	movwf	___fladd@a+2
  3432  024A  3000               	movlw	0
  3433  024B  00F5               	movwf	___fladd@a+1
  3434  024C  3000               	movlw	0
  3435  024D  00F4               	movwf	___fladd@a
  3436  024E                     l1964:	
  3437  024E  17F6               	bsf	___fladd@a+2,7
  3438  024F                     l1966:	
  3439  024F  01F7               	clrf	___fladd@a+3
  3440  0250  2A59               	goto	l631
  3441  0251                     l1968:	
  3442  0251  3000               	movlw	0
  3443  0252  00F7               	movwf	___fladd@a+3
  3444  0253  3000               	movlw	0
  3445  0254  00F6               	movwf	___fladd@a+2
  3446  0255  3000               	movlw	0
  3447  0256  00F5               	movwf	___fladd@a+1
  3448  0257  3000               	movlw	0
  3449  0258  00F4               	movwf	___fladd@a
  3450  0259                     l631:	
  3451  0259  087A               	movf	___fladd@bexp,w
  3452  025A  0279               	subwf	___fladd@aexp,w
  3453  025B  1803               	skipnc
  3454  025C  2A5E               	goto	u1931
  3455  025D  2A5F               	goto	u1930
  3456  025E                     u1931:	
  3457  025E  2AA3               	goto	l2004
  3458  025F                     u1930:	
  3459  025F                     l1970:	
  3460  025F  1F78               	btfss	___fladd@signs,6
  3461  0260  2A62               	goto	u1941
  3462  0261  2A63               	goto	u1940
  3463  0262                     u1941:	
  3464  0262  2A67               	goto	l1974
  3465  0263                     u1940:	
  3466  0263                     l1972:	
  3467  0263  3080               	movlw	128
  3468  0264  00A0               	movwf	??___fladd
  3469  0265  0820               	movf	??___fladd,w
  3470  0266  06F8               	xorwf	___fladd@signs,f
  3471  0267                     l1974:	
  3472  0267  087A               	movf	___fladd@bexp,w
  3473  0268  00A0               	movwf	??___fladd
  3474  0269  0820               	movf	??___fladd,w
  3475  026A  00FB               	movwf	___fladd@grs
  3476  026B                     l1976:	
  3477  026B  0879               	movf	___fladd@aexp,w
  3478  026C  00A0               	movwf	??___fladd
  3479  026D  0820               	movf	??___fladd,w
  3480  026E  00FA               	movwf	___fladd@bexp
  3481  026F                     l1978:	
  3482  026F  087B               	movf	___fladd@grs,w
  3483  0270  00A0               	movwf	??___fladd
  3484  0271  0820               	movf	??___fladd,w
  3485  0272  00F9               	movwf	___fladd@aexp
  3486  0273                     l1980:	
  3487  0273  0870               	movf	___fladd@b,w
  3488  0274  00A0               	movwf	??___fladd
  3489  0275  0820               	movf	??___fladd,w
  3490  0276  00FB               	movwf	___fladd@grs
  3491  0277                     l1982:	
  3492  0277  0874               	movf	___fladd@a,w
  3493  0278  00A0               	movwf	??___fladd
  3494  0279  0820               	movf	??___fladd,w
  3495  027A  00F0               	movwf	___fladd@b
  3496  027B                     l1984:	
  3497  027B  087B               	movf	___fladd@grs,w
  3498  027C  00A0               	movwf	??___fladd
  3499  027D  0820               	movf	??___fladd,w
  3500  027E  00F4               	movwf	___fladd@a
  3501  027F                     l1986:	
  3502  027F  0871               	movf	___fladd@b+1,w
  3503  0280  00A0               	movwf	??___fladd
  3504  0281  0820               	movf	??___fladd,w
  3505  0282  00FB               	movwf	___fladd@grs
  3506  0283                     l1988:	
  3507  0283  0875               	movf	___fladd@a+1,w
  3508  0284  00A0               	movwf	??___fladd
  3509  0285  0820               	movf	??___fladd,w
  3510  0286  00F1               	movwf	___fladd@b+1
  3511  0287                     l1990:	
  3512  0287  087B               	movf	___fladd@grs,w
  3513  0288  00A0               	movwf	??___fladd
  3514  0289  0820               	movf	??___fladd,w
  3515  028A  00F5               	movwf	___fladd@a+1
  3516  028B                     l1992:	
  3517  028B  0872               	movf	___fladd@b+2,w
  3518  028C  00A0               	movwf	??___fladd
  3519  028D  0820               	movf	??___fladd,w
  3520  028E  00FB               	movwf	___fladd@grs
  3521  028F                     l1994:	
  3522  028F  0876               	movf	___fladd@a+2,w
  3523  0290  00A0               	movwf	??___fladd
  3524  0291  0820               	movf	??___fladd,w
  3525  0292  00F2               	movwf	___fladd@b+2
  3526  0293                     l1996:	
  3527  0293  087B               	movf	___fladd@grs,w
  3528  0294  00A0               	movwf	??___fladd
  3529  0295  0820               	movf	??___fladd,w
  3530  0296  00F6               	movwf	___fladd@a+2
  3531  0297                     l1998:	
  3532  0297  0873               	movf	___fladd@b+3,w
  3533  0298  00A0               	movwf	??___fladd
  3534  0299  0820               	movf	??___fladd,w
  3535  029A  00FB               	movwf	___fladd@grs
  3536  029B                     l2000:	
  3537  029B  0877               	movf	___fladd@a+3,w
  3538  029C  00A0               	movwf	??___fladd
  3539  029D  0820               	movf	??___fladd,w
  3540  029E  00F3               	movwf	___fladd@b+3
  3541  029F                     l2002:	
  3542  029F  087B               	movf	___fladd@grs,w
  3543  02A0  00A0               	movwf	??___fladd
  3544  02A1  0820               	movf	??___fladd,w
  3545  02A2  00F7               	movwf	___fladd@a+3
  3546  02A3                     l2004:	
  3547  02A3  01FB               	clrf	___fladd@grs
  3548  02A4                     l2006:	
  3549  02A4  0879               	movf	___fladd@aexp,w
  3550  02A5  00A0               	movwf	??___fladd
  3551  02A6  01A1               	clrf	??___fladd+1
  3552  02A7  0821               	movf	??___fladd+1,w
  3553  02A8  00A3               	movwf	??___fladd+3
  3554  02A9  087A               	movf	___fladd@bexp,w
  3555  02AA  0220               	subwf	??___fladd,w
  3556  02AB  00A2               	movwf	??___fladd+2
  3557  02AC  1C03               	skipc
  3558  02AD  03A3               	decf	??___fladd+3,f
  3559  02AE  0823               	movf	??___fladd+3,w
  3560  02AF  3A80               	xorlw	128
  3561  02B0  00FF               	movwf	btemp+1
  3562  02B1  3080               	movlw	128
  3563  02B2  027F               	subwf	btemp+1,w
  3564  02B3  1D03               	skipz
  3565  02B4  2AB7               	goto	u1955
  3566  02B5  301A               	movlw	26
  3567  02B6  0222               	subwf	??___fladd+2,w
  3568  02B7                     u1955:	
  3569  02B7  1C03               	skipc
  3570  02B8  2ABA               	goto	u1951
  3571  02B9  2ABB               	goto	u1950
  3572  02BA                     u1951:	
  3573  02BA  2AFC               	goto	l2022
  3574  02BB                     u1950:	
  3575  02BB                     l2008:	
  3576  02BB  0873               	movf	___fladd@b+3,w
  3577  02BC  0472               	iorwf	___fladd@b+2,w
  3578  02BD  0471               	iorwf	___fladd@b+1,w
  3579  02BE  0470               	iorwf	___fladd@b,w
  3580  02BF  1D03               	skipz
  3581  02C0  2AC2               	goto	u1961
  3582  02C1  2AC4               	goto	u1960
  3583  02C2                     u1961:	
  3584  02C2  3001               	movlw	1
  3585  02C3  2AC5               	goto	u1970
  3586  02C4                     u1960:	
  3587  02C4  3000               	movlw	0
  3588  02C5                     u1970:	
  3589  02C5  1283               	bcf	3,5	;RP0=0, select bank0
  3590  02C6  1303               	bcf	3,6	;RP1=0, select bank0
  3591  02C7  00A0               	movwf	??___fladd
  3592  02C8  0820               	movf	??___fladd,w
  3593  02C9  00FB               	movwf	___fladd@grs
  3594  02CA  3000               	movlw	0
  3595  02CB  00F3               	movwf	___fladd@b+3
  3596  02CC  3000               	movlw	0
  3597  02CD  00F2               	movwf	___fladd@b+2
  3598  02CE  3000               	movlw	0
  3599  02CF  00F1               	movwf	___fladd@b+1
  3600  02D0  3000               	movlw	0
  3601  02D1  00F0               	movwf	___fladd@b
  3602  02D2  0879               	movf	___fladd@aexp,w
  3603  02D3  00A0               	movwf	??___fladd
  3604  02D4  0820               	movf	??___fladd,w
  3605  02D5  00FA               	movwf	___fladd@bexp
  3606  02D6  2B02               	goto	l635
  3607  02D7                     l637:	
  3608  02D7  1C7B               	btfss	___fladd@grs,0
  3609  02D8  2ADA               	goto	u1981
  3610  02D9  2ADB               	goto	u1980
  3611  02DA                     u1981:	
  3612  02DA  2AE6               	goto	l2012
  3613  02DB                     u1980:	
  3614  02DB                     l2010:	
  3615  02DB  087B               	movf	___fladd@grs,w
  3616  02DC  1283               	bcf	3,5	;RP0=0, select bank0
  3617  02DD  1303               	bcf	3,6	;RP1=0, select bank0
  3618  02DE  00A0               	movwf	??___fladd
  3619  02DF  1003               	clrc
  3620  02E0  0C20               	rrf	??___fladd,w
  3621  02E1  3801               	iorlw	1
  3622  02E2  00A1               	movwf	??___fladd+1
  3623  02E3  0821               	movf	??___fladd+1,w
  3624  02E4  00FB               	movwf	___fladd@grs
  3625  02E5  2AE8               	goto	l2014
  3626  02E6                     l2012:	
  3627  02E6  1003               	clrc
  3628  02E7  0CFB               	rrf	___fladd@grs,f
  3629  02E8                     l2014:	
  3630  02E8  1C70               	btfss	___fladd@b,0
  3631  02E9  2AEB               	goto	u1991
  3632  02EA  2AEC               	goto	u1990
  3633  02EB                     u1991:	
  3634  02EB  2AED               	goto	l2018
  3635  02EC                     u1990:	
  3636  02EC                     l2016:	
  3637  02EC  17FB               	bsf	___fladd@grs,7
  3638  02ED                     l2018:	
  3639  02ED  3001               	movlw	1
  3640  02EE  1283               	bcf	3,5	;RP0=0, select bank0
  3641  02EF  1303               	bcf	3,6	;RP1=0, select bank0
  3642  02F0  00A0               	movwf	??___fladd
  3643  02F1                     u2005:	
  3644  02F1  0D73               	rlf	___fladd@b+3,w
  3645  02F2  0CF3               	rrf	___fladd@b+3,f
  3646  02F3  0CF2               	rrf	___fladd@b+2,f
  3647  02F4  0CF1               	rrf	___fladd@b+1,f
  3648  02F5  0CF0               	rrf	___fladd@b,f
  3649  02F6  0BA0               	decfsz	??___fladd& (0+127),f
  3650  02F7  2AF1               	goto	u2005
  3651  02F8                     l2020:	
  3652  02F8  3001               	movlw	1
  3653  02F9  00A0               	movwf	??___fladd
  3654  02FA  0820               	movf	??___fladd,w
  3655  02FB  07FA               	addwf	___fladd@bexp,f
  3656  02FC                     l2022:	
  3657  02FC  0879               	movf	___fladd@aexp,w
  3658  02FD  027A               	subwf	___fladd@bexp,w
  3659  02FE  1C03               	skipc
  3660  02FF  2B01               	goto	u2011
  3661  0300  2B02               	goto	u2010
  3662  0301                     u2011:	
  3663  0301  2AD7               	goto	l637
  3664  0302                     u2010:	
  3665  0302                     l635:	
  3666  0302  1B78               	btfsc	___fladd@signs,6
  3667  0303  2B05               	goto	u2021
  3668  0304  2B06               	goto	u2020
  3669  0305                     u2021:	
  3670  0305  2B55               	goto	l2048
  3671  0306                     u2020:	
  3672  0306                     l2024:	
  3673  0306  087A               	movf	___fladd@bexp,w
  3674  0307  1D03               	btfss	3,2
  3675  0308  2B0A               	goto	u2031
  3676  0309  2B0B               	goto	u2030
  3677  030A                     u2031:	
  3678  030A  2B14               	goto	l2030
  3679  030B                     u2030:	
  3680  030B                     l2026:	
  3681  030B  3000               	movlw	0
  3682  030C  00F3               	movwf	?___fladd+3
  3683  030D  3000               	movlw	0
  3684  030E  00F2               	movwf	?___fladd+2
  3685  030F  3000               	movlw	0
  3686  0310  00F1               	movwf	?___fladd+1
  3687  0311  3000               	movlw	0
  3688  0312  00F0               	movwf	?___fladd
  3689  0313  2C8D               	goto	l644
  3690  0314                     l2030:	
  3691  0314  0874               	movf	___fladd@a,w
  3692  0315  07F0               	addwf	___fladd@b,f
  3693  0316  0875               	movf	___fladd@a+1,w
  3694  0317  1103               	clrz
  3695  0318  1803               	skipnc
  3696  0319  3E01               	addlw	1
  3697  031A  1903               	skipnz
  3698  031B  2B1D               	goto	u2041
  3699  031C  07F1               	addwf	___fladd@b+1,f
  3700  031D                     u2041:	
  3701  031D  0876               	movf	___fladd@a+2,w
  3702  031E  1103               	clrz
  3703  031F  1803               	skipnc
  3704  0320  3E01               	addlw	1
  3705  0321  1903               	skipnz
  3706  0322  2B24               	goto	u2042
  3707  0323  07F2               	addwf	___fladd@b+2,f
  3708  0324                     u2042:	
  3709  0324  0877               	movf	___fladd@a+3,w
  3710  0325  1103               	clrz
  3711  0326  1803               	skipnc
  3712  0327  3E01               	addlw	1
  3713  0328  1903               	skipnz
  3714  0329  2B2B               	goto	u2043
  3715  032A  07F3               	addwf	___fladd@b+3,f
  3716  032B                     u2043:	
  3717  032B                     l2032:	
  3718  032B  1C73               	btfss	___fladd@b+3,0
  3719  032C  2B2E               	goto	u2051
  3720  032D  2B2F               	goto	u2050
  3721  032E                     u2051:	
  3722  032E  2C0D               	goto	l2082
  3723  032F                     u2050:	
  3724  032F                     l2034:	
  3725  032F  1C7B               	btfss	___fladd@grs,0
  3726  0330  2B32               	goto	u2061
  3727  0331  2B33               	goto	u2060
  3728  0332                     u2061:	
  3729  0332  2B3E               	goto	l2038
  3730  0333                     u2060:	
  3731  0333                     l2036:	
  3732  0333  087B               	movf	___fladd@grs,w
  3733  0334  1283               	bcf	3,5	;RP0=0, select bank0
  3734  0335  1303               	bcf	3,6	;RP1=0, select bank0
  3735  0336  00A0               	movwf	??___fladd
  3736  0337  1003               	clrc
  3737  0338  0C20               	rrf	??___fladd,w
  3738  0339  3801               	iorlw	1
  3739  033A  00A1               	movwf	??___fladd+1
  3740  033B  0821               	movf	??___fladd+1,w
  3741  033C  00FB               	movwf	___fladd@grs
  3742  033D  2B40               	goto	l2040
  3743  033E                     l2038:	
  3744  033E  1003               	clrc
  3745  033F  0CFB               	rrf	___fladd@grs,f
  3746  0340                     l2040:	
  3747  0340  1C70               	btfss	___fladd@b,0
  3748  0341  2B43               	goto	u2071
  3749  0342  2B44               	goto	u2070
  3750  0343                     u2071:	
  3751  0343  2B45               	goto	l2044
  3752  0344                     u2070:	
  3753  0344                     l2042:	
  3754  0344  17FB               	bsf	___fladd@grs,7
  3755  0345                     l2044:	
  3756  0345  3001               	movlw	1
  3757  0346  1283               	bcf	3,5	;RP0=0, select bank0
  3758  0347  1303               	bcf	3,6	;RP1=0, select bank0
  3759  0348  00A0               	movwf	??___fladd
  3760  0349                     u2085:	
  3761  0349  0D73               	rlf	___fladd@b+3,w
  3762  034A  0CF3               	rrf	___fladd@b+3,f
  3763  034B  0CF2               	rrf	___fladd@b+2,f
  3764  034C  0CF1               	rrf	___fladd@b+1,f
  3765  034D  0CF0               	rrf	___fladd@b,f
  3766  034E  0BA0               	decfsz	??___fladd& (0+127),f
  3767  034F  2B49               	goto	u2085
  3768  0350                     l2046:	
  3769  0350  3001               	movlw	1
  3770  0351  00A0               	movwf	??___fladd
  3771  0352  0820               	movf	??___fladd,w
  3772  0353  07FA               	addwf	___fladd@bexp,f
  3773  0354  2C0D               	goto	l2082
  3774  0355                     l2048:	
  3775  0355  0873               	movf	___fladd@b+3,w
  3776  0356  3A80               	xorlw	128
  3777  0357  00FF               	movwf	btemp+1
  3778  0358  0877               	movf	___fladd@a+3,w
  3779  0359  3A80               	xorlw	128
  3780  035A  027F               	subwf	btemp+1,w
  3781  035B  1D03               	skipz
  3782  035C  2B67               	goto	u2093
  3783  035D  0876               	movf	___fladd@a+2,w
  3784  035E  0272               	subwf	___fladd@b+2,w
  3785  035F  1D03               	skipz
  3786  0360  2B67               	goto	u2093
  3787  0361  0875               	movf	___fladd@a+1,w
  3788  0362  0271               	subwf	___fladd@b+1,w
  3789  0363  1D03               	skipz
  3790  0364  2B67               	goto	u2093
  3791  0365  0874               	movf	___fladd@a,w
  3792  0366  0270               	subwf	___fladd@b,w
  3793  0367                     u2093:	
  3794  0367  1803               	skipnc
  3795  0368  2B6A               	goto	u2091
  3796  0369  2B6B               	goto	u2090
  3797  036A                     u2091:	
  3798  036A  2BC5               	goto	l2058
  3799  036B                     u2090:	
  3800  036B                     l2050:	
  3801  036B  30FF               	movlw	255
  3802  036C  1283               	bcf	3,5	;RP0=0, select bank0
  3803  036D  1303               	bcf	3,6	;RP1=0, select bank0
  3804  036E  00A0               	movwf	??___fladd
  3805  036F  30FF               	movlw	255
  3806  0370  00A1               	movwf	??___fladd+1
  3807  0371  30FF               	movlw	255
  3808  0372  00A2               	movwf	??___fladd+2
  3809  0373  30FF               	movlw	255
  3810  0374  00A3               	movwf	??___fladd+3
  3811  0375  0874               	movf	___fladd@a,w
  3812  0376  00A4               	movwf	??___fladd+4
  3813  0377  0875               	movf	___fladd@a+1,w
  3814  0378  00A5               	movwf	??___fladd+5
  3815  0379  0876               	movf	___fladd@a+2,w
  3816  037A  00A6               	movwf	??___fladd+6
  3817  037B  0877               	movf	___fladd@a+3,w
  3818  037C  00A7               	movwf	??___fladd+7
  3819  037D  0870               	movf	___fladd@b,w
  3820  037E  02A4               	subwf	??___fladd+4,f
  3821  037F  0871               	movf	___fladd@b+1,w
  3822  0380  1C03               	skipc
  3823  0381  0F71               	incfsz	___fladd@b+1,w
  3824  0382  2B84               	goto	u2101
  3825  0383  2B85               	goto	u2102
  3826  0384                     u2101:	
  3827  0384  02A5               	subwf	??___fladd+5,f
  3828  0385                     u2102:	
  3829  0385  0872               	movf	___fladd@b+2,w
  3830  0386  1C03               	skipc
  3831  0387  0F72               	incfsz	___fladd@b+2,w
  3832  0388  2B8A               	goto	u2103
  3833  0389  2B8B               	goto	u2104
  3834  038A                     u2103:	
  3835  038A  02A6               	subwf	??___fladd+6,f
  3836  038B                     u2104:	
  3837  038B  0873               	movf	___fladd@b+3,w
  3838  038C  1C03               	skipc
  3839  038D  0F73               	incfsz	___fladd@b+3,w
  3840  038E  2B90               	goto	u2105
  3841  038F  2B91               	goto	u2106
  3842  0390                     u2105:	
  3843  0390  02A7               	subwf	??___fladd+7,f
  3844  0391                     u2106:	
  3845  0391  0824               	movf	??___fladd+4,w
  3846  0392  07A0               	addwf	??___fladd,f
  3847  0393  0825               	movf	??___fladd+5,w
  3848  0394  1803               	skipnc
  3849  0395  0F25               	incfsz	??___fladd+5,w
  3850  0396  2B98               	goto	u2110
  3851  0397  2B99               	goto	u2111
  3852  0398                     u2110:	
  3853  0398  07A1               	addwf	??___fladd+1,f
  3854  0399                     u2111:	
  3855  0399  0826               	movf	??___fladd+6,w
  3856  039A  1803               	skipnc
  3857  039B  0F26               	incfsz	??___fladd+6,w
  3858  039C  2B9E               	goto	u2112
  3859  039D  2B9F               	goto	u2113
  3860  039E                     u2112:	
  3861  039E  07A2               	addwf	??___fladd+2,f
  3862  039F                     u2113:	
  3863  039F  0827               	movf	??___fladd+7,w
  3864  03A0  1803               	skipnc
  3865  03A1  0A27               	incf	??___fladd+7,w
  3866  03A2  07A3               	addwf	??___fladd+3,f
  3867  03A3  0823               	movf	??___fladd+3,w
  3868  03A4  00F3               	movwf	___fladd@b+3
  3869  03A5  0822               	movf	??___fladd+2,w
  3870  03A6  00F2               	movwf	___fladd@b+2
  3871  03A7  0821               	movf	??___fladd+1,w
  3872  03A8  00F1               	movwf	___fladd@b+1
  3873  03A9  0820               	movf	??___fladd,w
  3874  03AA  00F0               	movwf	___fladd@b
  3875  03AB                     l2052:	
  3876  03AB  3080               	movlw	128
  3877  03AC  00A0               	movwf	??___fladd
  3878  03AD  0820               	movf	??___fladd,w
  3879  03AE  06F8               	xorwf	___fladd@signs,f
  3880  03AF  09FB               	comf	___fladd@grs,f
  3881  03B0  0AFB               	incf	___fladd@grs,f
  3882  03B1                     l2054:	
  3883  03B1  087B               	movf	___fladd@grs,w
  3884  03B2  1D03               	btfss	3,2
  3885  03B3  2BB5               	goto	u2121
  3886  03B4  2BB6               	goto	u2120
  3887  03B5                     u2121:	
  3888  03B5  2BD3               	goto	l652
  3889  03B6                     u2120:	
  3890  03B6                     l2056:	
  3891  03B6  3001               	movlw	1
  3892  03B7  07F0               	addwf	___fladd@b,f
  3893  03B8  3000               	movlw	0
  3894  03B9  1803               	skipnc
  3895  03BA  3001               	movlw	1
  3896  03BB  07F1               	addwf	___fladd@b+1,f
  3897  03BC  3000               	movlw	0
  3898  03BD  1803               	skipnc
  3899  03BE  3001               	movlw	1
  3900  03BF  07F2               	addwf	___fladd@b+2,f
  3901  03C0  3000               	movlw	0
  3902  03C1  1803               	skipnc
  3903  03C2  3001               	movlw	1
  3904  03C3  07F3               	addwf	___fladd@b+3,f
  3905  03C4  2BD3               	goto	l652
  3906  03C5                     l2058:	
  3907  03C5  0874               	movf	___fladd@a,w
  3908  03C6  02F0               	subwf	___fladd@b,f
  3909  03C7  0875               	movf	___fladd@a+1,w
  3910  03C8  1C03               	skipc
  3911  03C9  0F75               	incfsz	___fladd@a+1,w
  3912  03CA  02F1               	subwf	___fladd@b+1,f
  3913  03CB  0876               	movf	___fladd@a+2,w
  3914  03CC  1C03               	skipc
  3915  03CD  0F76               	incfsz	___fladd@a+2,w
  3916  03CE  02F2               	subwf	___fladd@b+2,f
  3917  03CF  0877               	movf	___fladd@a+3,w
  3918  03D0  1C03               	skipc
  3919  03D1  0F77               	incfsz	___fladd@a+3,w
  3920  03D2  02F3               	subwf	___fladd@b+3,f
  3921  03D3                     l652:	
  3922  03D3  0873               	movf	___fladd@b+3,w
  3923  03D4  0472               	iorwf	___fladd@b+2,w
  3924  03D5  0471               	iorwf	___fladd@b+1,w
  3925  03D6  0470               	iorwf	___fladd@b,w
  3926  03D7  1D03               	skipz
  3927  03D8  2BDA               	goto	u2131
  3928  03D9  2BDB               	goto	u2130
  3929  03DA                     u2131:	
  3930  03DA  2C09               	goto	l2080
  3931  03DB                     u2130:	
  3932  03DB                     l2060:	
  3933  03DB  087B               	movf	___fladd@grs,w
  3934  03DC  1D03               	btfss	3,2
  3935  03DD  2BDF               	goto	u2141
  3936  03DE  2BE0               	goto	u2140
  3937  03DF                     u2141:	
  3938  03DF  2C09               	goto	l2080
  3939  03E0                     u2140:	
  3940  03E0                     l2062:	
  3941  03E0  3000               	movlw	0
  3942  03E1  00F3               	movwf	?___fladd+3
  3943  03E2  3000               	movlw	0
  3944  03E3  00F2               	movwf	?___fladd+2
  3945  03E4  3000               	movlw	0
  3946  03E5  00F1               	movwf	?___fladd+1
  3947  03E6  3000               	movlw	0
  3948  03E7  00F0               	movwf	?___fladd
  3949  03E8  2C8D               	goto	l644
  3950  03E9                     l2066:	
  3951  03E9  3001               	movlw	1
  3952  03EA  1283               	bcf	3,5	;RP0=0, select bank0
  3953  03EB  1303               	bcf	3,6	;RP1=0, select bank0
  3954  03EC  00A0               	movwf	??___fladd
  3955  03ED                     u2155:	
  3956  03ED  1003               	clrc
  3957  03EE  0DF0               	rlf	___fladd@b,f
  3958  03EF  0DF1               	rlf	___fladd@b+1,f
  3959  03F0  0DF2               	rlf	___fladd@b+2,f
  3960  03F1  0DF3               	rlf	___fladd@b+3,f
  3961  03F2  0BA0               	decfsz	??___fladd,f
  3962  03F3  2BED               	goto	u2155
  3963  03F4                     l2068:	
  3964  03F4  1FFB               	btfss	___fladd@grs,7
  3965  03F5  2BF7               	goto	u2161
  3966  03F6  2BF8               	goto	u2160
  3967  03F7                     u2161:	
  3968  03F7  2BF9               	goto	l656
  3969  03F8                     u2160:	
  3970  03F8                     l2070:	
  3971  03F8  1470               	bsf	___fladd@b,0
  3972  03F9                     l656:	
  3973  03F9  1C7B               	btfss	___fladd@grs,0
  3974  03FA  2BFC               	goto	u2171
  3975  03FB  2BFD               	goto	u2170
  3976  03FC                     u2171:	
  3977  03FC  2C00               	goto	l2074
  3978  03FD                     u2170:	
  3979  03FD                     l2072:	
  3980  03FD  1403               	setc
  3981  03FE  0DFB               	rlf	___fladd@grs,f
  3982  03FF  2C02               	goto	l2076
  3983  0400                     l2074:	
  3984  0400  1003               	clrc
  3985  0401  0DFB               	rlf	___fladd@grs,f
  3986  0402                     l2076:	
  3987  0402  087A               	movf	___fladd@bexp,w
  3988  0403  1903               	btfsc	3,2
  3989  0404  2C06               	goto	u2181
  3990  0405  2C07               	goto	u2180
  3991  0406                     u2181:	
  3992  0406  2C09               	goto	l2080
  3993  0407                     u2180:	
  3994  0407                     l2078:	
  3995  0407  3001               	movlw	1
  3996  0408  02FA               	subwf	___fladd@bexp,f
  3997  0409                     l2080:	
  3998  0409  1FF2               	btfss	___fladd@b+2,7
  3999  040A  2C0C               	goto	u2191
  4000  040B  2C0D               	goto	u2190
  4001  040C                     u2191:	
  4002  040C  2BE9               	goto	l2066
  4003  040D                     u2190:	
  4004  040D                     l2082:	
  4005  040D  01F9               	clrf	___fladd@aexp
  4006  040E                     l2084:	
  4007  040E  1FFB               	btfss	___fladd@grs,7
  4008  040F  2C11               	goto	u2201
  4009  0410  2C12               	goto	u2200
  4010  0411                     u2201:	
  4011  0411  2C20               	goto	l2092
  4012  0412                     u2200:	
  4013  0412                     l2086:	
  4014  0412  087B               	movf	___fladd@grs,w
  4015  0413  397F               	andlw	127
  4016  0414  1903               	btfsc	3,2
  4017  0415  2C17               	goto	u2211
  4018  0416  2C18               	goto	u2210
  4019  0417                     u2211:	
  4020  0417  2C1B               	goto	l662
  4021  0418                     u2210:	
  4022  0418                     l2088:	
  4023  0418  01F9               	clrf	___fladd@aexp
  4024  0419  0AF9               	incf	___fladd@aexp,f
  4025  041A  2C20               	goto	l2092
  4026  041B                     l662:	
  4027  041B  1C70               	btfss	___fladd@b,0
  4028  041C  2C1E               	goto	u2221
  4029  041D  2C1F               	goto	u2220
  4030  041E                     u2221:	
  4031  041E  2C20               	goto	l2092
  4032  041F                     u2220:	
  4033  041F  2C18               	goto	l2088
  4034  0420                     l2092:	
  4035  0420  0879               	movf	___fladd@aexp,w
  4036  0421  1903               	btfsc	3,2
  4037  0422  2C24               	goto	u2231
  4038  0423  2C25               	goto	u2230
  4039  0424                     u2231:	
  4040  0424  2C5B               	goto	l665
  4041  0425                     u2230:	
  4042  0425                     l2094:	
  4043  0425  3001               	movlw	1
  4044  0426  07F0               	addwf	___fladd@b,f
  4045  0427  3000               	movlw	0
  4046  0428  1803               	skipnc
  4047  0429  3001               	movlw	1
  4048  042A  07F1               	addwf	___fladd@b+1,f
  4049  042B  3000               	movlw	0
  4050  042C  1803               	skipnc
  4051  042D  3001               	movlw	1
  4052  042E  07F2               	addwf	___fladd@b+2,f
  4053  042F  3000               	movlw	0
  4054  0430  1803               	skipnc
  4055  0431  3001               	movlw	1
  4056  0432  07F3               	addwf	___fladd@b+3,f
  4057  0433                     l2096:	
  4058  0433  1C73               	btfss	___fladd@b+3,0
  4059  0434  2C36               	goto	u2241
  4060  0435  2C37               	goto	u2240
  4061  0436                     u2241:	
  4062  0436  2C5B               	goto	l665
  4063  0437                     u2240:	
  4064  0437                     l2098:	
  4065  0437  0870               	movf	___fladd@b,w
  4066  0438  1283               	bcf	3,5	;RP0=0, select bank0
  4067  0439  1303               	bcf	3,6	;RP1=0, select bank0
  4068  043A  00A0               	movwf	??___fladd
  4069  043B  0871               	movf	___fladd@b+1,w
  4070  043C  00A1               	movwf	??___fladd+1
  4071  043D  0872               	movf	___fladd@b+2,w
  4072  043E  00A2               	movwf	??___fladd+2
  4073  043F  0873               	movf	___fladd@b+3,w
  4074  0440  00A3               	movwf	??___fladd+3
  4075  0441  3001               	movlw	1
  4076  0442  00A4               	movwf	??___fladd+4
  4077  0443                     u2255:	
  4078  0443  0D23               	rlf	??___fladd+3,w
  4079  0444  0CA3               	rrf	??___fladd+3,f
  4080  0445  0CA2               	rrf	??___fladd+2,f
  4081  0446  0CA1               	rrf	??___fladd+1,f
  4082  0447  0CA0               	rrf	??___fladd,f
  4083  0448                     u2250:	
  4084  0448  0BA4               	decfsz	??___fladd+4,f
  4085  0449  2C43               	goto	u2255
  4086  044A  0823               	movf	??___fladd+3,w
  4087  044B  00F3               	movwf	___fladd@b+3
  4088  044C  0822               	movf	??___fladd+2,w
  4089  044D  00F2               	movwf	___fladd@b+2
  4090  044E  0821               	movf	??___fladd+1,w
  4091  044F  00F1               	movwf	___fladd@b+1
  4092  0450  0820               	movf	??___fladd,w
  4093  0451  00F0               	movwf	___fladd@b
  4094  0452  0A7A               	incf	___fladd@bexp,w
  4095  0453  1903               	btfsc	3,2
  4096  0454  2C56               	goto	u2261
  4097  0455  2C57               	goto	u2260
  4098  0456                     u2261:	
  4099  0456  2C5B               	goto	l665
  4100  0457                     u2260:	
  4101  0457                     l2100:	
  4102  0457  3001               	movlw	1
  4103  0458  00A0               	movwf	??___fladd
  4104  0459  0820               	movf	??___fladd,w
  4105  045A  07FA               	addwf	___fladd@bexp,f
  4106  045B                     l665:	
  4107  045B  0A7A               	incf	___fladd@bexp,w
  4108  045C  1903               	btfsc	3,2
  4109  045D  2C5F               	goto	u2271
  4110  045E  2C60               	goto	u2270
  4111  045F                     u2271:	
  4112  045F  2C65               	goto	l2104
  4113  0460                     u2270:	
  4114  0460                     l2102:	
  4115  0460  087A               	movf	___fladd@bexp,w
  4116  0461  1D03               	btfss	3,2
  4117  0462  2C64               	goto	u2281
  4118  0463  2C65               	goto	u2280
  4119  0464                     u2281:	
  4120  0464  2C73               	goto	l2110
  4121  0465                     u2280:	
  4122  0465                     l2104:	
  4123  0465  3000               	movlw	0
  4124  0466  00F3               	movwf	___fladd@b+3
  4125  0467  3000               	movlw	0
  4126  0468  00F2               	movwf	___fladd@b+2
  4127  0469  3000               	movlw	0
  4128  046A  00F1               	movwf	___fladd@b+1
  4129  046B  3000               	movlw	0
  4130  046C  00F0               	movwf	___fladd@b
  4131  046D                     l2106:	
  4132  046D  087A               	movf	___fladd@bexp,w
  4133  046E  1D03               	btfss	3,2
  4134  046F  2C71               	goto	u2291
  4135  0470  2C72               	goto	u2290
  4136  0471                     u2291:	
  4137  0471  2C73               	goto	l2110
  4138  0472                     u2290:	
  4139  0472                     l2108:	
  4140  0472  01F8               	clrf	___fladd@signs
  4141  0473                     l2110:	
  4142  0473  1C7A               	btfss	___fladd@bexp,0
  4143  0474  2C76               	goto	u2301
  4144  0475  2C77               	goto	u2300
  4145  0476                     u2301:	
  4146  0476  2C79               	goto	l2114
  4147  0477                     u2300:	
  4148  0477                     l2112:	
  4149  0477  17F2               	bsf	___fladd@b+2,7
  4150  0478  2C7F               	goto	l673
  4151  0479                     l2114:	
  4152  0479  307F               	movlw	127
  4153  047A  1283               	bcf	3,5	;RP0=0, select bank0
  4154  047B  1303               	bcf	3,6	;RP1=0, select bank0
  4155  047C  00A0               	movwf	??___fladd
  4156  047D  0820               	movf	??___fladd,w
  4157  047E  05F2               	andwf	___fladd@b+2,f
  4158  047F                     l673:	
  4159  047F  087A               	movf	___fladd@bexp,w
  4160  0480  1283               	bcf	3,5	;RP0=0, select bank0
  4161  0481  1303               	bcf	3,6	;RP1=0, select bank0
  4162  0482  00A0               	movwf	??___fladd
  4163  0483  1003               	clrc
  4164  0484  0C20               	rrf	??___fladd,w
  4165  0485  00A1               	movwf	??___fladd+1
  4166  0486  0821               	movf	??___fladd+1,w
  4167  0487  00F3               	movwf	___fladd@b+3
  4168  0488                     l2116:	
  4169  0488  1FF8               	btfss	___fladd@signs,7
  4170  0489  2C8B               	goto	u2311
  4171  048A  2C8C               	goto	u2310
  4172  048B                     u2311:	
  4173  048B  2C8D               	goto	l674
  4174  048C                     u2310:	
  4175  048C                     l2118:	
  4176  048C  17F3               	bsf	___fladd@b+3,7
  4177  048D                     l674:	
  4178  048D                     l644:	
  4179  048D  0008               	return
  4180  048E                     __end_of___fladd:	
  4181                           
  4182                           	psect	text10
  4183  048E                     __ptext10:	
  4184 ;; *************** function ___flmul *****************
  4185 ;; Defined at:
  4186 ;;		line 8 in file "C:\Program Files (x86)\Microchip\xc8\v2.10\pic\sources\c90\common\sprcmul.c"
  4187 ;; Parameters:    Size  Location     Type
  4188 ;;  b               4   16[BANK0 ] unsigned char 
  4189 ;;  a               4   20[BANK0 ] unsigned char 
  4190 ;; Auto vars:     Size  Location     Type
  4191 ;;  prod            4   36[BANK0 ] struct .
  4192 ;;  grs             4   30[BANK0 ] unsigned long 
  4193 ;;  temp            2   40[BANK0 ] struct .
  4194 ;;  bexp            1   35[BANK0 ] unsigned char 
  4195 ;;  aexp            1   34[BANK0 ] unsigned char 
  4196 ;;  sign            1   29[BANK0 ] unsigned char 
  4197 ;; Return value:  Size  Location     Type
  4198 ;;                  4   16[BANK0 ] unsigned char 
  4199 ;; Registers used:
  4200 ;;		wreg, status,2, status,0, btemp+1, pclath, cstack
  4201 ;; Tracked objects:
  4202 ;;		On entry : 0/0
  4203 ;;		On exit  : 0/0
  4204 ;;		Unchanged: 0/0
  4205 ;; Data sizes:     COMMON   BANK0   BANK1   BANK3   BANK2
  4206 ;;      Params:         0       8       0       0       0
  4207 ;;      Locals:         0      13       0       0       0
  4208 ;;      Temps:          0       5       0       0       0
  4209 ;;      Totals:         0      26       0       0       0
  4210 ;;Total ram usage:       26 bytes
  4211 ;; Hardware stack levels used:    1
  4212 ;; Hardware stack levels required when called:    1
  4213 ;; This function calls:
  4214 ;;		__Umul8_16
  4215 ;; This function is called by:
  4216 ;;		_int_stre
  4217 ;;		_int_strd
  4218 ;;		_int_strc
  4219 ;; This function uses a non-reentrant model
  4220 ;;
  4221                           
  4222                           
  4223                           ;psect for function ___flmul
  4224  048E                     ___flmul:	
  4225  048E                     l2286:	
  4226                           ;incstack = 0
  4227                           ; Regs used in ___flmul: [wreg+status,2+status,0+btemp+1+pclath+cstack]
  4228                           
  4229  048E  1283               	bcf	3,5	;RP0=0, select bank0
  4230  048F  1303               	bcf	3,6	;RP1=0, select bank0
  4231  0490  0833               	movf	___flmul@b+3,w
  4232  0491  3980               	andlw	128
  4233  0492  00B8               	movwf	??___flmul
  4234  0493  0838               	movf	??___flmul,w
  4235  0494  00BD               	movwf	___flmul@sign
  4236  0495                     l2288:	
  4237  0495  0833               	movf	___flmul@b+3,w
  4238  0496  00B8               	movwf	??___flmul
  4239  0497  0738               	addwf	??___flmul,w
  4240  0498  00B9               	movwf	??___flmul+1
  4241  0499  0839               	movf	??___flmul+1,w
  4242  049A  00C3               	movwf	___flmul@bexp
  4243  049B                     l2290:	
  4244  049B  1FB2               	btfss	___flmul@b+2,7
  4245  049C  2C9E               	goto	u2571
  4246  049D  2C9F               	goto	u2570
  4247  049E                     u2571:	
  4248  049E  2CA0               	goto	l2294
  4249  049F                     u2570:	
  4250  049F                     l2292:	
  4251  049F  1443               	bsf	___flmul@bexp,0
  4252  04A0                     l2294:	
  4253  04A0  0843               	movf	___flmul@bexp,w
  4254  04A1  1903               	btfsc	3,2
  4255  04A2  2CA4               	goto	u2581
  4256  04A3  2CA5               	goto	u2580
  4257  04A4                     u2581:	
  4258  04A4  2CB4               	goto	l2302
  4259  04A5                     u2580:	
  4260  04A5                     l2296:	
  4261  04A5  0A43               	incf	___flmul@bexp,w
  4262  04A6  1D03               	btfss	3,2
  4263  04A7  2CA9               	goto	u2591
  4264  04A8  2CAA               	goto	u2590
  4265  04A9                     u2591:	
  4266  04A9  2CB2               	goto	l2300
  4267  04AA                     u2590:	
  4268  04AA                     l2298:	
  4269  04AA  3000               	movlw	0
  4270  04AB  00B3               	movwf	___flmul@b+3
  4271  04AC  3000               	movlw	0
  4272  04AD  00B2               	movwf	___flmul@b+2
  4273  04AE  3000               	movlw	0
  4274  04AF  00B1               	movwf	___flmul@b+1
  4275  04B0  3000               	movlw	0
  4276  04B1  00B0               	movwf	___flmul@b
  4277  04B2                     l2300:	
  4278  04B2  17B2               	bsf	___flmul@b+2,7
  4279  04B3  2CBC               	goto	l2304
  4280  04B4                     l2302:	
  4281  04B4  3000               	movlw	0
  4282  04B5  00B3               	movwf	___flmul@b+3
  4283  04B6  3000               	movlw	0
  4284  04B7  00B2               	movwf	___flmul@b+2
  4285  04B8  3000               	movlw	0
  4286  04B9  00B1               	movwf	___flmul@b+1
  4287  04BA  3000               	movlw	0
  4288  04BB  00B0               	movwf	___flmul@b
  4289  04BC                     l2304:	
  4290  04BC  0837               	movf	___flmul@a+3,w
  4291  04BD  3980               	andlw	128
  4292  04BE  00B8               	movwf	??___flmul
  4293  04BF  0838               	movf	??___flmul,w
  4294  04C0  06BD               	xorwf	___flmul@sign,f
  4295  04C1                     l2306:	
  4296  04C1  0837               	movf	___flmul@a+3,w
  4297  04C2  00B8               	movwf	??___flmul
  4298  04C3  0738               	addwf	??___flmul,w
  4299  04C4  00B9               	movwf	??___flmul+1
  4300  04C5  0839               	movf	??___flmul+1,w
  4301  04C6  00C2               	movwf	___flmul@aexp
  4302  04C7                     l2308:	
  4303  04C7  1FB6               	btfss	___flmul@a+2,7
  4304  04C8  2CCA               	goto	u2601
  4305  04C9  2CCB               	goto	u2600
  4306  04CA                     u2601:	
  4307  04CA  2CCC               	goto	l2312
  4308  04CB                     u2600:	
  4309  04CB                     l2310:	
  4310  04CB  1442               	bsf	___flmul@aexp,0
  4311  04CC                     l2312:	
  4312  04CC  0842               	movf	___flmul@aexp,w
  4313  04CD  1903               	btfsc	3,2
  4314  04CE  2CD0               	goto	u2611
  4315  04CF  2CD1               	goto	u2610
  4316  04D0                     u2611:	
  4317  04D0  2CE0               	goto	l2320
  4318  04D1                     u2610:	
  4319  04D1                     l2314:	
  4320  04D1  0A42               	incf	___flmul@aexp,w
  4321  04D2  1D03               	btfss	3,2
  4322  04D3  2CD5               	goto	u2621
  4323  04D4  2CD6               	goto	u2620
  4324  04D5                     u2621:	
  4325  04D5  2CDE               	goto	l2318
  4326  04D6                     u2620:	
  4327  04D6                     l2316:	
  4328  04D6  3000               	movlw	0
  4329  04D7  00B7               	movwf	___flmul@a+3
  4330  04D8  3000               	movlw	0
  4331  04D9  00B6               	movwf	___flmul@a+2
  4332  04DA  3000               	movlw	0
  4333  04DB  00B5               	movwf	___flmul@a+1
  4334  04DC  3000               	movlw	0
  4335  04DD  00B4               	movwf	___flmul@a
  4336  04DE                     l2318:	
  4337  04DE  17B6               	bsf	___flmul@a+2,7
  4338  04DF  2CE8               	goto	l2322
  4339  04E0                     l2320:	
  4340  04E0  3000               	movlw	0
  4341  04E1  00B7               	movwf	___flmul@a+3
  4342  04E2  3000               	movlw	0
  4343  04E3  00B6               	movwf	___flmul@a+2
  4344  04E4  3000               	movlw	0
  4345  04E5  00B5               	movwf	___flmul@a+1
  4346  04E6  3000               	movlw	0
  4347  04E7  00B4               	movwf	___flmul@a
  4348  04E8                     l2322:	
  4349  04E8  0842               	movf	___flmul@aexp,w
  4350  04E9  1903               	btfsc	3,2
  4351  04EA  2CEC               	goto	u2631
  4352  04EB  2CED               	goto	u2630
  4353  04EC                     u2631:	
  4354  04EC  2CF2               	goto	l2326
  4355  04ED                     u2630:	
  4356  04ED                     l2324:	
  4357  04ED  0843               	movf	___flmul@bexp,w
  4358  04EE  1D03               	btfss	3,2
  4359  04EF  2CF1               	goto	u2641
  4360  04F0  2CF2               	goto	u2640
  4361  04F1                     u2641:	
  4362  04F1  2CFB               	goto	l2330
  4363  04F2                     u2640:	
  4364  04F2                     l2326:	
  4365  04F2  3000               	movlw	0
  4366  04F3  00B3               	movwf	?___flmul+3
  4367  04F4  3000               	movlw	0
  4368  04F5  00B2               	movwf	?___flmul+2
  4369  04F6  3000               	movlw	0
  4370  04F7  00B1               	movwf	?___flmul+1
  4371  04F8  3000               	movlw	0
  4372  04F9  00B0               	movwf	?___flmul
  4373  04FA  2FEE               	goto	l727
  4374  04FB                     l2330:	
  4375  04FB  0830               	movf	___flmul@b,w
  4376  04FC  00B8               	movwf	??___flmul
  4377  04FD  0838               	movf	??___flmul,w
  4378  04FE  00F0               	movwf	__Umul8_16@multiplicand
  4379  04FF  0836               	movf	___flmul@a+2,w
  4380  0500  160A  118A  2639  120A  118A  	fcall	__Umul8_16
  4381  0505  0871               	movf	?__Umul8_16+1,w
  4382  0506  1283               	bcf	3,5	;RP0=0, select bank0
  4383  0507  1303               	bcf	3,6	;RP1=0, select bank0
  4384  0508  00C9               	movwf	___flmul@temp+1
  4385  0509  0870               	movf	?__Umul8_16,w
  4386  050A  00C8               	movwf	___flmul@temp
  4387  050B                     l2332:	
  4388  050B  0848               	movf	___flmul@temp,w
  4389  050C  00B8               	movwf	??___flmul
  4390  050D  01B9               	clrf	??___flmul+1
  4391  050E  01BA               	clrf	??___flmul+2
  4392  050F  01BB               	clrf	??___flmul+3
  4393  0510  083B               	movf	??___flmul+3,w
  4394  0511  00C1               	movwf	___flmul@grs+3
  4395  0512  083A               	movf	??___flmul+2,w
  4396  0513  00C0               	movwf	___flmul@grs+2
  4397  0514  0839               	movf	??___flmul+1,w
  4398  0515  00BF               	movwf	___flmul@grs+1
  4399  0516  0838               	movf	??___flmul,w
  4400  0517  00BE               	movwf	___flmul@grs
  4401  0518                     l2334:	
  4402  0518  0849               	movf	___flmul@temp+1,w
  4403  0519  00B8               	movwf	??___flmul
  4404  051A  01B9               	clrf	??___flmul+1
  4405  051B  01BA               	clrf	??___flmul+2
  4406  051C  01BB               	clrf	??___flmul+3
  4407  051D  083B               	movf	??___flmul+3,w
  4408  051E  00C7               	movwf	___flmul@prod+3
  4409  051F  083A               	movf	??___flmul+2,w
  4410  0520  00C6               	movwf	___flmul@prod+2
  4411  0521  0839               	movf	??___flmul+1,w
  4412  0522  00C5               	movwf	___flmul@prod+1
  4413  0523  0838               	movf	??___flmul,w
  4414  0524  00C4               	movwf	___flmul@prod
  4415  0525  0831               	movf	___flmul@b+1,w
  4416  0526  00B8               	movwf	??___flmul
  4417  0527  0838               	movf	??___flmul,w
  4418  0528  00F0               	movwf	__Umul8_16@multiplicand
  4419  0529  0835               	movf	___flmul@a+1,w
  4420  052A  160A  118A  2639  120A  118A  	fcall	__Umul8_16
  4421  052F  0871               	movf	?__Umul8_16+1,w
  4422  0530  1283               	bcf	3,5	;RP0=0, select bank0
  4423  0531  1303               	bcf	3,6	;RP1=0, select bank0
  4424  0532  00C9               	movwf	___flmul@temp+1
  4425  0533  0870               	movf	?__Umul8_16,w
  4426  0534  00C8               	movwf	___flmul@temp
  4427  0535                     l2336:	
  4428  0535  0848               	movf	___flmul@temp,w
  4429  0536  00B8               	movwf	??___flmul
  4430  0537  01B9               	clrf	??___flmul+1
  4431  0538  01BA               	clrf	??___flmul+2
  4432  0539  01BB               	clrf	??___flmul+3
  4433  053A  0838               	movf	??___flmul,w
  4434  053B  07BE               	addwf	___flmul@grs,f
  4435  053C  0839               	movf	??___flmul+1,w
  4436  053D  1103               	clrz
  4437  053E  1803               	skipnc
  4438  053F  3E01               	addlw	1
  4439  0540  1903               	skipnz
  4440  0541  2D43               	goto	u2651
  4441  0542  07BF               	addwf	___flmul@grs+1,f
  4442  0543                     u2651:	
  4443  0543  083A               	movf	??___flmul+2,w
  4444  0544  1103               	clrz
  4445  0545  1803               	skipnc
  4446  0546  3E01               	addlw	1
  4447  0547  1903               	skipnz
  4448  0548  2D4A               	goto	u2652
  4449  0549  07C0               	addwf	___flmul@grs+2,f
  4450  054A                     u2652:	
  4451  054A  083B               	movf	??___flmul+3,w
  4452  054B  1103               	clrz
  4453  054C  1803               	skipnc
  4454  054D  3E01               	addlw	1
  4455  054E  1903               	skipnz
  4456  054F  2D51               	goto	u2653
  4457  0550  07C1               	addwf	___flmul@grs+3,f
  4458  0551                     u2653:	
  4459  0551                     l2338:	
  4460  0551  0849               	movf	___flmul@temp+1,w
  4461  0552  00B8               	movwf	??___flmul
  4462  0553  01B9               	clrf	??___flmul+1
  4463  0554  01BA               	clrf	??___flmul+2
  4464  0555  01BB               	clrf	??___flmul+3
  4465  0556  0838               	movf	??___flmul,w
  4466  0557  07C4               	addwf	___flmul@prod,f
  4467  0558  0839               	movf	??___flmul+1,w
  4468  0559  1103               	clrz
  4469  055A  1803               	skipnc
  4470  055B  3E01               	addlw	1
  4471  055C  1903               	skipnz
  4472  055D  2D5F               	goto	u2661
  4473  055E  07C5               	addwf	___flmul@prod+1,f
  4474  055F                     u2661:	
  4475  055F  083A               	movf	??___flmul+2,w
  4476  0560  1103               	clrz
  4477  0561  1803               	skipnc
  4478  0562  3E01               	addlw	1
  4479  0563  1903               	skipnz
  4480  0564  2D66               	goto	u2662
  4481  0565  07C6               	addwf	___flmul@prod+2,f
  4482  0566                     u2662:	
  4483  0566  083B               	movf	??___flmul+3,w
  4484  0567  1103               	clrz
  4485  0568  1803               	skipnc
  4486  0569  3E01               	addlw	1
  4487  056A  1903               	skipnz
  4488  056B  2D6D               	goto	u2663
  4489  056C  07C7               	addwf	___flmul@prod+3,f
  4490  056D                     u2663:	
  4491  056D  0832               	movf	___flmul@b+2,w
  4492  056E  00B8               	movwf	??___flmul
  4493  056F  0838               	movf	??___flmul,w
  4494  0570  00F0               	movwf	__Umul8_16@multiplicand
  4495  0571  0834               	movf	___flmul@a,w
  4496  0572  160A  118A  2639  120A  118A  	fcall	__Umul8_16
  4497  0577  0871               	movf	?__Umul8_16+1,w
  4498  0578  1283               	bcf	3,5	;RP0=0, select bank0
  4499  0579  1303               	bcf	3,6	;RP1=0, select bank0
  4500  057A  00C9               	movwf	___flmul@temp+1
  4501  057B  0870               	movf	?__Umul8_16,w
  4502  057C  00C8               	movwf	___flmul@temp
  4503  057D                     l2340:	
  4504  057D  0848               	movf	___flmul@temp,w
  4505  057E  00B8               	movwf	??___flmul
  4506  057F  01B9               	clrf	??___flmul+1
  4507  0580  01BA               	clrf	??___flmul+2
  4508  0581  01BB               	clrf	??___flmul+3
  4509  0582  0838               	movf	??___flmul,w
  4510  0583  07BE               	addwf	___flmul@grs,f
  4511  0584  0839               	movf	??___flmul+1,w
  4512  0585  1103               	clrz
  4513  0586  1803               	skipnc
  4514  0587  3E01               	addlw	1
  4515  0588  1903               	skipnz
  4516  0589  2D8B               	goto	u2671
  4517  058A  07BF               	addwf	___flmul@grs+1,f
  4518  058B                     u2671:	
  4519  058B  083A               	movf	??___flmul+2,w
  4520  058C  1103               	clrz
  4521  058D  1803               	skipnc
  4522  058E  3E01               	addlw	1
  4523  058F  1903               	skipnz
  4524  0590  2D92               	goto	u2672
  4525  0591  07C0               	addwf	___flmul@grs+2,f
  4526  0592                     u2672:	
  4527  0592  083B               	movf	??___flmul+3,w
  4528  0593  1103               	clrz
  4529  0594  1803               	skipnc
  4530  0595  3E01               	addlw	1
  4531  0596  1903               	skipnz
  4532  0597  2D99               	goto	u2673
  4533  0598  07C1               	addwf	___flmul@grs+3,f
  4534  0599                     u2673:	
  4535  0599                     l2342:	
  4536  0599  0849               	movf	___flmul@temp+1,w
  4537  059A  00B8               	movwf	??___flmul
  4538  059B  01B9               	clrf	??___flmul+1
  4539  059C  01BA               	clrf	??___flmul+2
  4540  059D  01BB               	clrf	??___flmul+3
  4541  059E  0838               	movf	??___flmul,w
  4542  059F  07C4               	addwf	___flmul@prod,f
  4543  05A0  0839               	movf	??___flmul+1,w
  4544  05A1  1103               	clrz
  4545  05A2  1803               	skipnc
  4546  05A3  3E01               	addlw	1
  4547  05A4  1903               	skipnz
  4548  05A5  2DA7               	goto	u2681
  4549  05A6  07C5               	addwf	___flmul@prod+1,f
  4550  05A7                     u2681:	
  4551  05A7  083A               	movf	??___flmul+2,w
  4552  05A8  1103               	clrz
  4553  05A9  1803               	skipnc
  4554  05AA  3E01               	addlw	1
  4555  05AB  1903               	skipnz
  4556  05AC  2DAE               	goto	u2682
  4557  05AD  07C6               	addwf	___flmul@prod+2,f
  4558  05AE                     u2682:	
  4559  05AE  083B               	movf	??___flmul+3,w
  4560  05AF  1103               	clrz
  4561  05B0  1803               	skipnc
  4562  05B1  3E01               	addlw	1
  4563  05B2  1903               	skipnz
  4564  05B3  2DB5               	goto	u2683
  4565  05B4  07C7               	addwf	___flmul@prod+3,f
  4566  05B5                     u2683:	
  4567  05B5                     l2344:	
  4568  05B5  3008               	movlw	8
  4569  05B6  00B8               	movwf	??___flmul
  4570  05B7                     u2695:	
  4571  05B7  1003               	clrc
  4572  05B8  0DBE               	rlf	___flmul@grs,f
  4573  05B9  0DBF               	rlf	___flmul@grs+1,f
  4574  05BA  0DC0               	rlf	___flmul@grs+2,f
  4575  05BB  0DC1               	rlf	___flmul@grs+3,f
  4576  05BC  0BB8               	decfsz	??___flmul,f
  4577  05BD  2DB7               	goto	u2695
  4578  05BE                     l2346:	
  4579  05BE  0831               	movf	___flmul@b+1,w
  4580  05BF  00B8               	movwf	??___flmul
  4581  05C0  0838               	movf	??___flmul,w
  4582  05C1  00F0               	movwf	__Umul8_16@multiplicand
  4583  05C2  0834               	movf	___flmul@a,w
  4584  05C3  160A  118A  2639  120A  118A  	fcall	__Umul8_16
  4585  05C8  0871               	movf	?__Umul8_16+1,w
  4586  05C9  1283               	bcf	3,5	;RP0=0, select bank0
  4587  05CA  1303               	bcf	3,6	;RP1=0, select bank0
  4588  05CB  00C9               	movwf	___flmul@temp+1
  4589  05CC  0870               	movf	?__Umul8_16,w
  4590  05CD  00C8               	movwf	___flmul@temp
  4591  05CE                     l2348:	
  4592  05CE  0848               	movf	___flmul@temp,w
  4593  05CF  00B8               	movwf	??___flmul
  4594  05D0  0849               	movf	___flmul@temp+1,w
  4595  05D1  00B9               	movwf	??___flmul+1
  4596  05D2  01BA               	clrf	??___flmul+2
  4597  05D3  01BB               	clrf	??___flmul+3
  4598  05D4  0838               	movf	??___flmul,w
  4599  05D5  07BE               	addwf	___flmul@grs,f
  4600  05D6  0839               	movf	??___flmul+1,w
  4601  05D7  1103               	clrz
  4602  05D8  1803               	skipnc
  4603  05D9  3E01               	addlw	1
  4604  05DA  1903               	skipnz
  4605  05DB  2DDD               	goto	u2701
  4606  05DC  07BF               	addwf	___flmul@grs+1,f
  4607  05DD                     u2701:	
  4608  05DD  083A               	movf	??___flmul+2,w
  4609  05DE  1103               	clrz
  4610  05DF  1803               	skipnc
  4611  05E0  3E01               	addlw	1
  4612  05E1  1903               	skipnz
  4613  05E2  2DE4               	goto	u2702
  4614  05E3  07C0               	addwf	___flmul@grs+2,f
  4615  05E4                     u2702:	
  4616  05E4  083B               	movf	??___flmul+3,w
  4617  05E5  1103               	clrz
  4618  05E6  1803               	skipnc
  4619  05E7  3E01               	addlw	1
  4620  05E8  1903               	skipnz
  4621  05E9  2DEB               	goto	u2703
  4622  05EA  07C1               	addwf	___flmul@grs+3,f
  4623  05EB                     u2703:	
  4624  05EB                     l2350:	
  4625  05EB  0830               	movf	___flmul@b,w
  4626  05EC  00B8               	movwf	??___flmul
  4627  05ED  0838               	movf	??___flmul,w
  4628  05EE  00F0               	movwf	__Umul8_16@multiplicand
  4629  05EF  0835               	movf	___flmul@a+1,w
  4630  05F0  160A  118A  2639  120A  118A  	fcall	__Umul8_16
  4631  05F5  0871               	movf	?__Umul8_16+1,w
  4632  05F6  1283               	bcf	3,5	;RP0=0, select bank0
  4633  05F7  1303               	bcf	3,6	;RP1=0, select bank0
  4634  05F8  00C9               	movwf	___flmul@temp+1
  4635  05F9  0870               	movf	?__Umul8_16,w
  4636  05FA  00C8               	movwf	___flmul@temp
  4637  05FB                     l2352:	
  4638  05FB  0848               	movf	___flmul@temp,w
  4639  05FC  00B8               	movwf	??___flmul
  4640  05FD  0849               	movf	___flmul@temp+1,w
  4641  05FE  00B9               	movwf	??___flmul+1
  4642  05FF  01BA               	clrf	??___flmul+2
  4643  0600  01BB               	clrf	??___flmul+3
  4644  0601  0838               	movf	??___flmul,w
  4645  0602  07BE               	addwf	___flmul@grs,f
  4646  0603  0839               	movf	??___flmul+1,w
  4647  0604  1103               	clrz
  4648  0605  1803               	skipnc
  4649  0606  3E01               	addlw	1
  4650  0607  1903               	skipnz
  4651  0608  2E0A               	goto	u2711
  4652  0609  07BF               	addwf	___flmul@grs+1,f
  4653  060A                     u2711:	
  4654  060A  083A               	movf	??___flmul+2,w
  4655  060B  1103               	clrz
  4656  060C  1803               	skipnc
  4657  060D  3E01               	addlw	1
  4658  060E  1903               	skipnz
  4659  060F  2E11               	goto	u2712
  4660  0610  07C0               	addwf	___flmul@grs+2,f
  4661  0611                     u2712:	
  4662  0611  083B               	movf	??___flmul+3,w
  4663  0612  1103               	clrz
  4664  0613  1803               	skipnc
  4665  0614  3E01               	addlw	1
  4666  0615  1903               	skipnz
  4667  0616  2E18               	goto	u2713
  4668  0617  07C1               	addwf	___flmul@grs+3,f
  4669  0618                     u2713:	
  4670  0618                     l2354:	
  4671  0618  3008               	movlw	8
  4672  0619  00B8               	movwf	??___flmul
  4673  061A                     u2725:	
  4674  061A  1003               	clrc
  4675  061B  0DBE               	rlf	___flmul@grs,f
  4676  061C  0DBF               	rlf	___flmul@grs+1,f
  4677  061D  0DC0               	rlf	___flmul@grs+2,f
  4678  061E  0DC1               	rlf	___flmul@grs+3,f
  4679  061F  0BB8               	decfsz	??___flmul,f
  4680  0620  2E1A               	goto	u2725
  4681  0621  0830               	movf	___flmul@b,w
  4682  0622  00B8               	movwf	??___flmul
  4683  0623  0838               	movf	??___flmul,w
  4684  0624  00F0               	movwf	__Umul8_16@multiplicand
  4685  0625  0834               	movf	___flmul@a,w
  4686  0626  160A  118A  2639  120A  118A  	fcall	__Umul8_16
  4687  062B  0871               	movf	?__Umul8_16+1,w
  4688  062C  1283               	bcf	3,5	;RP0=0, select bank0
  4689  062D  1303               	bcf	3,6	;RP1=0, select bank0
  4690  062E  00C9               	movwf	___flmul@temp+1
  4691  062F  0870               	movf	?__Umul8_16,w
  4692  0630  00C8               	movwf	___flmul@temp
  4693  0631                     l2356:	
  4694  0631  0848               	movf	___flmul@temp,w
  4695  0632  00B8               	movwf	??___flmul
  4696  0633  0849               	movf	___flmul@temp+1,w
  4697  0634  00B9               	movwf	??___flmul+1
  4698  0635  01BA               	clrf	??___flmul+2
  4699  0636  01BB               	clrf	??___flmul+3
  4700  0637  0838               	movf	??___flmul,w
  4701  0638  07BE               	addwf	___flmul@grs,f
  4702  0639  0839               	movf	??___flmul+1,w
  4703  063A  1103               	clrz
  4704  063B  1803               	skipnc
  4705  063C  3E01               	addlw	1
  4706  063D  1903               	skipnz
  4707  063E  2E40               	goto	u2731
  4708  063F  07BF               	addwf	___flmul@grs+1,f
  4709  0640                     u2731:	
  4710  0640  083A               	movf	??___flmul+2,w
  4711  0641  1103               	clrz
  4712  0642  1803               	skipnc
  4713  0643  3E01               	addlw	1
  4714  0644  1903               	skipnz
  4715  0645  2E47               	goto	u2732
  4716  0646  07C0               	addwf	___flmul@grs+2,f
  4717  0647                     u2732:	
  4718  0647  083B               	movf	??___flmul+3,w
  4719  0648  1103               	clrz
  4720  0649  1803               	skipnc
  4721  064A  3E01               	addlw	1
  4722  064B  1903               	skipnz
  4723  064C  2E4E               	goto	u2733
  4724  064D  07C1               	addwf	___flmul@grs+3,f
  4725  064E                     u2733:	
  4726  064E                     l2358:	
  4727  064E  0831               	movf	___flmul@b+1,w
  4728  064F  00B8               	movwf	??___flmul
  4729  0650  0838               	movf	??___flmul,w
  4730  0651  00F0               	movwf	__Umul8_16@multiplicand
  4731  0652  0836               	movf	___flmul@a+2,w
  4732  0653  160A  118A  2639  120A  118A  	fcall	__Umul8_16
  4733  0658  0871               	movf	?__Umul8_16+1,w
  4734  0659  1283               	bcf	3,5	;RP0=0, select bank0
  4735  065A  1303               	bcf	3,6	;RP1=0, select bank0
  4736  065B  00C9               	movwf	___flmul@temp+1
  4737  065C  0870               	movf	?__Umul8_16,w
  4738  065D  00C8               	movwf	___flmul@temp
  4739  065E  0848               	movf	___flmul@temp,w
  4740  065F  00B8               	movwf	??___flmul
  4741  0660  0849               	movf	___flmul@temp+1,w
  4742  0661  00B9               	movwf	??___flmul+1
  4743  0662  01BA               	clrf	??___flmul+2
  4744  0663  01BB               	clrf	??___flmul+3
  4745  0664  0838               	movf	??___flmul,w
  4746  0665  07C4               	addwf	___flmul@prod,f
  4747  0666  0839               	movf	??___flmul+1,w
  4748  0667  1103               	clrz
  4749  0668  1803               	skipnc
  4750  0669  3E01               	addlw	1
  4751  066A  1903               	skipnz
  4752  066B  2E6D               	goto	u2741
  4753  066C  07C5               	addwf	___flmul@prod+1,f
  4754  066D                     u2741:	
  4755  066D  083A               	movf	??___flmul+2,w
  4756  066E  1103               	clrz
  4757  066F  1803               	skipnc
  4758  0670  3E01               	addlw	1
  4759  0671  1903               	skipnz
  4760  0672  2E74               	goto	u2742
  4761  0673  07C6               	addwf	___flmul@prod+2,f
  4762  0674                     u2742:	
  4763  0674  083B               	movf	??___flmul+3,w
  4764  0675  1103               	clrz
  4765  0676  1803               	skipnc
  4766  0677  3E01               	addlw	1
  4767  0678  1903               	skipnz
  4768  0679  2E7B               	goto	u2743
  4769  067A  07C7               	addwf	___flmul@prod+3,f
  4770  067B                     u2743:	
  4771  067B                     l2360:	
  4772  067B  0832               	movf	___flmul@b+2,w
  4773  067C  00B8               	movwf	??___flmul
  4774  067D  0838               	movf	??___flmul,w
  4775  067E  00F0               	movwf	__Umul8_16@multiplicand
  4776  067F  0835               	movf	___flmul@a+1,w
  4777  0680  160A  118A  2639  120A  118A  	fcall	__Umul8_16
  4778  0685  0871               	movf	?__Umul8_16+1,w
  4779  0686  1283               	bcf	3,5	;RP0=0, select bank0
  4780  0687  1303               	bcf	3,6	;RP1=0, select bank0
  4781  0688  00C9               	movwf	___flmul@temp+1
  4782  0689  0870               	movf	?__Umul8_16,w
  4783  068A  00C8               	movwf	___flmul@temp
  4784  068B                     l2362:	
  4785  068B  0848               	movf	___flmul@temp,w
  4786  068C  00B8               	movwf	??___flmul
  4787  068D  0849               	movf	___flmul@temp+1,w
  4788  068E  00B9               	movwf	??___flmul+1
  4789  068F  01BA               	clrf	??___flmul+2
  4790  0690  01BB               	clrf	??___flmul+3
  4791  0691  0838               	movf	??___flmul,w
  4792  0692  07C4               	addwf	___flmul@prod,f
  4793  0693  0839               	movf	??___flmul+1,w
  4794  0694  1103               	clrz
  4795  0695  1803               	skipnc
  4796  0696  3E01               	addlw	1
  4797  0697  1903               	skipnz
  4798  0698  2E9A               	goto	u2751
  4799  0699  07C5               	addwf	___flmul@prod+1,f
  4800  069A                     u2751:	
  4801  069A  083A               	movf	??___flmul+2,w
  4802  069B  1103               	clrz
  4803  069C  1803               	skipnc
  4804  069D  3E01               	addlw	1
  4805  069E  1903               	skipnz
  4806  069F  2EA1               	goto	u2752
  4807  06A0  07C6               	addwf	___flmul@prod+2,f
  4808  06A1                     u2752:	
  4809  06A1  083B               	movf	??___flmul+3,w
  4810  06A2  1103               	clrz
  4811  06A3  1803               	skipnc
  4812  06A4  3E01               	addlw	1
  4813  06A5  1903               	skipnz
  4814  06A6  2EA8               	goto	u2753
  4815  06A7  07C7               	addwf	___flmul@prod+3,f
  4816  06A8                     u2753:	
  4817  06A8  0832               	movf	___flmul@b+2,w
  4818  06A9  00B8               	movwf	??___flmul
  4819  06AA  0838               	movf	??___flmul,w
  4820  06AB  00F0               	movwf	__Umul8_16@multiplicand
  4821  06AC  0836               	movf	___flmul@a+2,w
  4822  06AD  160A  118A  2639  120A  118A  	fcall	__Umul8_16
  4823  06B2  0871               	movf	?__Umul8_16+1,w
  4824  06B3  1283               	bcf	3,5	;RP0=0, select bank0
  4825  06B4  1303               	bcf	3,6	;RP1=0, select bank0
  4826  06B5  00C9               	movwf	___flmul@temp+1
  4827  06B6  0870               	movf	?__Umul8_16,w
  4828  06B7  00C8               	movwf	___flmul@temp
  4829  06B8                     l2364:	
  4830  06B8  0848               	movf	___flmul@temp,w
  4831  06B9  00B8               	movwf	??___flmul
  4832  06BA  0849               	movf	___flmul@temp+1,w
  4833  06BB  00B9               	movwf	??___flmul+1
  4834  06BC  01BA               	clrf	??___flmul+2
  4835  06BD  01BB               	clrf	??___flmul+3
  4836  06BE  3008               	movlw	8
  4837  06BF                     u2765:	
  4838  06BF  1003               	clrc
  4839  06C0  0DB8               	rlf	??___flmul,f
  4840  06C1  0DB9               	rlf	??___flmul+1,f
  4841  06C2  0DBA               	rlf	??___flmul+2,f
  4842  06C3  0DBB               	rlf	??___flmul+3,f
  4843  06C4                     u2760:	
  4844  06C4  3EFF               	addlw	-1
  4845  06C5  1D03               	skipz
  4846  06C6  2EBF               	goto	u2765
  4847  06C7  0838               	movf	??___flmul,w
  4848  06C8  07C4               	addwf	___flmul@prod,f
  4849  06C9  0839               	movf	??___flmul+1,w
  4850  06CA  1103               	clrz
  4851  06CB  1803               	skipnc
  4852  06CC  3E01               	addlw	1
  4853  06CD  1903               	skipnz
  4854  06CE  2ED0               	goto	u2771
  4855  06CF  07C5               	addwf	___flmul@prod+1,f
  4856  06D0                     u2771:	
  4857  06D0  083A               	movf	??___flmul+2,w
  4858  06D1  1103               	clrz
  4859  06D2  1803               	skipnc
  4860  06D3  3E01               	addlw	1
  4861  06D4  1903               	skipnz
  4862  06D5  2ED7               	goto	u2772
  4863  06D6  07C6               	addwf	___flmul@prod+2,f
  4864  06D7                     u2772:	
  4865  06D7  083B               	movf	??___flmul+3,w
  4866  06D8  1103               	clrz
  4867  06D9  1803               	skipnc
  4868  06DA  3E01               	addlw	1
  4869  06DB  1903               	skipnz
  4870  06DC  2EDE               	goto	u2773
  4871  06DD  07C7               	addwf	___flmul@prod+3,f
  4872  06DE                     u2773:	
  4873  06DE                     l2366:	
  4874  06DE  083E               	movf	___flmul@grs,w
  4875  06DF  00B8               	movwf	??___flmul
  4876  06E0  083F               	movf	___flmul@grs+1,w
  4877  06E1  00B9               	movwf	??___flmul+1
  4878  06E2  0840               	movf	___flmul@grs+2,w
  4879  06E3  00BA               	movwf	??___flmul+2
  4880  06E4  0841               	movf	___flmul@grs+3,w
  4881  06E5  00BB               	movwf	??___flmul+3
  4882  06E6  3018               	movlw	24
  4883  06E7                     u2785:	
  4884  06E7  1003               	clrc
  4885  06E8  0CBB               	rrf	??___flmul+3,f
  4886  06E9  0CBA               	rrf	??___flmul+2,f
  4887  06EA  0CB9               	rrf	??___flmul+1,f
  4888  06EB  0CB8               	rrf	??___flmul,f
  4889  06EC                     u2780:	
  4890  06EC  3EFF               	addlw	-1
  4891  06ED  1D03               	skipz
  4892  06EE  2EE7               	goto	u2785
  4893  06EF  0838               	movf	??___flmul,w
  4894  06F0  07C4               	addwf	___flmul@prod,f
  4895  06F1  0839               	movf	??___flmul+1,w
  4896  06F2  1103               	clrz
  4897  06F3  1803               	skipnc
  4898  06F4  3E01               	addlw	1
  4899  06F5  1903               	skipnz
  4900  06F6  2EF8               	goto	u2791
  4901  06F7  07C5               	addwf	___flmul@prod+1,f
  4902  06F8                     u2791:	
  4903  06F8  083A               	movf	??___flmul+2,w
  4904  06F9  1103               	clrz
  4905  06FA  1803               	skipnc
  4906  06FB  3E01               	addlw	1
  4907  06FC  1903               	skipnz
  4908  06FD  2EFF               	goto	u2792
  4909  06FE  07C6               	addwf	___flmul@prod+2,f
  4910  06FF                     u2792:	
  4911  06FF  083B               	movf	??___flmul+3,w
  4912  0700  1103               	clrz
  4913  0701  1803               	skipnc
  4914  0702  3E01               	addlw	1
  4915  0703  1903               	skipnz
  4916  0704  2F06               	goto	u2793
  4917  0705  07C7               	addwf	___flmul@prod+3,f
  4918  0706                     u2793:	
  4919  0706                     l2368:	
  4920  0706  3008               	movlw	8
  4921  0707  00B8               	movwf	??___flmul
  4922  0708                     u2805:	
  4923  0708  1003               	clrc
  4924  0709  0DBE               	rlf	___flmul@grs,f
  4925  070A  0DBF               	rlf	___flmul@grs+1,f
  4926  070B  0DC0               	rlf	___flmul@grs+2,f
  4927  070C  0DC1               	rlf	___flmul@grs+3,f
  4928  070D  0BB8               	decfsz	??___flmul,f
  4929  070E  2F08               	goto	u2805
  4930  070F                     l2370:	
  4931  070F  0843               	movf	___flmul@bexp,w
  4932  0710  0742               	addwf	___flmul@aexp,w
  4933  0711  00B8               	movwf	??___flmul
  4934  0712  01B9               	clrf	??___flmul+1
  4935  0713  0DB9               	rlf	??___flmul+1,f
  4936  0714  0838               	movf	??___flmul,w
  4937  0715  3E82               	addlw	130
  4938  0716  00C8               	movwf	___flmul@temp
  4939  0717  0839               	movf	??___flmul+1,w
  4940  0718  1803               	skipnc
  4941  0719  3E01               	addlw	1
  4942  071A  3EFF               	addlw	255
  4943  071B  00C9               	movwf	___flmul@temp+1
  4944  071C  2F3A               	goto	l2382
  4945  071D                     l2372:	
  4946  071D  3001               	movlw	1
  4947  071E  00B8               	movwf	??___flmul
  4948  071F                     u2815:	
  4949  071F  1003               	clrc
  4950  0720  0DC4               	rlf	___flmul@prod,f
  4951  0721  0DC5               	rlf	___flmul@prod+1,f
  4952  0722  0DC6               	rlf	___flmul@prod+2,f
  4953  0723  0DC7               	rlf	___flmul@prod+3,f
  4954  0724  0BB8               	decfsz	??___flmul,f
  4955  0725  2F1F               	goto	u2815
  4956  0726                     l2374:	
  4957  0726  1FC1               	btfss	___flmul@grs+3,7
  4958  0727  2F29               	goto	u2821
  4959  0728  2F2A               	goto	u2820
  4960  0729                     u2821:	
  4961  0729  2F2B               	goto	l2378
  4962  072A                     u2820:	
  4963  072A                     l2376:	
  4964  072A  1444               	bsf	___flmul@prod,0
  4965  072B                     l2378:	
  4966  072B  3001               	movlw	1
  4967  072C  00B8               	movwf	??___flmul
  4968  072D                     u2835:	
  4969  072D  1003               	clrc
  4970  072E  0DBE               	rlf	___flmul@grs,f
  4971  072F  0DBF               	rlf	___flmul@grs+1,f
  4972  0730  0DC0               	rlf	___flmul@grs+2,f
  4973  0731  0DC1               	rlf	___flmul@grs+3,f
  4974  0732  0BB8               	decfsz	??___flmul,f
  4975  0733  2F2D               	goto	u2835
  4976  0734                     l2380:	
  4977  0734  30FF               	movlw	255
  4978  0735  07C8               	addwf	___flmul@temp,f
  4979  0736  1803               	skipnc
  4980  0737  0AC9               	incf	___flmul@temp+1,f
  4981  0738  30FF               	movlw	255
  4982  0739  07C9               	addwf	___flmul@temp+1,f
  4983  073A                     l2382:	
  4984  073A  1FC6               	btfss	___flmul@prod+2,7
  4985  073B  2F3D               	goto	u2841
  4986  073C  2F3E               	goto	u2840
  4987  073D                     u2841:	
  4988  073D  2F1D               	goto	l2372
  4989  073E                     u2840:	
  4990  073E                     l2384:	
  4991  073E  01C2               	clrf	___flmul@aexp
  4992  073F                     l2386:	
  4993  073F  1FC1               	btfss	___flmul@grs+3,7
  4994  0740  2F42               	goto	u2851
  4995  0741  2F43               	goto	u2850
  4996  0742                     u2851:	
  4997  0742  2F5F               	goto	l2394
  4998  0743                     u2850:	
  4999  0743                     l2388:	
  5000  0743  30FF               	movlw	255
  5001  0744  053E               	andwf	___flmul@grs,w
  5002  0745  00B8               	movwf	??___flmul
  5003  0746  30FF               	movlw	255
  5004  0747  053F               	andwf	___flmul@grs+1,w
  5005  0748  00B9               	movwf	??___flmul+1
  5006  0749  30FF               	movlw	255
  5007  074A  0540               	andwf	___flmul@grs+2,w
  5008  074B  00BA               	movwf	??___flmul+2
  5009  074C  307F               	movlw	127
  5010  074D  0541               	andwf	___flmul@grs+3,w
  5011  074E  00BB               	movwf	??___flmul+3
  5012  074F  083B               	movf	??___flmul+3,w
  5013  0750  043A               	iorwf	??___flmul+2,w
  5014  0751  0439               	iorwf	??___flmul+1,w
  5015  0752  0438               	iorwf	??___flmul,w
  5016  0753  1903               	skipnz
  5017  0754  2F56               	goto	u2861
  5018  0755  2F57               	goto	u2860
  5019  0756                     u2861:	
  5020  0756  2F5A               	goto	l733
  5021  0757                     u2860:	
  5022  0757                     l2390:	
  5023  0757  01C2               	clrf	___flmul@aexp
  5024  0758  0AC2               	incf	___flmul@aexp,f
  5025  0759  2F5F               	goto	l2394
  5026  075A                     l733:	
  5027  075A  1C44               	btfss	___flmul@prod,0
  5028  075B  2F5D               	goto	u2871
  5029  075C  2F5E               	goto	u2870
  5030  075D                     u2871:	
  5031  075D  2F5F               	goto	l2394
  5032  075E                     u2870:	
  5033  075E  2F57               	goto	l2390
  5034  075F                     l2394:	
  5035  075F  0842               	movf	___flmul@aexp,w
  5036  0760  1903               	btfsc	3,2
  5037  0761  2F63               	goto	u2881
  5038  0762  2F64               	goto	u2880
  5039  0763                     u2881:	
  5040  0763  2F95               	goto	l2404
  5041  0764                     u2880:	
  5042  0764                     l2396:	
  5043  0764  3001               	movlw	1
  5044  0765  07C4               	addwf	___flmul@prod,f
  5045  0766  3000               	movlw	0
  5046  0767  1803               	skipnc
  5047  0768  3001               	movlw	1
  5048  0769  07C5               	addwf	___flmul@prod+1,f
  5049  076A  3000               	movlw	0
  5050  076B  1803               	skipnc
  5051  076C  3001               	movlw	1
  5052  076D  07C6               	addwf	___flmul@prod+2,f
  5053  076E  3000               	movlw	0
  5054  076F  1803               	skipnc
  5055  0770  3001               	movlw	1
  5056  0771  07C7               	addwf	___flmul@prod+3,f
  5057  0772                     l2398:	
  5058  0772  1C47               	btfss	___flmul@prod+3,0
  5059  0773  2F75               	goto	u2891
  5060  0774  2F76               	goto	u2890
  5061  0775                     u2891:	
  5062  0775  2F95               	goto	l2404
  5063  0776                     u2890:	
  5064  0776                     l2400:	
  5065  0776  0844               	movf	___flmul@prod,w
  5066  0777  00B8               	movwf	??___flmul
  5067  0778  0845               	movf	___flmul@prod+1,w
  5068  0779  00B9               	movwf	??___flmul+1
  5069  077A  0846               	movf	___flmul@prod+2,w
  5070  077B  00BA               	movwf	??___flmul+2
  5071  077C  0847               	movf	___flmul@prod+3,w
  5072  077D  00BB               	movwf	??___flmul+3
  5073  077E  3001               	movlw	1
  5074  077F  00BC               	movwf	??___flmul+4
  5075  0780                     u2905:	
  5076  0780  0D3B               	rlf	??___flmul+3,w
  5077  0781  0CBB               	rrf	??___flmul+3,f
  5078  0782  0CBA               	rrf	??___flmul+2,f
  5079  0783  0CB9               	rrf	??___flmul+1,f
  5080  0784  0CB8               	rrf	??___flmul,f
  5081  0785                     u2900:	
  5082  0785  0BBC               	decfsz	??___flmul+4,f
  5083  0786  2F80               	goto	u2905
  5084  0787  083B               	movf	??___flmul+3,w
  5085  0788  00C7               	movwf	___flmul@prod+3
  5086  0789  083A               	movf	??___flmul+2,w
  5087  078A  00C6               	movwf	___flmul@prod+2
  5088  078B  0839               	movf	??___flmul+1,w
  5089  078C  00C5               	movwf	___flmul@prod+1
  5090  078D  0838               	movf	??___flmul,w
  5091  078E  00C4               	movwf	___flmul@prod
  5092  078F                     l2402:	
  5093  078F  3001               	movlw	1
  5094  0790  07C8               	addwf	___flmul@temp,f
  5095  0791  1803               	skipnc
  5096  0792  0AC9               	incf	___flmul@temp+1,f
  5097  0793  3000               	movlw	0
  5098  0794  07C9               	addwf	___flmul@temp+1,f
  5099  0795                     l2404:	
  5100  0795  0849               	movf	___flmul@temp+1,w
  5101  0796  3A80               	xorlw	128
  5102  0797  00FF               	movwf	btemp+1
  5103  0798  3080               	movlw	128
  5104  0799  027F               	subwf	btemp+1,w
  5105  079A  1D03               	skipz
  5106  079B  2F9E               	goto	u2915
  5107  079C  30FF               	movlw	255
  5108  079D  0248               	subwf	___flmul@temp,w
  5109  079E                     u2915:	
  5110  079E  1C03               	skipc
  5111  079F  2FA1               	goto	u2911
  5112  07A0  2FA2               	goto	u2910
  5113  07A1                     u2911:	
  5114  07A1  2FAD               	goto	l2408
  5115  07A2                     u2910:	
  5116  07A2                     l2406:	
  5117  07A2  307F               	movlw	127
  5118  07A3  1283               	bcf	3,5	;RP0=0, select bank0
  5119  07A4  1303               	bcf	3,6	;RP1=0, select bank0
  5120  07A5  00C7               	movwf	___flmul@prod+3
  5121  07A6  3080               	movlw	128
  5122  07A7  00C6               	movwf	___flmul@prod+2
  5123  07A8  3000               	movlw	0
  5124  07A9  00C5               	movwf	___flmul@prod+1
  5125  07AA  3000               	movlw	0
  5126  07AB  00C4               	movwf	___flmul@prod
  5127  07AC  2FE2               	goto	l739
  5128  07AD                     l2408:	
  5129  07AD  1283               	bcf	3,5	;RP0=0, select bank0
  5130  07AE  1303               	bcf	3,6	;RP1=0, select bank0
  5131  07AF  0849               	movf	___flmul@temp+1,w
  5132  07B0  3A80               	xorlw	128
  5133  07B1  00FF               	movwf	btemp+1
  5134  07B2  3080               	movlw	128
  5135  07B3  027F               	subwf	btemp+1,w
  5136  07B4  1D03               	skipz
  5137  07B5  2FB8               	goto	u2925
  5138  07B6  3001               	movlw	1
  5139  07B7  0248               	subwf	___flmul@temp,w
  5140  07B8                     u2925:	
  5141  07B8  1803               	skipnc
  5142  07B9  2FBB               	goto	u2921
  5143  07BA  2FBC               	goto	u2920
  5144  07BB                     u2921:	
  5145  07BB  2FC8               	goto	l2414
  5146  07BC                     u2920:	
  5147  07BC                     l2410:	
  5148  07BC  3000               	movlw	0
  5149  07BD  1283               	bcf	3,5	;RP0=0, select bank0
  5150  07BE  1303               	bcf	3,6	;RP1=0, select bank0
  5151  07BF  00C7               	movwf	___flmul@prod+3
  5152  07C0  3000               	movlw	0
  5153  07C1  00C6               	movwf	___flmul@prod+2
  5154  07C2  3000               	movlw	0
  5155  07C3  00C5               	movwf	___flmul@prod+1
  5156  07C4  3000               	movlw	0
  5157  07C5  00C4               	movwf	___flmul@prod
  5158  07C6                     l2412:	
  5159  07C6  01BD               	clrf	___flmul@sign
  5160  07C7  2FE2               	goto	l739
  5161  07C8                     l2414:	
  5162  07C8  1283               	bcf	3,5	;RP0=0, select bank0
  5163  07C9  1303               	bcf	3,6	;RP1=0, select bank0
  5164  07CA  0848               	movf	___flmul@temp,w
  5165  07CB  00B8               	movwf	??___flmul
  5166  07CC  0838               	movf	??___flmul,w
  5167  07CD  00C3               	movwf	___flmul@bexp
  5168  07CE  30FF               	movlw	255
  5169  07CF  05C4               	andwf	___flmul@prod,f
  5170  07D0  30FF               	movlw	255
  5171  07D1  05C5               	andwf	___flmul@prod+1,f
  5172  07D2  307F               	movlw	127
  5173  07D3  05C6               	andwf	___flmul@prod+2,f
  5174  07D4  3000               	movlw	0
  5175  07D5  05C7               	andwf	___flmul@prod+3,f
  5176  07D6                     l2416:	
  5177  07D6  1C43               	btfss	___flmul@bexp,0
  5178  07D7  2FD9               	goto	u2931
  5179  07D8  2FDA               	goto	u2930
  5180  07D9                     u2931:	
  5181  07D9  2FDB               	goto	l2420
  5182  07DA                     u2930:	
  5183  07DA                     l2418:	
  5184  07DA  17C6               	bsf	___flmul@prod+2,7
  5185  07DB                     l2420:	
  5186  07DB  0843               	movf	___flmul@bexp,w
  5187  07DC  00B8               	movwf	??___flmul
  5188  07DD  1003               	clrc
  5189  07DE  0C38               	rrf	??___flmul,w
  5190  07DF  00B9               	movwf	??___flmul+1
  5191  07E0  0839               	movf	??___flmul+1,w
  5192  07E1  00C7               	movwf	___flmul@prod+3
  5193  07E2                     l739:	
  5194  07E2  083D               	movf	___flmul@sign,w
  5195  07E3  00B8               	movwf	??___flmul
  5196  07E4  0838               	movf	??___flmul,w
  5197  07E5  04C7               	iorwf	___flmul@prod+3,f
  5198  07E6                     l2422:	
  5199  07E6  0847               	movf	___flmul@prod+3,w
  5200  07E7  00B3               	movwf	?___flmul+3
  5201  07E8  0846               	movf	___flmul@prod+2,w
  5202  07E9  00B2               	movwf	?___flmul+2
  5203  07EA  0845               	movf	___flmul@prod+1,w
  5204  07EB  00B1               	movwf	?___flmul+1
  5205  07EC  0844               	movf	___flmul@prod,w
  5206  07ED  00B0               	movwf	?___flmul
  5207  07EE                     l727:	
  5208  07EE  0008               	return
  5209  07EF                     __end_of___flmul:	
  5210                           
  5211                           	psect	text11
  5212  1639                     __ptext11:	
  5213 ;; *************** function __Umul8_16 *****************
  5214 ;; Defined at:
  5215 ;;		line 4 in file "C:\Program Files (x86)\Microchip\xc8\v2.10\pic\sources\c90\common\Umul8_16.c"
  5216 ;; Parameters:    Size  Location     Type
  5217 ;;  multiplier      1    wreg     unsigned char 
  5218 ;;  multiplicand    1    0[COMMON] unsigned char 
  5219 ;; Auto vars:     Size  Location     Type
  5220 ;;  multiplier      1    8[COMMON] unsigned char 
  5221 ;;  word_mpld       2    6[COMMON] unsigned int 
  5222 ;;  product         2    4[COMMON] unsigned int 
  5223 ;; Return value:  Size  Location     Type
  5224 ;;                  2    0[COMMON] unsigned int 
  5225 ;; Registers used:
  5226 ;;		wreg, status,2, status,0
  5227 ;; Tracked objects:
  5228 ;;		On entry : 0/0
  5229 ;;		On exit  : 0/0
  5230 ;;		Unchanged: 0/0
  5231 ;; Data sizes:     COMMON   BANK0   BANK1   BANK3   BANK2
  5232 ;;      Params:         2       0       0       0       0
  5233 ;;      Locals:         5       0       0       0       0
  5234 ;;      Temps:          2       0       0       0       0
  5235 ;;      Totals:         9       0       0       0       0
  5236 ;;Total ram usage:        9 bytes
  5237 ;; Hardware stack levels used:    1
  5238 ;; This function calls:
  5239 ;;		Nothing
  5240 ;; This function is called by:
  5241 ;;		___flmul
  5242 ;; This function uses a non-reentrant model
  5243 ;;
  5244                           
  5245                           
  5246                           ;psect for function __Umul8_16
  5247  1639                     __Umul8_16:	
  5248                           
  5249                           ;incstack = 0
  5250                           ; Regs used in __Umul8_16: [wreg+status,2+status,0]
  5251                           ;__Umul8_16@multiplier stored from wreg
  5252  1639  00F8               	movwf	__Umul8_16@multiplier
  5253  163A                     l2120:	
  5254  163A  01F4               	clrf	__Umul8_16@product
  5255  163B  01F5               	clrf	__Umul8_16@product+1
  5256  163C                     l2122:	
  5257  163C  0870               	movf	__Umul8_16@multiplicand,w
  5258  163D  00F2               	movwf	??__Umul8_16
  5259  163E  01F3               	clrf	??__Umul8_16+1
  5260  163F  0872               	movf	??__Umul8_16,w
  5261  1640  00F6               	movwf	__Umul8_16@word_mpld
  5262  1641  0873               	movf	??__Umul8_16+1,w
  5263  1642  00F7               	movwf	__Umul8_16@word_mpld+1
  5264  1643                     l2124:	
  5265  1643  1C78               	btfss	__Umul8_16@multiplier,0
  5266  1644  2E46               	goto	u2321
  5267  1645  2E47               	goto	u2320
  5268  1646                     u2321:	
  5269  1646  2E4D               	goto	l784
  5270  1647                     u2320:	
  5271  1647                     l2126:	
  5272  1647  0876               	movf	__Umul8_16@word_mpld,w
  5273  1648  07F4               	addwf	__Umul8_16@product,f
  5274  1649  1803               	skipnc
  5275  164A  0AF5               	incf	__Umul8_16@product+1,f
  5276  164B  0877               	movf	__Umul8_16@word_mpld+1,w
  5277  164C  07F5               	addwf	__Umul8_16@product+1,f
  5278  164D                     l784:	
  5279  164D  3001               	movlw	1
  5280  164E                     u2335:	
  5281  164E  1003               	clrc
  5282  164F  0DF6               	rlf	__Umul8_16@word_mpld,f
  5283  1650  0DF7               	rlf	__Umul8_16@word_mpld+1,f
  5284  1651  3EFF               	addlw	-1
  5285  1652  1D03               	skipz
  5286  1653  2E4E               	goto	u2335
  5287  1654  1003               	clrc
  5288  1655  0CF8               	rrf	__Umul8_16@multiplier,f
  5289  1656                     l2128:	
  5290  1656  0878               	movf	__Umul8_16@multiplier,w
  5291  1657  1D03               	btfss	3,2
  5292  1658  2E5A               	goto	u2341
  5293  1659  2E5B               	goto	u2340
  5294  165A                     u2341:	
  5295  165A  2E43               	goto	l2124
  5296  165B                     u2340:	
  5297  165B                     l2130:	
  5298  165B  0875               	movf	__Umul8_16@product+1,w
  5299  165C  00F1               	movwf	?__Umul8_16+1
  5300  165D  0874               	movf	__Umul8_16@product,w
  5301  165E  00F0               	movwf	?__Umul8_16
  5302  165F                     l786:	
  5303  165F  0008               	return
  5304  1660                     __end_of__Umul8_16:	
  5305                           
  5306                           	psect	text12
  5307  0019                     __ptext12:	
  5308 ;; *************** function ___fldiv *****************
  5309 ;; Defined at:
  5310 ;;		line 8 in file "C:\Program Files (x86)\Microchip\xc8\v2.10\pic\sources\c90\common\sprcdiv.c"
  5311 ;; Parameters:    Size  Location     Type
  5312 ;;  a               4    0[BANK0 ] unsigned int 
  5313 ;;  b               4    4[BANK0 ] unsigned int 
  5314 ;; Auto vars:     Size  Location     Type
  5315 ;;  grs             4   20[BANK0 ] unsigned long 
  5316 ;;  rem             4   13[BANK0 ] unsigned long 
  5317 ;;  new_exp         2   18[BANK0 ] int 
  5318 ;;  aexp            1   25[BANK0 ] unsigned char 
  5319 ;;  bexp            1   24[BANK0 ] unsigned char 
  5320 ;;  sign            1   17[BANK0 ] unsigned char 
  5321 ;; Return value:  Size  Location     Type
  5322 ;;                  4    0[BANK0 ] unsigned char 
  5323 ;; Registers used:
  5324 ;;		wreg, status,2, status,0, btemp+1
  5325 ;; Tracked objects:
  5326 ;;		On entry : 0/0
  5327 ;;		On exit  : 0/0
  5328 ;;		Unchanged: 0/0
  5329 ;; Data sizes:     COMMON   BANK0   BANK1   BANK3   BANK2
  5330 ;;      Params:         0       8       0       0       0
  5331 ;;      Locals:         0      13       0       0       0
  5332 ;;      Temps:          0       5       0       0       0
  5333 ;;      Totals:         0      26       0       0       0
  5334 ;;Total ram usage:       26 bytes
  5335 ;; Hardware stack levels used:    1
  5336 ;; This function calls:
  5337 ;;		Nothing
  5338 ;; This function is called by:
  5339 ;;		_main
  5340 ;; This function uses a non-reentrant model
  5341 ;;
  5342                           
  5343                           
  5344                           ;psect for function ___fldiv
  5345  0019                     ___fldiv:	
  5346  0019                     l2674:	
  5347                           ;incstack = 0
  5348                           ; Regs used in ___fldiv: [wreg+status,2+status,0+btemp+1]
  5349                           
  5350  0019  1283               	bcf	3,5	;RP0=0, select bank0
  5351  001A  1303               	bcf	3,6	;RP1=0, select bank0
  5352  001B  0827               	movf	___fldiv@b+3,w
  5353  001C  3980               	andlw	128
  5354  001D  00A8               	movwf	??___fldiv
  5355  001E  0828               	movf	??___fldiv,w
  5356  001F  00B1               	movwf	___fldiv@sign
  5357  0020                     l2676:	
  5358  0020  0827               	movf	___fldiv@b+3,w
  5359  0021  00A8               	movwf	??___fldiv
  5360  0022  0728               	addwf	??___fldiv,w
  5361  0023  00A9               	movwf	??___fldiv+1
  5362  0024  0829               	movf	??___fldiv+1,w
  5363  0025  00B8               	movwf	___fldiv@bexp
  5364  0026                     l2678:	
  5365  0026  1FA6               	btfss	___fldiv@b+2,7
  5366  0027  2829               	goto	u3221
  5367  0028  282A               	goto	u3220
  5368  0029                     u3221:	
  5369  0029  282B               	goto	l2682
  5370  002A                     u3220:	
  5371  002A                     l2680:	
  5372  002A  1438               	bsf	___fldiv@bexp,0
  5373  002B                     l2682:	
  5374  002B  0838               	movf	___fldiv@bexp,w
  5375  002C  1903               	btfsc	3,2
  5376  002D  282F               	goto	u3231
  5377  002E  2830               	goto	u3230
  5378  002F                     u3231:	
  5379  002F  2840               	goto	l2692
  5380  0030                     u3230:	
  5381  0030                     l2684:	
  5382  0030  0A38               	incf	___fldiv@bexp,w
  5383  0031  1D03               	btfss	3,2
  5384  0032  2834               	goto	u3241
  5385  0033  2835               	goto	u3240
  5386  0034                     u3241:	
  5387  0034  283D               	goto	l2688
  5388  0035                     u3240:	
  5389  0035                     l2686:	
  5390  0035  3000               	movlw	0
  5391  0036  00A7               	movwf	___fldiv@b+3
  5392  0037  3000               	movlw	0
  5393  0038  00A6               	movwf	___fldiv@b+2
  5394  0039  3000               	movlw	0
  5395  003A  00A5               	movwf	___fldiv@b+1
  5396  003B  3000               	movlw	0
  5397  003C  00A4               	movwf	___fldiv@b
  5398  003D                     l2688:	
  5399  003D  17A6               	bsf	___fldiv@b+2,7
  5400  003E                     l2690:	
  5401  003E  01A7               	clrf	___fldiv@b+3
  5402  003F  2848               	goto	l2694
  5403  0040                     l2692:	
  5404  0040  3000               	movlw	0
  5405  0041  00A7               	movwf	___fldiv@b+3
  5406  0042  3000               	movlw	0
  5407  0043  00A6               	movwf	___fldiv@b+2
  5408  0044  3000               	movlw	0
  5409  0045  00A5               	movwf	___fldiv@b+1
  5410  0046  3000               	movlw	0
  5411  0047  00A4               	movwf	___fldiv@b
  5412  0048                     l2694:	
  5413  0048  0823               	movf	___fldiv@a+3,w
  5414  0049  3980               	andlw	128
  5415  004A  00A8               	movwf	??___fldiv
  5416  004B  0828               	movf	??___fldiv,w
  5417  004C  06B1               	xorwf	___fldiv@sign,f
  5418  004D                     l2696:	
  5419  004D  0823               	movf	___fldiv@a+3,w
  5420  004E  00A8               	movwf	??___fldiv
  5421  004F  0728               	addwf	??___fldiv,w
  5422  0050  00A9               	movwf	??___fldiv+1
  5423  0051  0829               	movf	??___fldiv+1,w
  5424  0052  00B9               	movwf	___fldiv@aexp
  5425  0053                     l2698:	
  5426  0053  1FA2               	btfss	___fldiv@a+2,7
  5427  0054  2856               	goto	u3251
  5428  0055  2857               	goto	u3250
  5429  0056                     u3251:	
  5430  0056  2858               	goto	l2702
  5431  0057                     u3250:	
  5432  0057                     l2700:	
  5433  0057  1439               	bsf	___fldiv@aexp,0
  5434  0058                     l2702:	
  5435  0058  0839               	movf	___fldiv@aexp,w
  5436  0059  1903               	btfsc	3,2
  5437  005A  285C               	goto	u3261
  5438  005B  285D               	goto	u3260
  5439  005C                     u3261:	
  5440  005C  286D               	goto	l2712
  5441  005D                     u3260:	
  5442  005D                     l2704:	
  5443  005D  0A39               	incf	___fldiv@aexp,w
  5444  005E  1D03               	btfss	3,2
  5445  005F  2861               	goto	u3271
  5446  0060  2862               	goto	u3270
  5447  0061                     u3271:	
  5448  0061  286A               	goto	l2708
  5449  0062                     u3270:	
  5450  0062                     l2706:	
  5451  0062  3000               	movlw	0
  5452  0063  00A3               	movwf	___fldiv@a+3
  5453  0064  3000               	movlw	0
  5454  0065  00A2               	movwf	___fldiv@a+2
  5455  0066  3000               	movlw	0
  5456  0067  00A1               	movwf	___fldiv@a+1
  5457  0068  3000               	movlw	0
  5458  0069  00A0               	movwf	___fldiv@a
  5459  006A                     l2708:	
  5460  006A  17A2               	bsf	___fldiv@a+2,7
  5461  006B                     l2710:	
  5462  006B  01A3               	clrf	___fldiv@a+3
  5463  006C  2875               	goto	l687
  5464  006D                     l2712:	
  5465  006D  3000               	movlw	0
  5466  006E  00A3               	movwf	___fldiv@a+3
  5467  006F  3000               	movlw	0
  5468  0070  00A2               	movwf	___fldiv@a+2
  5469  0071  3000               	movlw	0
  5470  0072  00A1               	movwf	___fldiv@a+1
  5471  0073  3000               	movlw	0
  5472  0074  00A0               	movwf	___fldiv@a
  5473  0075                     l687:	
  5474  0075  0823               	movf	___fldiv@a+3,w
  5475  0076  0422               	iorwf	___fldiv@a+2,w
  5476  0077  0421               	iorwf	___fldiv@a+1,w
  5477  0078  0420               	iorwf	___fldiv@a,w
  5478  0079  1D03               	skipz
  5479  007A  287C               	goto	u3281
  5480  007B  287D               	goto	u3280
  5481  007C                     u3281:	
  5482  007C  2896               	goto	l2722
  5483  007D                     u3280:	
  5484  007D                     l2714:	
  5485  007D  3000               	movlw	0
  5486  007E  00A7               	movwf	___fldiv@b+3
  5487  007F  3000               	movlw	0
  5488  0080  00A6               	movwf	___fldiv@b+2
  5489  0081  3000               	movlw	0
  5490  0082  00A5               	movwf	___fldiv@b+1
  5491  0083  3000               	movlw	0
  5492  0084  00A4               	movwf	___fldiv@b
  5493  0085  3080               	movlw	128
  5494  0086  04A6               	iorwf	___fldiv@b+2,f
  5495  0087  307F               	movlw	127
  5496  0088  04A7               	iorwf	___fldiv@b+3,f
  5497  0089                     l2716:	
  5498  0089  0831               	movf	___fldiv@sign,w
  5499  008A  00A8               	movwf	??___fldiv
  5500  008B  0828               	movf	??___fldiv,w
  5501  008C  04A7               	iorwf	___fldiv@b+3,f
  5502  008D                     l2718:	
  5503  008D  0827               	movf	___fldiv@b+3,w
  5504  008E  00A3               	movwf	?___fldiv+3
  5505  008F  0826               	movf	___fldiv@b+2,w
  5506  0090  00A2               	movwf	?___fldiv+2
  5507  0091  0825               	movf	___fldiv@b+1,w
  5508  0092  00A1               	movwf	?___fldiv+1
  5509  0093  0824               	movf	___fldiv@b,w
  5510  0094  00A0               	movwf	?___fldiv
  5511  0095  29F5               	goto	l689
  5512  0096                     l2722:	
  5513  0096  0838               	movf	___fldiv@bexp,w
  5514  0097  1D03               	btfss	3,2
  5515  0098  289A               	goto	u3291
  5516  0099  289B               	goto	u3290
  5517  009A                     u3291:	
  5518  009A  28A4               	goto	l2728
  5519  009B                     u3290:	
  5520  009B                     l2724:	
  5521  009B  3000               	movlw	0
  5522  009C  00A3               	movwf	?___fldiv+3
  5523  009D  3000               	movlw	0
  5524  009E  00A2               	movwf	?___fldiv+2
  5525  009F  3000               	movlw	0
  5526  00A0  00A1               	movwf	?___fldiv+1
  5527  00A1  3000               	movlw	0
  5528  00A2  00A0               	movwf	?___fldiv
  5529  00A3  29F5               	goto	l689
  5530  00A4                     l2728:	
  5531  00A4  0838               	movf	___fldiv@bexp,w
  5532  00A5  00A8               	movwf	??___fldiv
  5533  00A6  01A9               	clrf	??___fldiv+1
  5534  00A7  0829               	movf	??___fldiv+1,w
  5535  00A8  00AB               	movwf	??___fldiv+3
  5536  00A9  0839               	movf	___fldiv@aexp,w
  5537  00AA  0228               	subwf	??___fldiv,w
  5538  00AB  00AA               	movwf	??___fldiv+2
  5539  00AC  1C03               	skipc
  5540  00AD  03AB               	decf	??___fldiv+3,f
  5541  00AE  082A               	movf	??___fldiv+2,w
  5542  00AF  3E7F               	addlw	127
  5543  00B0  00B2               	movwf	___fldiv@new_exp
  5544  00B1  082B               	movf	??___fldiv+3,w
  5545  00B2  1803               	skipnc
  5546  00B3  3E01               	addlw	1
  5547  00B4  3E00               	addlw	0
  5548  00B5  00B3               	movwf	___fldiv@new_exp+1
  5549  00B6                     l2730:	
  5550  00B6  0827               	movf	___fldiv@b+3,w
  5551  00B7  00B0               	movwf	___fldiv@rem+3
  5552  00B8  0826               	movf	___fldiv@b+2,w
  5553  00B9  00AF               	movwf	___fldiv@rem+2
  5554  00BA  0825               	movf	___fldiv@b+1,w
  5555  00BB  00AE               	movwf	___fldiv@rem+1
  5556  00BC  0824               	movf	___fldiv@b,w
  5557  00BD  00AD               	movwf	___fldiv@rem
  5558  00BE                     l2732:	
  5559  00BE  3000               	movlw	0
  5560  00BF  00A7               	movwf	___fldiv@b+3
  5561  00C0  3000               	movlw	0
  5562  00C1  00A6               	movwf	___fldiv@b+2
  5563  00C2  3000               	movlw	0
  5564  00C3  00A5               	movwf	___fldiv@b+1
  5565  00C4  3000               	movlw	0
  5566  00C5  00A4               	movwf	___fldiv@b
  5567  00C6                     l2734:	
  5568  00C6  3000               	movlw	0
  5569  00C7  00B7               	movwf	___fldiv@grs+3
  5570  00C8  3000               	movlw	0
  5571  00C9  00B6               	movwf	___fldiv@grs+2
  5572  00CA  3000               	movlw	0
  5573  00CB  00B5               	movwf	___fldiv@grs+1
  5574  00CC  3000               	movlw	0
  5575  00CD  00B4               	movwf	___fldiv@grs
  5576  00CE                     l2736:	
  5577  00CE  01B9               	clrf	___fldiv@aexp
  5578  00CF  291A               	goto	l2756
  5579  00D0                     l2738:	
  5580  00D0  0839               	movf	___fldiv@aexp,w
  5581  00D1  1903               	btfsc	3,2
  5582  00D2  28D4               	goto	u3301
  5583  00D3  28D5               	goto	u3300
  5584  00D4                     u3301:	
  5585  00D4  28F5               	goto	l2748
  5586  00D5                     u3300:	
  5587  00D5                     l2740:	
  5588  00D5  3001               	movlw	1
  5589  00D6  00A8               	movwf	??___fldiv
  5590  00D7                     u3315:	
  5591  00D7  1003               	clrc
  5592  00D8  0DAD               	rlf	___fldiv@rem,f
  5593  00D9  0DAE               	rlf	___fldiv@rem+1,f
  5594  00DA  0DAF               	rlf	___fldiv@rem+2,f
  5595  00DB  0DB0               	rlf	___fldiv@rem+3,f
  5596  00DC  0BA8               	decfsz	??___fldiv,f
  5597  00DD  28D7               	goto	u3315
  5598  00DE  3001               	movlw	1
  5599  00DF  00A8               	movwf	??___fldiv
  5600  00E0                     u3325:	
  5601  00E0  1003               	clrc
  5602  00E1  0DA4               	rlf	___fldiv@b,f
  5603  00E2  0DA5               	rlf	___fldiv@b+1,f
  5604  00E3  0DA6               	rlf	___fldiv@b+2,f
  5605  00E4  0DA7               	rlf	___fldiv@b+3,f
  5606  00E5  0BA8               	decfsz	??___fldiv,f
  5607  00E6  28E0               	goto	u3325
  5608  00E7                     l2742:	
  5609  00E7  1FB7               	btfss	___fldiv@grs+3,7
  5610  00E8  28EA               	goto	u3331
  5611  00E9  28EB               	goto	u3330
  5612  00EA                     u3331:	
  5613  00EA  28EC               	goto	l2746
  5614  00EB                     u3330:	
  5615  00EB                     l2744:	
  5616  00EB  1424               	bsf	___fldiv@b,0
  5617  00EC                     l2746:	
  5618  00EC  3001               	movlw	1
  5619  00ED  00A8               	movwf	??___fldiv
  5620  00EE                     u3345:	
  5621  00EE  1003               	clrc
  5622  00EF  0DB4               	rlf	___fldiv@grs,f
  5623  00F0  0DB5               	rlf	___fldiv@grs+1,f
  5624  00F1  0DB6               	rlf	___fldiv@grs+2,f
  5625  00F2  0DB7               	rlf	___fldiv@grs+3,f
  5626  00F3  0BA8               	decfsz	??___fldiv,f
  5627  00F4  28EE               	goto	u3345
  5628  00F5                     l2748:	
  5629  00F5  0823               	movf	___fldiv@a+3,w
  5630  00F6  0230               	subwf	___fldiv@rem+3,w
  5631  00F7  1D03               	skipz
  5632  00F8  2903               	goto	u3355
  5633  00F9  0822               	movf	___fldiv@a+2,w
  5634  00FA  022F               	subwf	___fldiv@rem+2,w
  5635  00FB  1D03               	skipz
  5636  00FC  2903               	goto	u3355
  5637  00FD  0821               	movf	___fldiv@a+1,w
  5638  00FE  022E               	subwf	___fldiv@rem+1,w
  5639  00FF  1D03               	skipz
  5640  0100  2903               	goto	u3355
  5641  0101  0820               	movf	___fldiv@a,w
  5642  0102  022D               	subwf	___fldiv@rem,w
  5643  0103                     u3355:	
  5644  0103  1C03               	skipc
  5645  0104  2906               	goto	u3351
  5646  0105  2907               	goto	u3350
  5647  0106                     u3351:	
  5648  0106  2916               	goto	l2754
  5649  0107                     u3350:	
  5650  0107                     l2750:	
  5651  0107  1737               	bsf	___fldiv@grs+3,6
  5652  0108                     l2752:	
  5653  0108  0820               	movf	___fldiv@a,w
  5654  0109  02AD               	subwf	___fldiv@rem,f
  5655  010A  0821               	movf	___fldiv@a+1,w
  5656  010B  1C03               	skipc
  5657  010C  0F21               	incfsz	___fldiv@a+1,w
  5658  010D  02AE               	subwf	___fldiv@rem+1,f
  5659  010E  0822               	movf	___fldiv@a+2,w
  5660  010F  1C03               	skipc
  5661  0110  0F22               	incfsz	___fldiv@a+2,w
  5662  0111  02AF               	subwf	___fldiv@rem+2,f
  5663  0112  0823               	movf	___fldiv@a+3,w
  5664  0113  1C03               	skipc
  5665  0114  0F23               	incfsz	___fldiv@a+3,w
  5666  0115  02B0               	subwf	___fldiv@rem+3,f
  5667  0116                     l2754:	
  5668  0116  3001               	movlw	1
  5669  0117  00A8               	movwf	??___fldiv
  5670  0118  0828               	movf	??___fldiv,w
  5671  0119  07B9               	addwf	___fldiv@aexp,f
  5672  011A                     l2756:	
  5673  011A  301A               	movlw	26
  5674  011B  0239               	subwf	___fldiv@aexp,w
  5675  011C  1C03               	skipc
  5676  011D  291F               	goto	u3361
  5677  011E  2920               	goto	u3360
  5678  011F                     u3361:	
  5679  011F  28D0               	goto	l2738
  5680  0120                     u3360:	
  5681  0120                     l2758:	
  5682  0120  0830               	movf	___fldiv@rem+3,w
  5683  0121  042F               	iorwf	___fldiv@rem+2,w
  5684  0122  042E               	iorwf	___fldiv@rem+1,w
  5685  0123  042D               	iorwf	___fldiv@rem,w
  5686  0124  1903               	skipnz
  5687  0125  2927               	goto	u3371
  5688  0126  2928               	goto	u3370
  5689  0127                     u3371:	
  5690  0127  2947               	goto	l2772
  5691  0128                     u3370:	
  5692  0128                     l2760:	
  5693  0128  1434               	bsf	___fldiv@grs,0
  5694  0129  2947               	goto	l2772
  5695  012A                     l2762:	
  5696  012A  3001               	movlw	1
  5697  012B  00A8               	movwf	??___fldiv
  5698  012C                     u3385:	
  5699  012C  1003               	clrc
  5700  012D  0DA4               	rlf	___fldiv@b,f
  5701  012E  0DA5               	rlf	___fldiv@b+1,f
  5702  012F  0DA6               	rlf	___fldiv@b+2,f
  5703  0130  0DA7               	rlf	___fldiv@b+3,f
  5704  0131  0BA8               	decfsz	??___fldiv,f
  5705  0132  292C               	goto	u3385
  5706  0133                     l2764:	
  5707  0133  1FB7               	btfss	___fldiv@grs+3,7
  5708  0134  2936               	goto	u3391
  5709  0135  2937               	goto	u3390
  5710  0136                     u3391:	
  5711  0136  2938               	goto	l2768
  5712  0137                     u3390:	
  5713  0137                     l2766:	
  5714  0137  1424               	bsf	___fldiv@b,0
  5715  0138                     l2768:	
  5716  0138  3001               	movlw	1
  5717  0139  00A8               	movwf	??___fldiv
  5718  013A                     u3405:	
  5719  013A  1003               	clrc
  5720  013B  0DB4               	rlf	___fldiv@grs,f
  5721  013C  0DB5               	rlf	___fldiv@grs+1,f
  5722  013D  0DB6               	rlf	___fldiv@grs+2,f
  5723  013E  0DB7               	rlf	___fldiv@grs+3,f
  5724  013F  0BA8               	decfsz	??___fldiv,f
  5725  0140  293A               	goto	u3405
  5726  0141                     l2770:	
  5727  0141  30FF               	movlw	255
  5728  0142  07B2               	addwf	___fldiv@new_exp,f
  5729  0143  1803               	skipnc
  5730  0144  0AB3               	incf	___fldiv@new_exp+1,f
  5731  0145  30FF               	movlw	255
  5732  0146  07B3               	addwf	___fldiv@new_exp+1,f
  5733  0147                     l2772:	
  5734  0147  1FA6               	btfss	___fldiv@b+2,7
  5735  0148  294A               	goto	u3411
  5736  0149  294B               	goto	u3410
  5737  014A                     u3411:	
  5738  014A  292A               	goto	l2762
  5739  014B                     u3410:	
  5740  014B                     l2774:	
  5741  014B  01B9               	clrf	___fldiv@aexp
  5742  014C                     l2776:	
  5743  014C  1FB7               	btfss	___fldiv@grs+3,7
  5744  014D  294F               	goto	u3421
  5745  014E  2950               	goto	u3420
  5746  014F                     u3421:	
  5747  014F  296C               	goto	l2784
  5748  0150                     u3420:	
  5749  0150                     l2778:	
  5750  0150  30FF               	movlw	255
  5751  0151  0534               	andwf	___fldiv@grs,w
  5752  0152  00A8               	movwf	??___fldiv
  5753  0153  30FF               	movlw	255
  5754  0154  0535               	andwf	___fldiv@grs+1,w
  5755  0155  00A9               	movwf	??___fldiv+1
  5756  0156  30FF               	movlw	255
  5757  0157  0536               	andwf	___fldiv@grs+2,w
  5758  0158  00AA               	movwf	??___fldiv+2
  5759  0159  307F               	movlw	127
  5760  015A  0537               	andwf	___fldiv@grs+3,w
  5761  015B  00AB               	movwf	??___fldiv+3
  5762  015C  082B               	movf	??___fldiv+3,w
  5763  015D  042A               	iorwf	??___fldiv+2,w
  5764  015E  0429               	iorwf	??___fldiv+1,w
  5765  015F  0428               	iorwf	??___fldiv,w
  5766  0160  1903               	skipnz
  5767  0161  2963               	goto	u3431
  5768  0162  2964               	goto	u3430
  5769  0163                     u3431:	
  5770  0163  2967               	goto	l703
  5771  0164                     u3430:	
  5772  0164                     l2780:	
  5773  0164  01B9               	clrf	___fldiv@aexp
  5774  0165  0AB9               	incf	___fldiv@aexp,f
  5775  0166  296C               	goto	l2784
  5776  0167                     l703:	
  5777  0167  1C24               	btfss	___fldiv@b,0
  5778  0168  296A               	goto	u3441
  5779  0169  296B               	goto	u3440
  5780  016A                     u3441:	
  5781  016A  296C               	goto	l2784
  5782  016B                     u3440:	
  5783  016B  2964               	goto	l2780
  5784  016C                     l2784:	
  5785  016C  0839               	movf	___fldiv@aexp,w
  5786  016D  1903               	btfsc	3,2
  5787  016E  2970               	goto	u3451
  5788  016F  2971               	goto	u3450
  5789  0170                     u3451:	
  5790  0170  29A2               	goto	l2794
  5791  0171                     u3450:	
  5792  0171                     l2786:	
  5793  0171  3001               	movlw	1
  5794  0172  07A4               	addwf	___fldiv@b,f
  5795  0173  3000               	movlw	0
  5796  0174  1803               	skipnc
  5797  0175  3001               	movlw	1
  5798  0176  07A5               	addwf	___fldiv@b+1,f
  5799  0177  3000               	movlw	0
  5800  0178  1803               	skipnc
  5801  0179  3001               	movlw	1
  5802  017A  07A6               	addwf	___fldiv@b+2,f
  5803  017B  3000               	movlw	0
  5804  017C  1803               	skipnc
  5805  017D  3001               	movlw	1
  5806  017E  07A7               	addwf	___fldiv@b+3,f
  5807  017F                     l2788:	
  5808  017F  1C27               	btfss	___fldiv@b+3,0
  5809  0180  2982               	goto	u3461
  5810  0181  2983               	goto	u3460
  5811  0182                     u3461:	
  5812  0182  29A2               	goto	l2794
  5813  0183                     u3460:	
  5814  0183                     l2790:	
  5815  0183  0824               	movf	___fldiv@b,w
  5816  0184  00A8               	movwf	??___fldiv
  5817  0185  0825               	movf	___fldiv@b+1,w
  5818  0186  00A9               	movwf	??___fldiv+1
  5819  0187  0826               	movf	___fldiv@b+2,w
  5820  0188  00AA               	movwf	??___fldiv+2
  5821  0189  0827               	movf	___fldiv@b+3,w
  5822  018A  00AB               	movwf	??___fldiv+3
  5823  018B  3001               	movlw	1
  5824  018C  00AC               	movwf	??___fldiv+4
  5825  018D                     u3475:	
  5826  018D  0D2B               	rlf	??___fldiv+3,w
  5827  018E  0CAB               	rrf	??___fldiv+3,f
  5828  018F  0CAA               	rrf	??___fldiv+2,f
  5829  0190  0CA9               	rrf	??___fldiv+1,f
  5830  0191  0CA8               	rrf	??___fldiv,f
  5831  0192                     u3470:	
  5832  0192  0BAC               	decfsz	??___fldiv+4,f
  5833  0193  298D               	goto	u3475
  5834  0194  082B               	movf	??___fldiv+3,w
  5835  0195  00A7               	movwf	___fldiv@b+3
  5836  0196  082A               	movf	??___fldiv+2,w
  5837  0197  00A6               	movwf	___fldiv@b+2
  5838  0198  0829               	movf	??___fldiv+1,w
  5839  0199  00A5               	movwf	___fldiv@b+1
  5840  019A  0828               	movf	??___fldiv,w
  5841  019B  00A4               	movwf	___fldiv@b
  5842  019C                     l2792:	
  5843  019C  3001               	movlw	1
  5844  019D  07B2               	addwf	___fldiv@new_exp,f
  5845  019E  1803               	skipnc
  5846  019F  0AB3               	incf	___fldiv@new_exp+1,f
  5847  01A0  3000               	movlw	0
  5848  01A1  07B3               	addwf	___fldiv@new_exp+1,f
  5849  01A2                     l2794:	
  5850  01A2  0833               	movf	___fldiv@new_exp+1,w
  5851  01A3  3A80               	xorlw	128
  5852  01A4  00FF               	movwf	btemp+1
  5853  01A5  3080               	movlw	128
  5854  01A6  027F               	subwf	btemp+1,w
  5855  01A7  1D03               	skipz
  5856  01A8  29AB               	goto	u3485
  5857  01A9  30FF               	movlw	255
  5858  01AA  0232               	subwf	___fldiv@new_exp,w
  5859  01AB                     u3485:	
  5860  01AB  1C03               	skipc
  5861  01AC  29AE               	goto	u3481
  5862  01AD  29AF               	goto	u3480
  5863  01AE                     u3481:	
  5864  01AE  29BD               	goto	l2798
  5865  01AF                     u3480:	
  5866  01AF                     l2796:	
  5867  01AF  30FF               	movlw	255
  5868  01B0  1283               	bcf	3,5	;RP0=0, select bank0
  5869  01B1  1303               	bcf	3,6	;RP1=0, select bank0
  5870  01B2  00B2               	movwf	___fldiv@new_exp
  5871  01B3  3000               	movlw	0
  5872  01B4  00B3               	movwf	___fldiv@new_exp+1
  5873  01B5  3000               	movlw	0
  5874  01B6  00A7               	movwf	___fldiv@b+3
  5875  01B7  3000               	movlw	0
  5876  01B8  00A6               	movwf	___fldiv@b+2
  5877  01B9  3000               	movlw	0
  5878  01BA  00A5               	movwf	___fldiv@b+1
  5879  01BB  3000               	movlw	0
  5880  01BC  00A4               	movwf	___fldiv@b
  5881  01BD                     l2798:	
  5882  01BD  1283               	bcf	3,5	;RP0=0, select bank0
  5883  01BE  1303               	bcf	3,6	;RP1=0, select bank0
  5884  01BF  0833               	movf	___fldiv@new_exp+1,w
  5885  01C0  3A80               	xorlw	128
  5886  01C1  00FF               	movwf	btemp+1
  5887  01C2  3080               	movlw	128
  5888  01C3  027F               	subwf	btemp+1,w
  5889  01C4  1D03               	skipz
  5890  01C5  29C8               	goto	u3495
  5891  01C6  3001               	movlw	1
  5892  01C7  0232               	subwf	___fldiv@new_exp,w
  5893  01C8                     u3495:	
  5894  01C8  1803               	skipnc
  5895  01C9  29CB               	goto	u3491
  5896  01CA  29CC               	goto	u3490
  5897  01CB                     u3491:	
  5898  01CB  29D9               	goto	l709
  5899  01CC                     u3490:	
  5900  01CC                     l2800:	
  5901  01CC  1283               	bcf	3,5	;RP0=0, select bank0
  5902  01CD  1303               	bcf	3,6	;RP1=0, select bank0
  5903  01CE  01B2               	clrf	___fldiv@new_exp
  5904  01CF  01B3               	clrf	___fldiv@new_exp+1
  5905  01D0                     l2802:	
  5906  01D0  3000               	movlw	0
  5907  01D1  00A7               	movwf	___fldiv@b+3
  5908  01D2  3000               	movlw	0
  5909  01D3  00A6               	movwf	___fldiv@b+2
  5910  01D4  3000               	movlw	0
  5911  01D5  00A5               	movwf	___fldiv@b+1
  5912  01D6  3000               	movlw	0
  5913  01D7  00A4               	movwf	___fldiv@b
  5914  01D8                     l2804:	
  5915  01D8  01B1               	clrf	___fldiv@sign
  5916  01D9                     l709:	
  5917  01D9  1283               	bcf	3,5	;RP0=0, select bank0
  5918  01DA  1303               	bcf	3,6	;RP1=0, select bank0
  5919  01DB  0832               	movf	___fldiv@new_exp,w
  5920  01DC  00A8               	movwf	??___fldiv
  5921  01DD  0828               	movf	??___fldiv,w
  5922  01DE  00B8               	movwf	___fldiv@bexp
  5923  01DF                     l2806:	
  5924  01DF  1C38               	btfss	___fldiv@bexp,0
  5925  01E0  29E2               	goto	u3501
  5926  01E1  29E3               	goto	u3500
  5927  01E2                     u3501:	
  5928  01E2  29E5               	goto	l2810
  5929  01E3                     u3500:	
  5930  01E3                     l2808:	
  5931  01E3  17A6               	bsf	___fldiv@b+2,7
  5932  01E4  29E9               	goto	l711
  5933  01E5                     l2810:	
  5934  01E5  307F               	movlw	127
  5935  01E6  00A8               	movwf	??___fldiv
  5936  01E7  0828               	movf	??___fldiv,w
  5937  01E8  05A6               	andwf	___fldiv@b+2,f
  5938  01E9                     l711:	
  5939  01E9  0838               	movf	___fldiv@bexp,w
  5940  01EA  00A8               	movwf	??___fldiv
  5941  01EB  1003               	clrc
  5942  01EC  0C28               	rrf	??___fldiv,w
  5943  01ED  00A9               	movwf	??___fldiv+1
  5944  01EE  0829               	movf	??___fldiv+1,w
  5945  01EF  00A7               	movwf	___fldiv@b+3
  5946  01F0  0831               	movf	___fldiv@sign,w
  5947  01F1  00A8               	movwf	??___fldiv
  5948  01F2  0828               	movf	??___fldiv,w
  5949  01F3  04A7               	iorwf	___fldiv@b+3,f
  5950  01F4  288D               	goto	l2718
  5951  01F5                     l689:	
  5952  01F5  0008               	return
  5953  01F6                     __end_of___fldiv:	
  5954                           
  5955                           	psect	text13
  5956  15C4                     __ptext13:	
  5957 ;; *************** function _UART_Write *****************
  5958 ;; Defined at:
  5959 ;;		line 37 in file "RXTX.c"
  5960 ;; Parameters:    Size  Location     Type
  5961 ;;  data            1    wreg     unsigned char 
  5962 ;; Auto vars:     Size  Location     Type
  5963 ;;  data            1    2[COMMON] unsigned char 
  5964 ;; Return value:  Size  Location     Type
  5965 ;;                  1    wreg      void 
  5966 ;; Registers used:
  5967 ;;		wreg
  5968 ;; Tracked objects:
  5969 ;;		On entry : 0/0
  5970 ;;		On exit  : 0/0
  5971 ;;		Unchanged: 0/0
  5972 ;; Data sizes:     COMMON   BANK0   BANK1   BANK3   BANK2
  5973 ;;      Params:         0       0       0       0       0
  5974 ;;      Locals:         1       0       0       0       0
  5975 ;;      Temps:          2       0       0       0       0
  5976 ;;      Totals:         3       0       0       0       0
  5977 ;;Total ram usage:        3 bytes
  5978 ;; Hardware stack levels used:    1
  5979 ;; This function calls:
  5980 ;;		Nothing
  5981 ;; This function is called by:
  5982 ;;		_main
  5983 ;; This function uses a non-reentrant model
  5984 ;;
  5985                           
  5986                           
  5987                           ;psect for function _UART_Write
  5988  15C4                     _UART_Write:	
  5989                           
  5990                           ;incstack = 0
  5991                           ; Regs used in _UART_Write: [wreg]
  5992                           ;UART_Write@data stored from wreg
  5993  15C4  00F2               	movwf	UART_Write@data
  5994  15C5                     l2670:	
  5995  15C5                     l246:	
  5996                           ;RXTX.c: 37: void UART_Write(char data);RXTX.c: 38: {;RXTX.c: 39:   while(!TRMT);
  5997                           
  5998  15C5  1683               	bsf	3,5	;RP0=1, select bank1
  5999  15C6  1303               	bcf	3,6	;RP1=0, select bank1
  6000  15C7  1C98               	btfss	24,1	;volatile
  6001  15C8  2DCA               	goto	u3211
  6002  15C9  2DCB               	goto	u3210
  6003  15CA                     u3211:	
  6004  15CA  2DC5               	goto	l246
  6005  15CB                     u3210:	
  6006  15CB                     l2672:	
  6007                           
  6008                           ;RXTX.c: 40:   TXREG = data;
  6009  15CB  0872               	movf	UART_Write@data,w
  6010  15CC  1283               	bcf	3,5	;RP0=0, select bank0
  6011  15CD  1303               	bcf	3,6	;RP1=0, select bank0
  6012  15CE  0099               	movwf	25	;volatile
  6013                           
  6014                           ;RXTX.c: 41:   _delay((unsigned long)((100)*(4000000/4000.0)));
  6015  15CF  3082               	movlw	130
  6016  15D0  00F1               	movwf	??_UART_Write+1
  6017  15D1  30DD               	movlw	221
  6018  15D2  00F0               	movwf	??_UART_Write
  6019  15D3                     u3587:	
  6020  15D3  0BF0               	decfsz	??_UART_Write,f
  6021  15D4  2DD3               	goto	u3587
  6022  15D5  0BF1               	decfsz	??_UART_Write+1,f
  6023  15D6  2DD3               	goto	u3587
  6024  15D7  2DD8               	nop2
  6025  15D8                     l249:	
  6026  15D8  0008               	return
  6027  15D9                     __end_of_UART_Write:	
  6028                           
  6029                           	psect	text14
  6030  0AA7                     __ptext14:	
  6031 ;; *************** function _UART_Init *****************
  6032 ;; Defined at:
  6033 ;;		line 14 in file "RXTX.c"
  6034 ;; Parameters:    Size  Location     Type
  6035 ;;  baudrate        4    6[BANK0 ] const long 
  6036 ;; Auto vars:     Size  Location     Type
  6037 ;;  x               2    9[COMMON] unsigned int 
  6038 ;; Return value:  Size  Location     Type
  6039 ;;                  1    wreg      unsigned char 
  6040 ;; Registers used:
  6041 ;;		wreg, status,2, status,0, pclath, cstack
  6042 ;; Tracked objects:
  6043 ;;		On entry : 0/0
  6044 ;;		On exit  : 0/0
  6045 ;;		Unchanged: 0/0
  6046 ;; Data sizes:     COMMON   BANK0   BANK1   BANK3   BANK2
  6047 ;;      Params:         0       4       0       0       0
  6048 ;;      Locals:         2       0       0       0       0
  6049 ;;      Temps:          0      12       0       0       0
  6050 ;;      Totals:         2      16       0       0       0
  6051 ;;Total ram usage:       18 bytes
  6052 ;; Hardware stack levels used:    1
  6053 ;; Hardware stack levels required when called:    1
  6054 ;; This function calls:
  6055 ;;		___aldiv
  6056 ;; This function is called by:
  6057 ;;		_main
  6058 ;; This function uses a non-reentrant model
  6059 ;;
  6060                           
  6061                           
  6062                           ;psect for function _UART_Init
  6063  0AA7                     _UART_Init:	
  6064  0AA7                     l2586:	
  6065                           ;incstack = 0
  6066                           ; Regs used in _UART_Init: [wreg+status,2+status,0+pclath+cstack]
  6067                           
  6068                           
  6069                           ;RXTX.c: 14: char UART_Init(const long int baudrate);RXTX.c: 15: {;RXTX.c: 16:   unsigne
      +                          d int x;;RXTX.c: 17:   x = (4000000 - baudrate*64)/(baudrate*64);
  6070  0AA7  1283               	bcf	3,5	;RP0=0, select bank0
  6071  0AA8  1303               	bcf	3,6	;RP1=0, select bank0
  6072  0AA9  0826               	movf	UART_Init@baudrate,w
  6073  0AAA  00AA               	movwf	??_UART_Init
  6074  0AAB  0827               	movf	UART_Init@baudrate+1,w
  6075  0AAC  00AB               	movwf	??_UART_Init+1
  6076  0AAD  0828               	movf	UART_Init@baudrate+2,w
  6077  0AAE  00AC               	movwf	??_UART_Init+2
  6078  0AAF  0829               	movf	UART_Init@baudrate+3,w
  6079  0AB0  00AD               	movwf	??_UART_Init+3
  6080  0AB1  3006               	movlw	6
  6081  0AB2                     u3135:	
  6082  0AB2  1003               	clrc
  6083  0AB3  0DAA               	rlf	??_UART_Init,f
  6084  0AB4  0DAB               	rlf	??_UART_Init+1,f
  6085  0AB5  0DAC               	rlf	??_UART_Init+2,f
  6086  0AB6  0DAD               	rlf	??_UART_Init+3,f
  6087  0AB7                     u3130:	
  6088  0AB7  3EFF               	addlw	-1
  6089  0AB8  1D03               	skipz
  6090  0AB9  2AB2               	goto	u3135
  6091  0ABA  082D               	movf	??_UART_Init+3,w
  6092  0ABB  00F3               	movwf	___aldiv@divisor+3
  6093  0ABC  082C               	movf	??_UART_Init+2,w
  6094  0ABD  00F2               	movwf	___aldiv@divisor+2
  6095  0ABE  082B               	movf	??_UART_Init+1,w
  6096  0ABF  00F1               	movwf	___aldiv@divisor+1
  6097  0AC0  082A               	movf	??_UART_Init,w
  6098  0AC1  00F0               	movwf	___aldiv@divisor
  6099  0AC2  0826               	movf	UART_Init@baudrate,w
  6100  0AC3  00AE               	movwf	??_UART_Init+4
  6101  0AC4  0827               	movf	UART_Init@baudrate+1,w
  6102  0AC5  00AF               	movwf	??_UART_Init+5
  6103  0AC6  0828               	movf	UART_Init@baudrate+2,w
  6104  0AC7  00B0               	movwf	??_UART_Init+6
  6105  0AC8  0829               	movf	UART_Init@baudrate+3,w
  6106  0AC9  00B1               	movwf	??_UART_Init+7
  6107  0ACA  3006               	movlw	6
  6108  0ACB                     u3145:	
  6109  0ACB  1003               	clrc
  6110  0ACC  0DAE               	rlf	??_UART_Init+4,f
  6111  0ACD  0DAF               	rlf	??_UART_Init+5,f
  6112  0ACE  0DB0               	rlf	??_UART_Init+6,f
  6113  0ACF  0DB1               	rlf	??_UART_Init+7,f
  6114  0AD0                     u3140:	
  6115  0AD0  3EFF               	addlw	-1
  6116  0AD1  1D03               	skipz
  6117  0AD2  2ACB               	goto	u3145
  6118  0AD3  3000               	movlw	0
  6119  0AD4  00B2               	movwf	??_UART_Init+8
  6120  0AD5  3009               	movlw	9
  6121  0AD6  00B3               	movwf	??_UART_Init+9
  6122  0AD7  303D               	movlw	61
  6123  0AD8  00B4               	movwf	??_UART_Init+10
  6124  0AD9  3000               	movlw	0
  6125  0ADA  00B5               	movwf	??_UART_Init+11
  6126  0ADB  082E               	movf	??_UART_Init+4,w
  6127  0ADC  02B2               	subwf	??_UART_Init+8,f
  6128  0ADD  082F               	movf	??_UART_Init+5,w
  6129  0ADE  1C03               	skipc
  6130  0ADF  0F2F               	incfsz	??_UART_Init+5,w
  6131  0AE0  2AE2               	goto	u3151
  6132  0AE1  2AE3               	goto	u3152
  6133  0AE2                     u3151:	
  6134  0AE2  02B3               	subwf	??_UART_Init+9,f
  6135  0AE3                     u3152:	
  6136  0AE3  0830               	movf	??_UART_Init+6,w
  6137  0AE4  1C03               	skipc
  6138  0AE5  0F30               	incfsz	??_UART_Init+6,w
  6139  0AE6  2AE8               	goto	u3153
  6140  0AE7  2AE9               	goto	u3154
  6141  0AE8                     u3153:	
  6142  0AE8  02B4               	subwf	??_UART_Init+10,f
  6143  0AE9                     u3154:	
  6144  0AE9  0831               	movf	??_UART_Init+7,w
  6145  0AEA  1C03               	skipc
  6146  0AEB  0F31               	incfsz	??_UART_Init+7,w
  6147  0AEC  2AEE               	goto	u3155
  6148  0AED  2AEF               	goto	u3156
  6149  0AEE                     u3155:	
  6150  0AEE  02B5               	subwf	??_UART_Init+11,f
  6151  0AEF                     u3156:	
  6152  0AEF  0835               	movf	??_UART_Init+11,w
  6153  0AF0  00F7               	movwf	___aldiv@dividend+3
  6154  0AF1  0834               	movf	??_UART_Init+10,w
  6155  0AF2  00F6               	movwf	___aldiv@dividend+2
  6156  0AF3  0833               	movf	??_UART_Init+9,w
  6157  0AF4  00F5               	movwf	___aldiv@dividend+1
  6158  0AF5  0832               	movf	??_UART_Init+8,w
  6159  0AF6  00F4               	movwf	___aldiv@dividend
  6160  0AF7  120A  158A  2010  120A  158A  	fcall	___aldiv
  6161  0AFC  0871               	movf	?___aldiv+1,w
  6162  0AFD  00FA               	movwf	UART_Init@x+1
  6163  0AFE  0870               	movf	?___aldiv,w
  6164  0AFF  00F9               	movwf	UART_Init@x
  6165  0B00                     l2588:	
  6166                           
  6167                           ;RXTX.c: 18:   if(x>255)
  6168  0B00  3001               	movlw	1
  6169  0B01  027A               	subwf	UART_Init@x+1,w
  6170  0B02  3000               	movlw	0
  6171  0B03  1903               	skipnz
  6172  0B04  0279               	subwf	UART_Init@x,w
  6173  0B05  1C03               	skipc
  6174  0B06  2B08               	goto	u3161
  6175  0B07  2B09               	goto	u3160
  6176  0B08                     u3161:	
  6177  0B08  2B65               	goto	l2594
  6178  0B09                     u3160:	
  6179  0B09                     l2590:	
  6180                           
  6181                           ;RXTX.c: 19:   {;RXTX.c: 20:     x = (4000000 - baudrate*16)/(baudrate*16);
  6182  0B09  1283               	bcf	3,5	;RP0=0, select bank0
  6183  0B0A  1303               	bcf	3,6	;RP1=0, select bank0
  6184  0B0B  0826               	movf	UART_Init@baudrate,w
  6185  0B0C  00AA               	movwf	??_UART_Init
  6186  0B0D  0827               	movf	UART_Init@baudrate+1,w
  6187  0B0E  00AB               	movwf	??_UART_Init+1
  6188  0B0F  0828               	movf	UART_Init@baudrate+2,w
  6189  0B10  00AC               	movwf	??_UART_Init+2
  6190  0B11  0829               	movf	UART_Init@baudrate+3,w
  6191  0B12  00AD               	movwf	??_UART_Init+3
  6192  0B13  3004               	movlw	4
  6193  0B14                     u3175:	
  6194  0B14  1003               	clrc
  6195  0B15  0DAA               	rlf	??_UART_Init,f
  6196  0B16  0DAB               	rlf	??_UART_Init+1,f
  6197  0B17  0DAC               	rlf	??_UART_Init+2,f
  6198  0B18  0DAD               	rlf	??_UART_Init+3,f
  6199  0B19                     u3170:	
  6200  0B19  3EFF               	addlw	-1
  6201  0B1A  1D03               	skipz
  6202  0B1B  2B14               	goto	u3175
  6203  0B1C  082D               	movf	??_UART_Init+3,w
  6204  0B1D  00F3               	movwf	___aldiv@divisor+3
  6205  0B1E  082C               	movf	??_UART_Init+2,w
  6206  0B1F  00F2               	movwf	___aldiv@divisor+2
  6207  0B20  082B               	movf	??_UART_Init+1,w
  6208  0B21  00F1               	movwf	___aldiv@divisor+1
  6209  0B22  082A               	movf	??_UART_Init,w
  6210  0B23  00F0               	movwf	___aldiv@divisor
  6211  0B24  0826               	movf	UART_Init@baudrate,w
  6212  0B25  00AE               	movwf	??_UART_Init+4
  6213  0B26  0827               	movf	UART_Init@baudrate+1,w
  6214  0B27  00AF               	movwf	??_UART_Init+5
  6215  0B28  0828               	movf	UART_Init@baudrate+2,w
  6216  0B29  00B0               	movwf	??_UART_Init+6
  6217  0B2A  0829               	movf	UART_Init@baudrate+3,w
  6218  0B2B  00B1               	movwf	??_UART_Init+7
  6219  0B2C  3004               	movlw	4
  6220  0B2D                     u3185:	
  6221  0B2D  1003               	clrc
  6222  0B2E  0DAE               	rlf	??_UART_Init+4,f
  6223  0B2F  0DAF               	rlf	??_UART_Init+5,f
  6224  0B30  0DB0               	rlf	??_UART_Init+6,f
  6225  0B31  0DB1               	rlf	??_UART_Init+7,f
  6226  0B32                     u3180:	
  6227  0B32  3EFF               	addlw	-1
  6228  0B33  1D03               	skipz
  6229  0B34  2B2D               	goto	u3185
  6230  0B35  3000               	movlw	0
  6231  0B36  00B2               	movwf	??_UART_Init+8
  6232  0B37  3009               	movlw	9
  6233  0B38  00B3               	movwf	??_UART_Init+9
  6234  0B39  303D               	movlw	61
  6235  0B3A  00B4               	movwf	??_UART_Init+10
  6236  0B3B  3000               	movlw	0
  6237  0B3C  00B5               	movwf	??_UART_Init+11
  6238  0B3D  082E               	movf	??_UART_Init+4,w
  6239  0B3E  02B2               	subwf	??_UART_Init+8,f
  6240  0B3F  082F               	movf	??_UART_Init+5,w
  6241  0B40  1C03               	skipc
  6242  0B41  0F2F               	incfsz	??_UART_Init+5,w
  6243  0B42  2B44               	goto	u3191
  6244  0B43  2B45               	goto	u3192
  6245  0B44                     u3191:	
  6246  0B44  02B3               	subwf	??_UART_Init+9,f
  6247  0B45                     u3192:	
  6248  0B45  0830               	movf	??_UART_Init+6,w
  6249  0B46  1C03               	skipc
  6250  0B47  0F30               	incfsz	??_UART_Init+6,w
  6251  0B48  2B4A               	goto	u3193
  6252  0B49  2B4B               	goto	u3194
  6253  0B4A                     u3193:	
  6254  0B4A  02B4               	subwf	??_UART_Init+10,f
  6255  0B4B                     u3194:	
  6256  0B4B  0831               	movf	??_UART_Init+7,w
  6257  0B4C  1C03               	skipc
  6258  0B4D  0F31               	incfsz	??_UART_Init+7,w
  6259  0B4E  2B50               	goto	u3195
  6260  0B4F  2B51               	goto	u3196
  6261  0B50                     u3195:	
  6262  0B50  02B5               	subwf	??_UART_Init+11,f
  6263  0B51                     u3196:	
  6264  0B51  0835               	movf	??_UART_Init+11,w
  6265  0B52  00F7               	movwf	___aldiv@dividend+3
  6266  0B53  0834               	movf	??_UART_Init+10,w
  6267  0B54  00F6               	movwf	___aldiv@dividend+2
  6268  0B55  0833               	movf	??_UART_Init+9,w
  6269  0B56  00F5               	movwf	___aldiv@dividend+1
  6270  0B57  0832               	movf	??_UART_Init+8,w
  6271  0B58  00F4               	movwf	___aldiv@dividend
  6272  0B59  120A  158A  2010  120A  158A  	fcall	___aldiv
  6273  0B5E  0871               	movf	?___aldiv+1,w
  6274  0B5F  00FA               	movwf	UART_Init@x+1
  6275  0B60  0870               	movf	?___aldiv,w
  6276  0B61  00F9               	movwf	UART_Init@x
  6277  0B62                     l2592:	
  6278                           
  6279                           ;RXTX.c: 21:     BRGH = 1;
  6280  0B62  1683               	bsf	3,5	;RP0=1, select bank1
  6281  0B63  1303               	bcf	3,6	;RP1=0, select bank1
  6282  0B64  1518               	bsf	24,2	;volatile
  6283  0B65                     l2594:	
  6284                           
  6285                           ;RXTX.c: 23:   if(x<256)
  6286  0B65  3001               	movlw	1
  6287  0B66  027A               	subwf	UART_Init@x+1,w
  6288  0B67  3000               	movlw	0
  6289  0B68  1903               	skipnz
  6290  0B69  0279               	subwf	UART_Init@x,w
  6291  0B6A  1803               	skipnc
  6292  0B6B  2B6D               	goto	u3201
  6293  0B6C  2B6E               	goto	u3200
  6294  0B6D                     u3201:	
  6295  0B6D  2B80               	goto	l243
  6296  0B6E                     u3200:	
  6297  0B6E                     l2596:	
  6298                           
  6299                           ;RXTX.c: 24:   {;RXTX.c: 25:     SPBRG = x;
  6300  0B6E  0879               	movf	UART_Init@x,w
  6301  0B6F  1683               	bsf	3,5	;RP0=1, select bank1
  6302  0B70  1303               	bcf	3,6	;RP1=0, select bank1
  6303  0B71  0099               	movwf	25	;volatile
  6304  0B72                     l2598:	
  6305                           
  6306                           ;RXTX.c: 26:     SYNC = 0;
  6307  0B72  1218               	bcf	24,4	;volatile
  6308  0B73                     l2600:	
  6309                           
  6310                           ;RXTX.c: 27:     SPEN = 1;
  6311  0B73  1283               	bcf	3,5	;RP0=0, select bank0
  6312  0B74  1303               	bcf	3,6	;RP1=0, select bank0
  6313  0B75  1798               	bsf	24,7	;volatile
  6314  0B76                     l2602:	
  6315                           
  6316                           ;RXTX.c: 28:     TRISC7 = 1;
  6317  0B76  1683               	bsf	3,5	;RP0=1, select bank1
  6318  0B77  1303               	bcf	3,6	;RP1=0, select bank1
  6319  0B78  1787               	bsf	7,7	;volatile
  6320  0B79                     l2604:	
  6321                           
  6322                           ;RXTX.c: 29:     TRISC6 = 1;
  6323  0B79  1707               	bsf	7,6	;volatile
  6324  0B7A                     l2606:	
  6325                           
  6326                           ;RXTX.c: 30:     CREN = 1;
  6327  0B7A  1283               	bcf	3,5	;RP0=0, select bank0
  6328  0B7B  1303               	bcf	3,6	;RP1=0, select bank0
  6329  0B7C  1618               	bsf	24,4	;volatile
  6330  0B7D                     l2608:	
  6331                           
  6332                           ;RXTX.c: 31:     TXEN = 1;
  6333  0B7D  1683               	bsf	3,5	;RP0=1, select bank1
  6334  0B7E  1303               	bcf	3,6	;RP1=0, select bank1
  6335  0B7F  1698               	bsf	24,5	;volatile
  6336  0B80                     l243:	
  6337  0B80  0008               	return
  6338  0B81                     __end_of_UART_Init:	
  6339                           
  6340                           	psect	text15
  6341  0810                     __ptext15:	
  6342 ;; *************** function ___aldiv *****************
  6343 ;; Defined at:
  6344 ;;		line 5 in file "C:\Program Files (x86)\Microchip\xc8\v2.10\pic\sources\c90\common\aldiv.c"
  6345 ;; Parameters:    Size  Location     Type
  6346 ;;  divisor         4    0[COMMON] long 
  6347 ;;  dividend        4    4[COMMON] long 
  6348 ;; Auto vars:     Size  Location     Type
  6349 ;;  quotient        4    2[BANK0 ] long 
  6350 ;;  sign            1    1[BANK0 ] unsigned char 
  6351 ;;  counter         1    0[BANK0 ] unsigned char 
  6352 ;; Return value:  Size  Location     Type
  6353 ;;                  4    0[COMMON] long 
  6354 ;; Registers used:
  6355 ;;		wreg, status,2, status,0
  6356 ;; Tracked objects:
  6357 ;;		On entry : 0/0
  6358 ;;		On exit  : 0/0
  6359 ;;		Unchanged: 0/0
  6360 ;; Data sizes:     COMMON   BANK0   BANK1   BANK3   BANK2
  6361 ;;      Params:         8       0       0       0       0
  6362 ;;      Locals:         0       6       0       0       0
  6363 ;;      Temps:          1       0       0       0       0
  6364 ;;      Totals:         9       6       0       0       0
  6365 ;;Total ram usage:       15 bytes
  6366 ;; Hardware stack levels used:    1
  6367 ;; This function calls:
  6368 ;;		Nothing
  6369 ;; This function is called by:
  6370 ;;		_UART_Init
  6371 ;; This function uses a non-reentrant model
  6372 ;;
  6373                           
  6374                           
  6375                           ;psect for function ___aldiv
  6376  0810                     ___aldiv:	
  6377  0810                     l2204:	
  6378                           ;incstack = 0
  6379                           ; Regs used in ___aldiv: [wreg+status,2+status,0]
  6380                           
  6381  0810  1283               	bcf	3,5	;RP0=0, select bank0
  6382  0811  1303               	bcf	3,6	;RP1=0, select bank0
  6383  0812  01A1               	clrf	___aldiv@sign
  6384  0813                     l2206:	
  6385  0813  1FF3               	btfss	___aldiv@divisor+3,7
  6386  0814  2816               	goto	u2371
  6387  0815  2817               	goto	u2370
  6388  0816                     u2371:	
  6389  0816  2824               	goto	l403
  6390  0817                     u2370:	
  6391  0817                     l2208:	
  6392  0817  09F0               	comf	___aldiv@divisor,f
  6393  0818  09F1               	comf	___aldiv@divisor+1,f
  6394  0819  09F2               	comf	___aldiv@divisor+2,f
  6395  081A  09F3               	comf	___aldiv@divisor+3,f
  6396  081B  0AF0               	incf	___aldiv@divisor,f
  6397  081C  1903               	skipnz
  6398  081D  0AF1               	incf	___aldiv@divisor+1,f
  6399  081E  1903               	skipnz
  6400  081F  0AF2               	incf	___aldiv@divisor+2,f
  6401  0820  1903               	skipnz
  6402  0821  0AF3               	incf	___aldiv@divisor+3,f
  6403  0822  01A1               	clrf	___aldiv@sign
  6404  0823  0AA1               	incf	___aldiv@sign,f
  6405  0824                     l403:	
  6406  0824  1FF7               	btfss	___aldiv@dividend+3,7
  6407  0825  2827               	goto	u2381
  6408  0826  2828               	goto	u2380
  6409  0827                     u2381:	
  6410  0827  2837               	goto	l2214
  6411  0828                     u2380:	
  6412  0828                     l2210:	
  6413  0828  09F4               	comf	___aldiv@dividend,f
  6414  0829  09F5               	comf	___aldiv@dividend+1,f
  6415  082A  09F6               	comf	___aldiv@dividend+2,f
  6416  082B  09F7               	comf	___aldiv@dividend+3,f
  6417  082C  0AF4               	incf	___aldiv@dividend,f
  6418  082D  1903               	skipnz
  6419  082E  0AF5               	incf	___aldiv@dividend+1,f
  6420  082F  1903               	skipnz
  6421  0830  0AF6               	incf	___aldiv@dividend+2,f
  6422  0831  1903               	skipnz
  6423  0832  0AF7               	incf	___aldiv@dividend+3,f
  6424  0833                     l2212:	
  6425  0833  3001               	movlw	1
  6426  0834  00F8               	movwf	??___aldiv
  6427  0835  0878               	movf	??___aldiv,w
  6428  0836  06A1               	xorwf	___aldiv@sign,f
  6429  0837                     l2214:	
  6430  0837  3000               	movlw	0
  6431  0838  00A5               	movwf	___aldiv@quotient+3
  6432  0839  3000               	movlw	0
  6433  083A  00A4               	movwf	___aldiv@quotient+2
  6434  083B  3000               	movlw	0
  6435  083C  00A3               	movwf	___aldiv@quotient+1
  6436  083D  3000               	movlw	0
  6437  083E  00A2               	movwf	___aldiv@quotient
  6438  083F                     l2216:	
  6439  083F  0873               	movf	___aldiv@divisor+3,w
  6440  0840  0472               	iorwf	___aldiv@divisor+2,w
  6441  0841  0471               	iorwf	___aldiv@divisor+1,w
  6442  0842  0470               	iorwf	___aldiv@divisor,w
  6443  0843  1903               	skipnz
  6444  0844  2846               	goto	u2391
  6445  0845  2847               	goto	u2390
  6446  0846                     u2391:	
  6447  0846  2894               	goto	l2236
  6448  0847                     u2390:	
  6449  0847                     l2218:	
  6450  0847  01A0               	clrf	___aldiv@counter
  6451  0848  0AA0               	incf	___aldiv@counter,f
  6452  0849  2857               	goto	l2222
  6453  084A                     l2220:	
  6454  084A  3001               	movlw	1
  6455  084B  00F8               	movwf	??___aldiv
  6456  084C                     u2405:	
  6457  084C  1003               	clrc
  6458  084D  0DF0               	rlf	___aldiv@divisor,f
  6459  084E  0DF1               	rlf	___aldiv@divisor+1,f
  6460  084F  0DF2               	rlf	___aldiv@divisor+2,f
  6461  0850  0DF3               	rlf	___aldiv@divisor+3,f
  6462  0851  0BF8               	decfsz	??___aldiv,f
  6463  0852  284C               	goto	u2405
  6464  0853  3001               	movlw	1
  6465  0854  00F8               	movwf	??___aldiv
  6466  0855  0878               	movf	??___aldiv,w
  6467  0856  07A0               	addwf	___aldiv@counter,f
  6468  0857                     l2222:	
  6469  0857  1FF3               	btfss	___aldiv@divisor+3,7
  6470  0858  285A               	goto	u2411
  6471  0859  285B               	goto	u2410
  6472  085A                     u2411:	
  6473  085A  284A               	goto	l2220
  6474  085B                     u2410:	
  6475  085B                     l2224:	
  6476  085B  3001               	movlw	1
  6477  085C  00F8               	movwf	??___aldiv
  6478  085D                     u2425:	
  6479  085D  1003               	clrc
  6480  085E  0DA2               	rlf	___aldiv@quotient,f
  6481  085F  0DA3               	rlf	___aldiv@quotient+1,f
  6482  0860  0DA4               	rlf	___aldiv@quotient+2,f
  6483  0861  0DA5               	rlf	___aldiv@quotient+3,f
  6484  0862  0BF8               	decfsz	??___aldiv,f
  6485  0863  285D               	goto	u2425
  6486  0864                     l2226:	
  6487  0864  0873               	movf	___aldiv@divisor+3,w
  6488  0865  0277               	subwf	___aldiv@dividend+3,w
  6489  0866  1D03               	skipz
  6490  0867  2872               	goto	u2435
  6491  0868  0872               	movf	___aldiv@divisor+2,w
  6492  0869  0276               	subwf	___aldiv@dividend+2,w
  6493  086A  1D03               	skipz
  6494  086B  2872               	goto	u2435
  6495  086C  0871               	movf	___aldiv@divisor+1,w
  6496  086D  0275               	subwf	___aldiv@dividend+1,w
  6497  086E  1D03               	skipz
  6498  086F  2872               	goto	u2435
  6499  0870  0870               	movf	___aldiv@divisor,w
  6500  0871  0274               	subwf	___aldiv@dividend,w
  6501  0872                     u2435:	
  6502  0872  1C03               	skipc
  6503  0873  2875               	goto	u2431
  6504  0874  2876               	goto	u2430
  6505  0875                     u2431:	
  6506  0875  2885               	goto	l2232
  6507  0876                     u2430:	
  6508  0876                     l2228:	
  6509  0876  0870               	movf	___aldiv@divisor,w
  6510  0877  02F4               	subwf	___aldiv@dividend,f
  6511  0878  0871               	movf	___aldiv@divisor+1,w
  6512  0879  1C03               	skipc
  6513  087A  0F71               	incfsz	___aldiv@divisor+1,w
  6514  087B  02F5               	subwf	___aldiv@dividend+1,f
  6515  087C  0872               	movf	___aldiv@divisor+2,w
  6516  087D  1C03               	skipc
  6517  087E  0F72               	incfsz	___aldiv@divisor+2,w
  6518  087F  02F6               	subwf	___aldiv@dividend+2,f
  6519  0880  0873               	movf	___aldiv@divisor+3,w
  6520  0881  1C03               	skipc
  6521  0882  0F73               	incfsz	___aldiv@divisor+3,w
  6522  0883  02F7               	subwf	___aldiv@dividend+3,f
  6523  0884                     l2230:	
  6524  0884  1422               	bsf	___aldiv@quotient,0
  6525  0885                     l2232:	
  6526  0885  3001               	movlw	1
  6527  0886                     u2445:	
  6528  0886  1003               	clrc
  6529  0887  0CF3               	rrf	___aldiv@divisor+3,f
  6530  0888  0CF2               	rrf	___aldiv@divisor+2,f
  6531  0889  0CF1               	rrf	___aldiv@divisor+1,f
  6532  088A  0CF0               	rrf	___aldiv@divisor,f
  6533  088B  3EFF               	addlw	-1
  6534  088C  1D03               	skipz
  6535  088D  2886               	goto	u2445
  6536  088E                     l2234:	
  6537  088E  3001               	movlw	1
  6538  088F  02A0               	subwf	___aldiv@counter,f
  6539  0890  1D03               	btfss	3,2
  6540  0891  2893               	goto	u2451
  6541  0892  2894               	goto	u2450
  6542  0893                     u2451:	
  6543  0893  285B               	goto	l2224
  6544  0894                     u2450:	
  6545  0894                     l2236:	
  6546  0894  0821               	movf	___aldiv@sign,w
  6547  0895  1903               	btfsc	3,2
  6548  0896  2898               	goto	u2461
  6549  0897  2899               	goto	u2460
  6550  0898                     u2461:	
  6551  0898  28A4               	goto	l2240
  6552  0899                     u2460:	
  6553  0899                     l2238:	
  6554  0899  09A2               	comf	___aldiv@quotient,f
  6555  089A  09A3               	comf	___aldiv@quotient+1,f
  6556  089B  09A4               	comf	___aldiv@quotient+2,f
  6557  089C  09A5               	comf	___aldiv@quotient+3,f
  6558  089D  0AA2               	incf	___aldiv@quotient,f
  6559  089E  1903               	skipnz
  6560  089F  0AA3               	incf	___aldiv@quotient+1,f
  6561  08A0  1903               	skipnz
  6562  08A1  0AA4               	incf	___aldiv@quotient+2,f
  6563  08A2  1903               	skipnz
  6564  08A3  0AA5               	incf	___aldiv@quotient+3,f
  6565  08A4                     l2240:	
  6566  08A4  0825               	movf	___aldiv@quotient+3,w
  6567  08A5  00F3               	movwf	?___aldiv+3
  6568  08A6  0824               	movf	___aldiv@quotient+2,w
  6569  08A7  00F2               	movwf	?___aldiv+2
  6570  08A8  0823               	movf	___aldiv@quotient+1,w
  6571  08A9  00F1               	movwf	?___aldiv+1
  6572  08AA  0822               	movf	___aldiv@quotient,w
  6573  08AB  00F0               	movwf	?___aldiv
  6574  08AC                     l413:	
  6575  08AC  0008               	return
  6576  08AD                     __end_of___aldiv:	
  6577                           
  6578                           	psect	text16
  6579  169E                     __ptext16:	
  6580 ;; *************** function _Lcd_Write_String *****************
  6581 ;; Defined at:
  6582 ;;		line 125 in file "LCD.c"
  6583 ;; Parameters:    Size  Location     Type
  6584 ;;  a               2    3[COMMON] PTR unsigned char 
  6585 ;;		 -> STR_3(4), STR_2(4), STR_1(4), main@s2(5), 
  6586 ;;		 -> main@s1(5), 
  6587 ;; Auto vars:     Size  Location     Type
  6588 ;;  i               2    8[COMMON] int 
  6589 ;; Return value:  Size  Location     Type
  6590 ;;                  1    wreg      void 
  6591 ;; Registers used:
  6592 ;;		wreg, fsr0l, fsr0h, status,2, status,0, btemp+1, pclath, cstack
  6593 ;; Tracked objects:
  6594 ;;		On entry : 0/0
  6595 ;;		On exit  : 0/0
  6596 ;;		Unchanged: 0/0
  6597 ;; Data sizes:     COMMON   BANK0   BANK1   BANK3   BANK2
  6598 ;;      Params:         2       0       0       0       0
  6599 ;;      Locals:         2       0       0       0       0
  6600 ;;      Temps:          3       0       0       0       0
  6601 ;;      Totals:         7       0       0       0       0
  6602 ;;Total ram usage:        7 bytes
  6603 ;; Hardware stack levels used:    1
  6604 ;; Hardware stack levels required when called:    2
  6605 ;; This function calls:
  6606 ;;		_Lcd_Write_Char
  6607 ;; This function is called by:
  6608 ;;		_main
  6609 ;; This function uses a non-reentrant model
  6610 ;;
  6611                           
  6612                           
  6613                           ;psect for function _Lcd_Write_String
  6614  169E                     _Lcd_Write_String:	
  6615  169E                     l2498:	
  6616                           ;incstack = 0
  6617                           ; Regs used in _Lcd_Write_String: [wreg-fsr0h+status,2+status,0+btemp+1+pclath+cstack]
  6618                           
  6619                           
  6620                           ;LCD.c: 125: void Lcd_Write_String(char *a);LCD.c: 126: {;LCD.c: 127:  int i;;LCD.c: 128
      +                          :  for(i=0;a[i]!='\0';i++)
  6621  169E  01F8               	clrf	Lcd_Write_String@i
  6622  169F  01F9               	clrf	Lcd_Write_String@i+1
  6623  16A0  2EC3               	goto	l2504
  6624  16A1                     l2500:	
  6625                           
  6626                           ;LCD.c: 129:     Lcd_Write_Char(a[i]);
  6627  16A1  0878               	movf	Lcd_Write_String@i,w
  6628  16A2  0773               	addwf	Lcd_Write_String@a,w
  6629  16A3  00F6               	movwf	??_Lcd_Write_String+1
  6630  16A4  0874               	movf	Lcd_Write_String@a+1,w
  6631  16A5  00F5               	movwf	??_Lcd_Write_String
  6632  16A6  1803               	skipnc
  6633  16A7  0AF5               	incf	??_Lcd_Write_String,f
  6634  16A8  1FF8               	btfss	Lcd_Write_String@i,7
  6635  16A9  2EAB               	goto	u3100
  6636  16AA  03F5               	decf	??_Lcd_Write_String,f
  6637  16AB                     u3100:	
  6638  16AB  0875               	movf	??_Lcd_Write_String,w
  6639  16AC  00F7               	movwf	??_Lcd_Write_String+2
  6640  16AD  0877               	movf	??_Lcd_Write_String+2,w
  6641  16AE  1283               	bcf	3,5	;RP0=0, select bank0
  6642  16AF  1303               	bcf	3,6	;RP1=0, select bank0
  6643  16B0  00FF               	movwf	btemp+1
  6644  16B1  0876               	movf	??_Lcd_Write_String+1,w
  6645  16B2  0084               	movwf	4
  6646  16B3  160A  118A  2000  160A  118A  	fcall	stringtab
  6647  16B8  160A  118A  25AF  160A  118A  	fcall	_Lcd_Write_Char
  6648  16BD                     l2502:	
  6649  16BD  3001               	movlw	1
  6650  16BE  07F8               	addwf	Lcd_Write_String@i,f
  6651  16BF  1803               	skipnc
  6652  16C0  0AF9               	incf	Lcd_Write_String@i+1,f
  6653  16C1  3000               	movlw	0
  6654  16C2  07F9               	addwf	Lcd_Write_String@i+1,f
  6655  16C3                     l2504:	
  6656  16C3  0878               	movf	Lcd_Write_String@i,w
  6657  16C4  0773               	addwf	Lcd_Write_String@a,w
  6658  16C5  00F6               	movwf	??_Lcd_Write_String+1
  6659  16C6  0874               	movf	Lcd_Write_String@a+1,w
  6660  16C7  00F5               	movwf	??_Lcd_Write_String
  6661  16C8  1803               	skipnc
  6662  16C9  0AF5               	incf	??_Lcd_Write_String,f
  6663  16CA  1FF8               	btfss	Lcd_Write_String@i,7
  6664  16CB  2ECD               	goto	u3110
  6665  16CC  03F5               	decf	??_Lcd_Write_String,f
  6666  16CD                     u3110:	
  6667  16CD  0875               	movf	??_Lcd_Write_String,w
  6668  16CE  00F7               	movwf	??_Lcd_Write_String+2
  6669  16CF  0877               	movf	??_Lcd_Write_String+2,w
  6670  16D0  1283               	bcf	3,5	;RP0=0, select bank0
  6671  16D1  1303               	bcf	3,6	;RP1=0, select bank0
  6672  16D2  00FF               	movwf	btemp+1
  6673  16D3  0876               	movf	??_Lcd_Write_String+1,w
  6674  16D4  0084               	movwf	4
  6675  16D5  160A  118A  2000  160A  118A  	fcall	stringtab
  6676  16DA  3A00               	xorlw	0
  6677  16DB  1D03               	skipz
  6678  16DC  2EDE               	goto	u3121
  6679  16DD  2EDF               	goto	u3120
  6680  16DE                     u3121:	
  6681  16DE  2EA1               	goto	l2500
  6682  16DF                     u3120:	
  6683  16DF                     l65:	
  6684  16DF  0008               	return
  6685  16E0                     __end_of_Lcd_Write_String:	
  6686                           
  6687                           	psect	text17
  6688  15AF                     __ptext17:	
  6689 ;; *************** function _Lcd_Write_Char *****************
  6690 ;; Defined at:
  6691 ;;		line 115 in file "LCD.c"
  6692 ;; Parameters:    Size  Location     Type
  6693 ;;  a               1    wreg     unsigned char 
  6694 ;; Auto vars:     Size  Location     Type
  6695 ;;  a               1    2[COMMON] unsigned char 
  6696 ;; Return value:  Size  Location     Type
  6697 ;;                  1    wreg      void 
  6698 ;; Registers used:
  6699 ;;		wreg, status,2, status,0, pclath, cstack
  6700 ;; Tracked objects:
  6701 ;;		On entry : 0/0
  6702 ;;		On exit  : 0/0
  6703 ;;		Unchanged: 0/0
  6704 ;; Data sizes:     COMMON   BANK0   BANK1   BANK3   BANK2
  6705 ;;      Params:         0       0       0       0       0
  6706 ;;      Locals:         1       0       0       0       0
  6707 ;;      Temps:          1       0       0       0       0
  6708 ;;      Totals:         2       0       0       0       0
  6709 ;;Total ram usage:        2 bytes
  6710 ;; Hardware stack levels used:    1
  6711 ;; Hardware stack levels required when called:    1
  6712 ;; This function calls:
  6713 ;;		_Lcd_Port
  6714 ;; This function is called by:
  6715 ;;		_Lcd_Write_String
  6716 ;; This function uses a non-reentrant model
  6717 ;;
  6718                           
  6719                           
  6720                           ;psect for function _Lcd_Write_Char
  6721  15AF                     _Lcd_Write_Char:	
  6722                           
  6723                           ;incstack = 0
  6724                           ; Regs used in _Lcd_Write_Char: [wreg+status,2+status,0+pclath+cstack]
  6725                           ;Lcd_Write_Char@a stored from wreg
  6726  15AF  00F2               	movwf	Lcd_Write_Char@a
  6727  15B0                     l2146:	
  6728                           
  6729                           ;LCD.c: 115: void Lcd_Write_Char(char a);LCD.c: 116: {;LCD.c: 118:    RC1 = 1;
  6730  15B0  1283               	bcf	3,5	;RP0=0, select bank0
  6731  15B1  1303               	bcf	3,6	;RP1=0, select bank0
  6732  15B2  1487               	bsf	7,1	;volatile
  6733  15B3                     l2148:	
  6734                           
  6735                           ;LCD.c: 119:    Lcd_Port(a);
  6736  15B3  0872               	movf	Lcd_Write_Char@a,w
  6737  15B4  160A  118A  2660  160A  118A  	fcall	_Lcd_Port
  6738  15B9                     l2150:	
  6739                           
  6740                           ;LCD.c: 120:    RC0 = 1;
  6741  15B9  1283               	bcf	3,5	;RP0=0, select bank0
  6742  15BA  1303               	bcf	3,6	;RP1=0, select bank0
  6743  15BB  1407               	bsf	7,0	;volatile
  6744  15BC                     l2152:	
  6745                           
  6746                           ;LCD.c: 121:    _delay((unsigned long)((40)*(4000000/4000000.0)));
  6747  15BC  300D               	movlw	13
  6748  15BD  00F1               	movwf	??_Lcd_Write_Char
  6749  15BE                     u3597:	
  6750  15BE  0BF1               	decfsz	??_Lcd_Write_Char,f
  6751  15BF  2DBE               	goto	u3597
  6752  15C0                     l2154:	
  6753                           
  6754                           ;LCD.c: 122:    RC0 = 0;
  6755  15C0  1283               	bcf	3,5	;RP0=0, select bank0
  6756  15C1  1303               	bcf	3,6	;RP1=0, select bank0
  6757  15C2  1007               	bcf	7,0	;volatile
  6758  15C3                     l59:	
  6759  15C3  0008               	return
  6760  15C4                     __end_of_Lcd_Write_Char:	
  6761                           
  6762                           	psect	text18
  6763  15D9                     __ptext18:	
  6764 ;; *************** function _Lcd_Set_Cursor *****************
  6765 ;; Defined at:
  6766 ;;		line 85 in file "LCD.c"
  6767 ;; Parameters:    Size  Location     Type
  6768 ;;  a               1    wreg     unsigned char 
  6769 ;;  b               1    4[COMMON] unsigned char 
  6770 ;; Auto vars:     Size  Location     Type
  6771 ;;  a               1    5[COMMON] unsigned char 
  6772 ;; Return value:  Size  Location     Type
  6773 ;;                  1    wreg      void 
  6774 ;; Registers used:
  6775 ;;		wreg, status,2, status,0, pclath, cstack
  6776 ;; Tracked objects:
  6777 ;;		On entry : 0/0
  6778 ;;		On exit  : 0/0
  6779 ;;		Unchanged: 0/0
  6780 ;; Data sizes:     COMMON   BANK0   BANK1   BANK3   BANK2
  6781 ;;      Params:         1       0       0       0       0
  6782 ;;      Locals:         1       0       0       0       0
  6783 ;;      Temps:          0       0       0       0       0
  6784 ;;      Totals:         2       0       0       0       0
  6785 ;;Total ram usage:        2 bytes
  6786 ;; Hardware stack levels used:    1
  6787 ;; Hardware stack levels required when called:    2
  6788 ;; This function calls:
  6789 ;;		_Lcd_Cmd
  6790 ;; This function is called by:
  6791 ;;		_main
  6792 ;; This function uses a non-reentrant model
  6793 ;;
  6794                           
  6795                           
  6796                           ;psect for function _Lcd_Set_Cursor
  6797  15D9                     _Lcd_Set_Cursor:	
  6798                           
  6799                           ;incstack = 0
  6800                           ; Regs used in _Lcd_Set_Cursor: [wreg+status,2+status,0+pclath+cstack]
  6801                           ;Lcd_Set_Cursor@a stored from wreg
  6802  15D9  00F5               	movwf	Lcd_Set_Cursor@a
  6803  15DA                     l2470:	
  6804                           
  6805                           ;LCD.c: 85: void Lcd_Set_Cursor(char a, char b);LCD.c: 86: {;LCD.c: 87:  if(a == 1)
  6806  15DA  0375               	decf	Lcd_Set_Cursor@a,w
  6807  15DB  1D03               	btfss	3,2
  6808  15DC  2DDE               	goto	u3081
  6809  15DD  2DDF               	goto	u3080
  6810  15DE                     u3081:	
  6811  15DE  2DE7               	goto	l2474
  6812  15DF                     u3080:	
  6813  15DF                     l2472:	
  6814                           
  6815                           ;LCD.c: 88:  {;LCD.c: 89:   Lcd_Cmd(0x80 + b - 1);
  6816  15DF  0874               	movf	Lcd_Set_Cursor@b,w
  6817  15E0  3E7F               	addlw	127
  6818  15E1  160A  118A  25F5  160A  118A  	fcall	_Lcd_Cmd
  6819                           
  6820                           ;LCD.c: 90:  }
  6821  15E6  2DF4               	goto	l53
  6822  15E7                     l2474:	
  6823  15E7  3002               	movlw	2
  6824  15E8  0675               	xorwf	Lcd_Set_Cursor@a,w
  6825  15E9  1D03               	btfss	3,2
  6826  15EA  2DEC               	goto	u3091
  6827  15EB  2DED               	goto	u3090
  6828  15EC                     u3091:	
  6829  15EC  2DF4               	goto	l53
  6830  15ED                     u3090:	
  6831  15ED                     l2476:	
  6832                           
  6833                           ;LCD.c: 92:  {;LCD.c: 93:   Lcd_Cmd(0xC0 + b - 1);
  6834  15ED  0874               	movf	Lcd_Set_Cursor@b,w
  6835  15EE  3EBF               	addlw	191
  6836  15EF  160A  118A  25F5  160A  118A  	fcall	_Lcd_Cmd
  6837  15F4                     l53:	
  6838  15F4  0008               	return
  6839  15F5                     __end_of_Lcd_Set_Cursor:	
  6840                           
  6841                           	psect	text19
  6842  16E0                     __ptext19:	
  6843 ;; *************** function _Lcd_Init *****************
  6844 ;; Defined at:
  6845 ;;		line 97 in file "LCD.c"
  6846 ;; Parameters:    Size  Location     Type
  6847 ;;		None
  6848 ;; Auto vars:     Size  Location     Type
  6849 ;;		None
  6850 ;; Return value:  Size  Location     Type
  6851 ;;                  1    wreg      void 
  6852 ;; Registers used:
  6853 ;;		wreg, status,2, status,0, pclath, cstack
  6854 ;; Tracked objects:
  6855 ;;		On entry : 0/0
  6856 ;;		On exit  : 0/0
  6857 ;;		Unchanged: 0/0
  6858 ;; Data sizes:     COMMON   BANK0   BANK1   BANK3   BANK2
  6859 ;;      Params:         0       0       0       0       0
  6860 ;;      Locals:         0       0       0       0       0
  6861 ;;      Temps:          2       0       0       0       0
  6862 ;;      Totals:         2       0       0       0       0
  6863 ;;Total ram usage:        2 bytes
  6864 ;; Hardware stack levels used:    1
  6865 ;; Hardware stack levels required when called:    2
  6866 ;; This function calls:
  6867 ;;		_Lcd_Cmd
  6868 ;; This function is called by:
  6869 ;;		_main
  6870 ;; This function uses a non-reentrant model
  6871 ;;
  6872                           
  6873                           
  6874                           ;psect for function _Lcd_Init
  6875  16E0                     _Lcd_Init:	
  6876  16E0                     l2478:	
  6877                           ;incstack = 0
  6878                           ; Regs used in _Lcd_Init: [wreg+status,2+status,0+pclath+cstack]
  6879                           
  6880                           
  6881                           ;LCD.c: 100:    _delay((unsigned long)((15)*(4000000/4000.0)));
  6882  16E0  3014               	movlw	20
  6883  16E1  00F5               	movwf	??_Lcd_Init+1
  6884  16E2  3079               	movlw	121
  6885  16E3  00F4               	movwf	??_Lcd_Init
  6886  16E4                     u3607:	
  6887  16E4  0BF4               	decfsz	??_Lcd_Init,f
  6888  16E5  2EE4               	goto	u3607
  6889  16E6  0BF5               	decfsz	??_Lcd_Init+1,f
  6890  16E7  2EE4               	goto	u3607
  6891  16E8  2EE9               	nop2
  6892  16E9                     l2480:	
  6893                           
  6894                           ;LCD.c: 101:   Lcd_Cmd(0x030);
  6895  16E9  3030               	movlw	48
  6896  16EA  160A  118A  25F5  160A  118A  	fcall	_Lcd_Cmd
  6897  16EF                     l2482:	
  6898                           
  6899                           ;LCD.c: 102:   _delay((unsigned long)((5)*(4000000/4000.0)));
  6900  16EF  3007               	movlw	7
  6901  16F0  00F5               	movwf	??_Lcd_Init+1
  6902  16F1  307D               	movlw	125
  6903  16F2  00F4               	movwf	??_Lcd_Init
  6904  16F3                     u3617:	
  6905  16F3  0BF4               	decfsz	??_Lcd_Init,f
  6906  16F4  2EF3               	goto	u3617
  6907  16F5  0BF5               	decfsz	??_Lcd_Init+1,f
  6908  16F6  2EF3               	goto	u3617
  6909                           
  6910                           ;LCD.c: 103:   Lcd_Cmd(0x030);
  6911  16F7  3030               	movlw	48
  6912  16F8  160A  118A  25F5  160A  118A  	fcall	_Lcd_Cmd
  6913  16FD                     l2484:	
  6914                           
  6915                           ;LCD.c: 104:   _delay((unsigned long)((160)*(4000000/4000000.0)));
  6916  16FD  3035               	movlw	53
  6917  16FE  00F4               	movwf	??_Lcd_Init
  6918  16FF                     u3627:	
  6919  16FF  0BF4               	decfsz	??_Lcd_Init,f
  6920  1700  2EFF               	goto	u3627
  6921  1701                     l2486:	
  6922                           
  6923                           ;LCD.c: 105:   Lcd_Cmd(0x030);
  6924  1701  3030               	movlw	48
  6925  1702  160A  118A  25F5  160A  118A  	fcall	_Lcd_Cmd
  6926  1707                     l2488:	
  6927                           
  6928                           ;LCD.c: 107:   Lcd_Cmd(0x38);
  6929  1707  3038               	movlw	56
  6930  1708  160A  118A  25F5  160A  118A  	fcall	_Lcd_Cmd
  6931  170D                     l2490:	
  6932                           
  6933                           ;LCD.c: 108:   Lcd_Cmd(0x10);
  6934  170D  3010               	movlw	16
  6935  170E  160A  118A  25F5  160A  118A  	fcall	_Lcd_Cmd
  6936  1713                     l2492:	
  6937                           
  6938                           ;LCD.c: 109:   Lcd_Cmd(0x01);
  6939  1713  3001               	movlw	1
  6940  1714  160A  118A  25F5  160A  118A  	fcall	_Lcd_Cmd
  6941  1719                     l2494:	
  6942                           
  6943                           ;LCD.c: 110:   Lcd_Cmd(0x06);
  6944  1719  3006               	movlw	6
  6945  171A  160A  118A  25F5  160A  118A  	fcall	_Lcd_Cmd
  6946  171F                     l2496:	
  6947                           
  6948                           ;LCD.c: 111:   Lcd_Cmd(0x0F);
  6949  171F  300F               	movlw	15
  6950  1720  160A  118A  25F5  160A  118A  	fcall	_Lcd_Cmd
  6951  1725                     l56:	
  6952  1725  0008               	return
  6953  1726                     __end_of_Lcd_Init:	
  6954                           
  6955                           	psect	text20
  6956  15F5                     __ptext20:	
  6957 ;; *************** function _Lcd_Cmd *****************
  6958 ;; Defined at:
  6959 ;;		line 70 in file "LCD.c"
  6960 ;; Parameters:    Size  Location     Type
  6961 ;;  a               1    wreg     unsigned char 
  6962 ;; Auto vars:     Size  Location     Type
  6963 ;;  a               1    3[COMMON] unsigned char 
  6964 ;; Return value:  Size  Location     Type
  6965 ;;                  1    wreg      void 
  6966 ;; Registers used:
  6967 ;;		wreg, status,2, status,0, pclath, cstack
  6968 ;; Tracked objects:
  6969 ;;		On entry : 0/0
  6970 ;;		On exit  : 0/0
  6971 ;;		Unchanged: 0/0
  6972 ;; Data sizes:     COMMON   BANK0   BANK1   BANK3   BANK2
  6973 ;;      Params:         0       0       0       0       0
  6974 ;;      Locals:         1       0       0       0       0
  6975 ;;      Temps:          2       0       0       0       0
  6976 ;;      Totals:         3       0       0       0       0
  6977 ;;Total ram usage:        3 bytes
  6978 ;; Hardware stack levels used:    1
  6979 ;; Hardware stack levels required when called:    1
  6980 ;; This function calls:
  6981 ;;		_Lcd_Port
  6982 ;; This function is called by:
  6983 ;;		_Lcd_Set_Cursor
  6984 ;;		_Lcd_Init
  6985 ;;		_Lcd_Clear
  6986 ;;		_Lcd_Shift_Right
  6987 ;;		_Lcd_Shift_Left
  6988 ;; This function uses a non-reentrant model
  6989 ;;
  6990                           
  6991                           
  6992                           ;psect for function _Lcd_Cmd
  6993  15F5                     _Lcd_Cmd:	
  6994                           
  6995                           ;incstack = 0
  6996                           ; Regs used in _Lcd_Cmd: [wreg+status,2+status,0+pclath+cstack]
  6997                           ;Lcd_Cmd@a stored from wreg
  6998  15F5  00F3               	movwf	Lcd_Cmd@a
  6999  15F6                     l2134:	
  7000                           
  7001                           ;LCD.c: 70: void Lcd_Cmd(char a);LCD.c: 71: {;LCD.c: 72:  RC1 = 0;
  7002  15F6  1283               	bcf	3,5	;RP0=0, select bank0
  7003  15F7  1303               	bcf	3,6	;RP1=0, select bank0
  7004  15F8  1087               	bcf	7,1	;volatile
  7005  15F9                     l2136:	
  7006                           
  7007                           ;LCD.c: 73:  Lcd_Port(a);
  7008  15F9  0873               	movf	Lcd_Cmd@a,w
  7009  15FA  160A  118A  2660  160A  118A  	fcall	_Lcd_Port
  7010  15FF                     l2138:	
  7011                           
  7012                           ;LCD.c: 74:  RC0 = 1;
  7013  15FF  1283               	bcf	3,5	;RP0=0, select bank0
  7014  1600  1303               	bcf	3,6	;RP1=0, select bank0
  7015  1601  1407               	bsf	7,0	;volatile
  7016  1602                     l2140:	
  7017                           
  7018                           ;LCD.c: 75:     _delay((unsigned long)((5)*(4000000/4000.0)));
  7019  1602  3007               	movlw	7
  7020  1603  00F2               	movwf	??_Lcd_Cmd+1
  7021  1604  307D               	movlw	125
  7022  1605  00F1               	movwf	??_Lcd_Cmd
  7023  1606                     u3637:	
  7024  1606  0BF1               	decfsz	??_Lcd_Cmd,f
  7025  1607  2E06               	goto	u3637
  7026  1608  0BF2               	decfsz	??_Lcd_Cmd+1,f
  7027  1609  2E06               	goto	u3637
  7028  160A                     l2142:	
  7029                           
  7030                           ;LCD.c: 76:     RC0 = 0;
  7031  160A  1283               	bcf	3,5	;RP0=0, select bank0
  7032  160B  1303               	bcf	3,6	;RP1=0, select bank0
  7033  160C  1007               	bcf	7,0	;volatile
  7034  160D                     l2144:	
  7035                           
  7036                           ;LCD.c: 77:     _delay((unsigned long)((1)*(4000000/4000.0)));
  7037  160D  30C7               	movlw	199
  7038  160E  00F1               	movwf	??_Lcd_Cmd
  7039  160F                     u3647:	
  7040  160F  2E10               	nop2
  7041  1610  0BF1               	decfsz	??_Lcd_Cmd,f
  7042  1611  2E0F               	goto	u3647
  7043  1612  2E13               	nop2
  7044  1613  2E14               	nop2
  7045  1614                     l44:	
  7046  1614  0008               	return
  7047  1615                     __end_of_Lcd_Cmd:	
  7048                           
  7049                           	psect	text21
  7050  1660                     __ptext21:	
  7051 ;; *************** function _Lcd_Port *****************
  7052 ;; Defined at:
  7053 ;;		line 27 in file "LCD.c"
  7054 ;; Parameters:    Size  Location     Type
  7055 ;;  a               1    wreg     unsigned char 
  7056 ;; Auto vars:     Size  Location     Type
  7057 ;;  a               1    0[COMMON] unsigned char 
  7058 ;; Return value:  Size  Location     Type
  7059 ;;                  1    wreg      void 
  7060 ;; Registers used:
  7061 ;;		wreg
  7062 ;; Tracked objects:
  7063 ;;		On entry : 0/0
  7064 ;;		On exit  : 0/0
  7065 ;;		Unchanged: 0/0
  7066 ;; Data sizes:     COMMON   BANK0   BANK1   BANK3   BANK2
  7067 ;;      Params:         0       0       0       0       0
  7068 ;;      Locals:         1       0       0       0       0
  7069 ;;      Temps:          0       0       0       0       0
  7070 ;;      Totals:         1       0       0       0       0
  7071 ;;Total ram usage:        1 bytes
  7072 ;; Hardware stack levels used:    1
  7073 ;; This function calls:
  7074 ;;		Nothing
  7075 ;; This function is called by:
  7076 ;;		_Lcd_Cmd
  7077 ;;		_Lcd_Write_Char
  7078 ;; This function uses a non-reentrant model
  7079 ;;
  7080                           
  7081                           
  7082                           ;psect for function _Lcd_Port
  7083  1660                     _Lcd_Port:	
  7084                           
  7085                           ;incstack = 0
  7086                           ; Regs used in _Lcd_Port: [wreg]
  7087                           ;Lcd_Port@a stored from wreg
  7088  1660  00F0               	movwf	Lcd_Port@a
  7089  1661                     l1908:	
  7090                           
  7091                           ;LCD.c: 27: void Lcd_Port(char a);LCD.c: 28: {;LCD.c: 29:     if(a & 1)
  7092  1661  1C70               	btfss	Lcd_Port@a,0
  7093  1662  2E64               	goto	u1781
  7094  1663  2E65               	goto	u1780
  7095  1664                     u1781:	
  7096  1664  2E69               	goto	l25
  7097  1665                     u1780:	
  7098  1665                     l1910:	
  7099                           
  7100                           ;LCD.c: 30:   RA0 = 1;
  7101  1665  1283               	bcf	3,5	;RP0=0, select bank0
  7102  1666  1303               	bcf	3,6	;RP1=0, select bank0
  7103  1667  1405               	bsf	5,0	;volatile
  7104  1668  2E6C               	goto	l26
  7105  1669                     l25:	
  7106                           ;LCD.c: 31:  else
  7107                           
  7108                           
  7109                           ;LCD.c: 32:   RA0 = 0;
  7110  1669  1283               	bcf	3,5	;RP0=0, select bank0
  7111  166A  1303               	bcf	3,6	;RP1=0, select bank0
  7112  166B  1005               	bcf	5,0	;volatile
  7113  166C                     l26:	
  7114                           
  7115                           ;LCD.c: 34:  if(a & 2)
  7116  166C  1CF0               	btfss	Lcd_Port@a,1
  7117  166D  2E6F               	goto	u1791
  7118  166E  2E70               	goto	u1790
  7119  166F                     u1791:	
  7120  166F  2E72               	goto	l27
  7121  1670                     u1790:	
  7122  1670                     l1912:	
  7123                           
  7124                           ;LCD.c: 35:   RA1 = 1;
  7125  1670  1485               	bsf	5,1	;volatile
  7126  1671  2E73               	goto	l28
  7127  1672                     l27:	
  7128                           ;LCD.c: 36:  else
  7129                           
  7130                           
  7131                           ;LCD.c: 37:   RA1 = 0;
  7132  1672  1085               	bcf	5,1	;volatile
  7133  1673                     l28:	
  7134                           
  7135                           ;LCD.c: 39:  if(a & 4)
  7136  1673  1D70               	btfss	Lcd_Port@a,2
  7137  1674  2E76               	goto	u1801
  7138  1675  2E77               	goto	u1800
  7139  1676                     u1801:	
  7140  1676  2E79               	goto	l29
  7141  1677                     u1800:	
  7142  1677                     l1914:	
  7143                           
  7144                           ;LCD.c: 40:   RA2 = 1;
  7145  1677  1505               	bsf	5,2	;volatile
  7146  1678  2E7A               	goto	l30
  7147  1679                     l29:	
  7148                           ;LCD.c: 41:  else
  7149                           
  7150                           
  7151                           ;LCD.c: 42:   RA2 = 0;
  7152  1679  1105               	bcf	5,2	;volatile
  7153  167A                     l30:	
  7154                           
  7155                           ;LCD.c: 44:  if(a & 8)
  7156  167A  1DF0               	btfss	Lcd_Port@a,3
  7157  167B  2E7D               	goto	u1811
  7158  167C  2E7E               	goto	u1810
  7159  167D                     u1811:	
  7160  167D  2E80               	goto	l31
  7161  167E                     u1810:	
  7162  167E                     l1916:	
  7163                           
  7164                           ;LCD.c: 45:   RA3 = 1;
  7165  167E  1585               	bsf	5,3	;volatile
  7166  167F  2E81               	goto	l32
  7167  1680                     l31:	
  7168                           ;LCD.c: 46:  else
  7169                           
  7170                           
  7171                           ;LCD.c: 47:   RA3 = 0;
  7172  1680  1185               	bcf	5,3	;volatile
  7173  1681                     l32:	
  7174                           
  7175                           ;LCD.c: 49:  if(a & 16)
  7176  1681  1E70               	btfss	Lcd_Port@a,4
  7177  1682  2E84               	goto	u1821
  7178  1683  2E85               	goto	u1820
  7179  1684                     u1821:	
  7180  1684  2E87               	goto	l33
  7181  1685                     u1820:	
  7182  1685                     l1918:	
  7183                           
  7184                           ;LCD.c: 50:   RA4 = 1;
  7185  1685  1605               	bsf	5,4	;volatile
  7186  1686  2E88               	goto	l34
  7187  1687                     l33:	
  7188                           ;LCD.c: 51:  else
  7189                           
  7190                           
  7191                           ;LCD.c: 52:   RA4 = 0;
  7192  1687  1205               	bcf	5,4	;volatile
  7193  1688                     l34:	
  7194                           
  7195                           ;LCD.c: 54:  if(a & 32)
  7196  1688  1EF0               	btfss	Lcd_Port@a,5
  7197  1689  2E8B               	goto	u1831
  7198  168A  2E8C               	goto	u1830
  7199  168B                     u1831:	
  7200  168B  2E8E               	goto	l35
  7201  168C                     u1830:	
  7202  168C                     l1920:	
  7203                           
  7204                           ;LCD.c: 55:   RA5 = 1;
  7205  168C  1685               	bsf	5,5	;volatile
  7206  168D  2E8F               	goto	l36
  7207  168E                     l35:	
  7208                           ;LCD.c: 56:  else
  7209                           
  7210                           
  7211                           ;LCD.c: 57:   RA5 = 0;
  7212  168E  1285               	bcf	5,5	;volatile
  7213  168F                     l36:	
  7214                           
  7215                           ;LCD.c: 59:  if(a & 64)
  7216  168F  1F70               	btfss	Lcd_Port@a,6
  7217  1690  2E92               	goto	u1841
  7218  1691  2E93               	goto	u1840
  7219  1692                     u1841:	
  7220  1692  2E95               	goto	l37
  7221  1693                     u1840:	
  7222  1693                     l1922:	
  7223                           
  7224                           ;LCD.c: 60:   RA6 = 1;
  7225  1693  1705               	bsf	5,6	;volatile
  7226  1694  2E96               	goto	l38
  7227  1695                     l37:	
  7228                           ;LCD.c: 61:  else
  7229                           
  7230                           
  7231                           ;LCD.c: 62:   RA6 = 0;
  7232  1695  1305               	bcf	5,6	;volatile
  7233  1696                     l38:	
  7234                           
  7235                           ;LCD.c: 64:  if(a & 128)
  7236  1696  1FF0               	btfss	Lcd_Port@a,7
  7237  1697  2E99               	goto	u1851
  7238  1698  2E9A               	goto	u1850
  7239  1699                     u1851:	
  7240  1699  2E9C               	goto	l39
  7241  169A                     u1850:	
  7242  169A                     l1924:	
  7243                           
  7244                           ;LCD.c: 65:   RA7 = 1;
  7245  169A  1785               	bsf	5,7	;volatile
  7246  169B  2E9D               	goto	l41
  7247  169C                     l39:	
  7248                           ;LCD.c: 66:  else
  7249                           
  7250                           
  7251                           ;LCD.c: 67:   RA7 = 0;
  7252  169C  1385               	bcf	5,7	;volatile
  7253  169D                     l41:	
  7254  169D  0008               	return
  7255  169E                     __end_of_Lcd_Port:	
  7256                           
  7257                           	psect	text22
  7258  0C6F                     __ptext22:	
  7259 ;; *************** function _ADC_CONFIG *****************
  7260 ;; Defined at:
  7261 ;;		line 12 in file "ADC.c"
  7262 ;; Parameters:    Size  Location     Type
  7263 ;;  canal           1    wreg     unsigned char 
  7264 ;;  justif          1    0[COMMON] unsigned char 
  7265 ;; Auto vars:     Size  Location     Type
  7266 ;;  canal           1    3[COMMON] unsigned char 
  7267 ;; Return value:  Size  Location     Type
  7268 ;;                  1    wreg      void 
  7269 ;; Registers used:
  7270 ;;		wreg, fsr0l, fsr0h, status,2, status,0
  7271 ;; Tracked objects:
  7272 ;;		On entry : 0/0
  7273 ;;		On exit  : 0/0
  7274 ;;		Unchanged: 0/0
  7275 ;; Data sizes:     COMMON   BANK0   BANK1   BANK3   BANK2
  7276 ;;      Params:         1       0       0       0       0
  7277 ;;      Locals:         1       0       0       0       0
  7278 ;;      Temps:          2       0       0       0       0
  7279 ;;      Totals:         4       0       0       0       0
  7280 ;;Total ram usage:        4 bytes
  7281 ;; Hardware stack levels used:    1
  7282 ;; This function calls:
  7283 ;;		Nothing
  7284 ;; This function is called by:
  7285 ;;		_main
  7286 ;; This function uses a non-reentrant model
  7287 ;;
  7288                           
  7289                           
  7290                           ;psect for function _ADC_CONFIG
  7291  0C6F                     _ADC_CONFIG:	
  7292                           
  7293                           ;incstack = 0
  7294                           ; Regs used in _ADC_CONFIG: [wreg-fsr0h+status,2+status,0]
  7295                           ;ADC_CONFIG@canal stored from wreg
  7296  0C6F  00F3               	movwf	ADC_CONFIG@canal
  7297  0C70                     l2506:	
  7298                           
  7299                           ;ADC.c: 13:     ADCON0bits.ADON = 1;
  7300  0C70  1283               	bcf	3,5	;RP0=0, select bank0
  7301  0C71  1303               	bcf	3,6	;RP1=0, select bank0
  7302  0C72  141F               	bsf	31,0	;volatile
  7303                           
  7304                           ;ADC.c: 14:     ADCON0bits.GO = 1;
  7305  0C73  149F               	bsf	31,1	;volatile
  7306  0C74                     l2508:	
  7307                           
  7308                           ;ADC.c: 15:     ADCON0bits.ADCS = 1;
  7309  0C74  081F               	movf	31,w	;volatile
  7310  0C75  393F               	andlw	-193
  7311  0C76  3840               	iorlw	64
  7312  0C77  009F               	movwf	31	;volatile
  7313  0C78                     l2510:	
  7314                           
  7315                           ;ADC.c: 16:     ADCON1bits.VCFG0 = 0;
  7316  0C78  1683               	bsf	3,5	;RP0=1, select bank1
  7317  0C79  1303               	bcf	3,6	;RP1=0, select bank1
  7318  0C7A  121F               	bcf	31,4	;volatile
  7319  0C7B                     l2512:	
  7320                           
  7321                           ;ADC.c: 17:     ADCON1bits.VCFG1 = 0;
  7322  0C7B  129F               	bcf	31,5	;volatile
  7323                           
  7324                           ;ADC.c: 19:     switch(canal){
  7325  0C7C  2D31               	goto	l2572
  7326  0C7D                     l99:	
  7327                           ;ADC.c: 20:         case 0:
  7328                           
  7329                           
  7330                           ;ADC.c: 21:             ANSELbits.ANS0 = 1;
  7331  0C7D  1683               	bsf	3,5	;RP0=1, select bank3
  7332  0C7E  1703               	bsf	3,6	;RP1=1, select bank3
  7333  0C7F  1408               	bsf	8,0	;volatile
  7334  0C80                     l2514:	
  7335                           
  7336                           ;ADC.c: 22:             ADCON0bits.CHS = 0;
  7337  0C80  30C3               	movlw	-61
  7338  0C81  1283               	bcf	3,5	;RP0=0, select bank0
  7339  0C82  1303               	bcf	3,6	;RP1=0, select bank0
  7340  0C83  059F               	andwf	31,f	;volatile
  7341  0C84                     l2516:	
  7342                           
  7343                           ;ADC.c: 23:             TRISAbits.TRISA0 = 1;
  7344  0C84  1683               	bsf	3,5	;RP0=1, select bank1
  7345  0C85  1303               	bcf	3,6	;RP1=0, select bank1
  7346  0C86  1405               	bsf	5,0	;volatile
  7347                           
  7348                           ;ADC.c: 24:             break;
  7349  0C87  2D69               	goto	l2576
  7350  0C88                     l101:	
  7351                           ;ADC.c: 26:         case 1:
  7352                           
  7353                           
  7354                           ;ADC.c: 27:             ANSELbits.ANS1 = 1;
  7355  0C88  1683               	bsf	3,5	;RP0=1, select bank3
  7356  0C89  1703               	bsf	3,6	;RP1=1, select bank3
  7357  0C8A  1488               	bsf	8,1	;volatile
  7358  0C8B                     l2518:	
  7359                           
  7360                           ;ADC.c: 28:             ADCON0bits.CHS = 1;
  7361  0C8B  1283               	bcf	3,5	;RP0=0, select bank0
  7362  0C8C  1303               	bcf	3,6	;RP1=0, select bank0
  7363  0C8D  081F               	movf	31,w	;volatile
  7364  0C8E  39C3               	andlw	-61
  7365  0C8F  3804               	iorlw	4
  7366  0C90  009F               	movwf	31	;volatile
  7367  0C91                     l2520:	
  7368                           
  7369                           ;ADC.c: 29:             TRISAbits.TRISA1 = 1;
  7370  0C91  1683               	bsf	3,5	;RP0=1, select bank1
  7371  0C92  1303               	bcf	3,6	;RP1=0, select bank1
  7372  0C93  1485               	bsf	5,1	;volatile
  7373                           
  7374                           ;ADC.c: 30:             break;
  7375  0C94  2D69               	goto	l2576
  7376  0C95                     l102:	
  7377                           ;ADC.c: 32:         case 2:
  7378                           
  7379                           
  7380                           ;ADC.c: 33:             ANSELbits.ANS2 = 1;
  7381  0C95  1683               	bsf	3,5	;RP0=1, select bank3
  7382  0C96  1703               	bsf	3,6	;RP1=1, select bank3
  7383  0C97  1508               	bsf	8,2	;volatile
  7384  0C98                     l2522:	
  7385                           
  7386                           ;ADC.c: 34:             ADCON0bits.CHS = 2;
  7387  0C98  1283               	bcf	3,5	;RP0=0, select bank0
  7388  0C99  1303               	bcf	3,6	;RP1=0, select bank0
  7389  0C9A  081F               	movf	31,w	;volatile
  7390  0C9B  39C3               	andlw	-61
  7391  0C9C  3808               	iorlw	8
  7392  0C9D  009F               	movwf	31	;volatile
  7393  0C9E                     l2524:	
  7394                           
  7395                           ;ADC.c: 35:             TRISAbits.TRISA2 = 1;
  7396  0C9E  1683               	bsf	3,5	;RP0=1, select bank1
  7397  0C9F  1303               	bcf	3,6	;RP1=0, select bank1
  7398  0CA0  1505               	bsf	5,2	;volatile
  7399                           
  7400                           ;ADC.c: 36:             break;
  7401  0CA1  2D69               	goto	l2576
  7402  0CA2                     l103:	
  7403                           ;ADC.c: 38:         case 3:
  7404                           
  7405                           
  7406                           ;ADC.c: 39:             ANSELbits.ANS3 = 1;
  7407  0CA2  1683               	bsf	3,5	;RP0=1, select bank3
  7408  0CA3  1703               	bsf	3,6	;RP1=1, select bank3
  7409  0CA4  1588               	bsf	8,3	;volatile
  7410  0CA5                     l2526:	
  7411                           
  7412                           ;ADC.c: 40:             ADCON0bits.CHS = 3;
  7413  0CA5  1283               	bcf	3,5	;RP0=0, select bank0
  7414  0CA6  1303               	bcf	3,6	;RP1=0, select bank0
  7415  0CA7  081F               	movf	31,w	;volatile
  7416  0CA8  39C3               	andlw	-61
  7417  0CA9  380C               	iorlw	12
  7418  0CAA  009F               	movwf	31	;volatile
  7419  0CAB                     l2528:	
  7420                           
  7421                           ;ADC.c: 41:             TRISAbits.TRISA3 = 1;
  7422  0CAB  1683               	bsf	3,5	;RP0=1, select bank1
  7423  0CAC  1303               	bcf	3,6	;RP1=0, select bank1
  7424  0CAD  1585               	bsf	5,3	;volatile
  7425                           
  7426                           ;ADC.c: 42:             break;
  7427  0CAE  2D69               	goto	l2576
  7428  0CAF                     l104:	
  7429                           ;ADC.c: 44:         case 4:
  7430                           
  7431                           
  7432                           ;ADC.c: 45:             ANSELbits.ANS4 = 1;
  7433  0CAF  1683               	bsf	3,5	;RP0=1, select bank3
  7434  0CB0  1703               	bsf	3,6	;RP1=1, select bank3
  7435  0CB1  1608               	bsf	8,4	;volatile
  7436  0CB2                     l2530:	
  7437                           
  7438                           ;ADC.c: 46:             ADCON0bits.CHS = 4;
  7439  0CB2  1283               	bcf	3,5	;RP0=0, select bank0
  7440  0CB3  1303               	bcf	3,6	;RP1=0, select bank0
  7441  0CB4  081F               	movf	31,w	;volatile
  7442  0CB5  39C3               	andlw	-61
  7443  0CB6  3810               	iorlw	16
  7444  0CB7  009F               	movwf	31	;volatile
  7445  0CB8                     l2532:	
  7446                           
  7447                           ;ADC.c: 47:             TRISAbits.TRISA5 = 1;
  7448  0CB8  1683               	bsf	3,5	;RP0=1, select bank1
  7449  0CB9  1303               	bcf	3,6	;RP1=0, select bank1
  7450  0CBA  1685               	bsf	5,5	;volatile
  7451                           
  7452                           ;ADC.c: 48:             break;
  7453  0CBB  2D69               	goto	l2576
  7454  0CBC                     l105:	
  7455                           ;ADC.c: 50:         case 5:
  7456                           
  7457                           
  7458                           ;ADC.c: 51:             ANSELbits.ANS5 = 1;
  7459  0CBC  1683               	bsf	3,5	;RP0=1, select bank3
  7460  0CBD  1703               	bsf	3,6	;RP1=1, select bank3
  7461  0CBE  1688               	bsf	8,5	;volatile
  7462  0CBF                     l2534:	
  7463                           
  7464                           ;ADC.c: 52:             ADCON0bits.CHS = 5;
  7465  0CBF  1283               	bcf	3,5	;RP0=0, select bank0
  7466  0CC0  1303               	bcf	3,6	;RP1=0, select bank0
  7467  0CC1  081F               	movf	31,w	;volatile
  7468  0CC2  39C3               	andlw	-61
  7469  0CC3  3814               	iorlw	20
  7470  0CC4  009F               	movwf	31	;volatile
  7471  0CC5                     l2536:	
  7472                           
  7473                           ;ADC.c: 53:             TRISEbits.TRISE0 = 1;
  7474  0CC5  1683               	bsf	3,5	;RP0=1, select bank1
  7475  0CC6  1303               	bcf	3,6	;RP1=0, select bank1
  7476  0CC7  1409               	bsf	9,0	;volatile
  7477                           
  7478                           ;ADC.c: 54:             break;
  7479  0CC8  2D69               	goto	l2576
  7480  0CC9                     l106:	
  7481                           ;ADC.c: 56:         case 6:
  7482                           
  7483                           
  7484                           ;ADC.c: 57:             ANSELbits.ANS6 = 1;
  7485  0CC9  1683               	bsf	3,5	;RP0=1, select bank3
  7486  0CCA  1703               	bsf	3,6	;RP1=1, select bank3
  7487  0CCB  1708               	bsf	8,6	;volatile
  7488  0CCC                     l2538:	
  7489                           
  7490                           ;ADC.c: 58:             ADCON0bits.CHS = 6;
  7491  0CCC  1283               	bcf	3,5	;RP0=0, select bank0
  7492  0CCD  1303               	bcf	3,6	;RP1=0, select bank0
  7493  0CCE  081F               	movf	31,w	;volatile
  7494  0CCF  39C3               	andlw	-61
  7495  0CD0  3818               	iorlw	24
  7496  0CD1  009F               	movwf	31	;volatile
  7497  0CD2                     l2540:	
  7498                           
  7499                           ;ADC.c: 59:             TRISEbits.TRISE1 = 1;
  7500  0CD2  1683               	bsf	3,5	;RP0=1, select bank1
  7501  0CD3  1303               	bcf	3,6	;RP1=0, select bank1
  7502  0CD4  1489               	bsf	9,1	;volatile
  7503                           
  7504                           ;ADC.c: 60:             break;
  7505  0CD5  2D69               	goto	l2576
  7506  0CD6                     l107:	
  7507                           ;ADC.c: 62:         case 7:
  7508                           
  7509                           
  7510                           ;ADC.c: 63:             ANSELbits.ANS7 = 1;
  7511  0CD6  1683               	bsf	3,5	;RP0=1, select bank3
  7512  0CD7  1703               	bsf	3,6	;RP1=1, select bank3
  7513  0CD8  1788               	bsf	8,7	;volatile
  7514  0CD9                     l2542:	
  7515                           
  7516                           ;ADC.c: 64:             ADCON0bits.CHS = 7;
  7517  0CD9  1283               	bcf	3,5	;RP0=0, select bank0
  7518  0CDA  1303               	bcf	3,6	;RP1=0, select bank0
  7519  0CDB  081F               	movf	31,w	;volatile
  7520  0CDC  39C3               	andlw	-61
  7521  0CDD  381C               	iorlw	28
  7522  0CDE  009F               	movwf	31	;volatile
  7523  0CDF                     l2544:	
  7524                           
  7525                           ;ADC.c: 65:             TRISEbits.TRISE2 = 1;
  7526  0CDF  1683               	bsf	3,5	;RP0=1, select bank1
  7527  0CE0  1303               	bcf	3,6	;RP1=0, select bank1
  7528  0CE1  1509               	bsf	9,2	;volatile
  7529                           
  7530                           ;ADC.c: 66:             break;
  7531  0CE2  2D69               	goto	l2576
  7532  0CE3                     l108:	
  7533                           ;ADC.c: 68:         case 8:
  7534                           
  7535                           
  7536                           ;ADC.c: 69:             ANSELHbits.ANS8 = 1;
  7537  0CE3  1683               	bsf	3,5	;RP0=1, select bank3
  7538  0CE4  1703               	bsf	3,6	;RP1=1, select bank3
  7539  0CE5  1409               	bsf	9,0	;volatile
  7540  0CE6                     l2546:	
  7541                           
  7542                           ;ADC.c: 70:             ADCON0bits.CHS = 8;
  7543  0CE6  1283               	bcf	3,5	;RP0=0, select bank0
  7544  0CE7  1303               	bcf	3,6	;RP1=0, select bank0
  7545  0CE8  081F               	movf	31,w	;volatile
  7546  0CE9  39C3               	andlw	-61
  7547  0CEA  3820               	iorlw	32
  7548  0CEB  009F               	movwf	31	;volatile
  7549  0CEC                     l2548:	
  7550                           
  7551                           ;ADC.c: 71:             TRISBbits.TRISB2 = 1;
  7552  0CEC  1683               	bsf	3,5	;RP0=1, select bank1
  7553  0CED  1303               	bcf	3,6	;RP1=0, select bank1
  7554  0CEE  1506               	bsf	6,2	;volatile
  7555                           
  7556                           ;ADC.c: 72:             break;
  7557  0CEF  2D69               	goto	l2576
  7558  0CF0                     l109:	
  7559                           ;ADC.c: 74:         case 9:
  7560                           
  7561                           
  7562                           ;ADC.c: 75:             ANSELHbits.ANS9 = 1;
  7563  0CF0  1683               	bsf	3,5	;RP0=1, select bank3
  7564  0CF1  1703               	bsf	3,6	;RP1=1, select bank3
  7565  0CF2  1489               	bsf	9,1	;volatile
  7566  0CF3                     l2550:	
  7567                           
  7568                           ;ADC.c: 76:             ADCON0bits.CHS = 9;
  7569  0CF3  1283               	bcf	3,5	;RP0=0, select bank0
  7570  0CF4  1303               	bcf	3,6	;RP1=0, select bank0
  7571  0CF5  081F               	movf	31,w	;volatile
  7572  0CF6  39C3               	andlw	-61
  7573  0CF7  3824               	iorlw	36
  7574  0CF8  009F               	movwf	31	;volatile
  7575  0CF9                     l2552:	
  7576                           
  7577                           ;ADC.c: 77:             TRISBbits.TRISB3 = 1;
  7578  0CF9  1683               	bsf	3,5	;RP0=1, select bank1
  7579  0CFA  1303               	bcf	3,6	;RP1=0, select bank1
  7580  0CFB  1586               	bsf	6,3	;volatile
  7581                           
  7582                           ;ADC.c: 78:             break;
  7583  0CFC  2D69               	goto	l2576
  7584  0CFD                     l110:	
  7585                           ;ADC.c: 80:         case 10:
  7586                           
  7587                           
  7588                           ;ADC.c: 81:             ANSELHbits.ANS10 = 1;
  7589  0CFD  1683               	bsf	3,5	;RP0=1, select bank3
  7590  0CFE  1703               	bsf	3,6	;RP1=1, select bank3
  7591  0CFF  1509               	bsf	9,2	;volatile
  7592  0D00                     l2554:	
  7593                           
  7594                           ;ADC.c: 82:             ADCON0bits.CHS = 10;
  7595  0D00  1283               	bcf	3,5	;RP0=0, select bank0
  7596  0D01  1303               	bcf	3,6	;RP1=0, select bank0
  7597  0D02  081F               	movf	31,w	;volatile
  7598  0D03  39C3               	andlw	-61
  7599  0D04  3828               	iorlw	40
  7600  0D05  009F               	movwf	31	;volatile
  7601  0D06                     l2556:	
  7602                           
  7603                           ;ADC.c: 83:             TRISBbits.TRISB1 = 1;
  7604  0D06  1683               	bsf	3,5	;RP0=1, select bank1
  7605  0D07  1303               	bcf	3,6	;RP1=0, select bank1
  7606  0D08  1486               	bsf	6,1	;volatile
  7607                           
  7608                           ;ADC.c: 84:             break;
  7609  0D09  2D69               	goto	l2576
  7610  0D0A                     l111:	
  7611                           ;ADC.c: 86:         case 11:
  7612                           
  7613                           
  7614                           ;ADC.c: 87:             ANSELHbits.ANS11 = 1;
  7615  0D0A  1683               	bsf	3,5	;RP0=1, select bank3
  7616  0D0B  1703               	bsf	3,6	;RP1=1, select bank3
  7617  0D0C  1589               	bsf	9,3	;volatile
  7618  0D0D                     l2558:	
  7619                           
  7620                           ;ADC.c: 88:             ADCON0bits.CHS = 11;
  7621  0D0D  1283               	bcf	3,5	;RP0=0, select bank0
  7622  0D0E  1303               	bcf	3,6	;RP1=0, select bank0
  7623  0D0F  081F               	movf	31,w	;volatile
  7624  0D10  39C3               	andlw	-61
  7625  0D11  382C               	iorlw	44
  7626  0D12  009F               	movwf	31	;volatile
  7627  0D13                     l2560:	
  7628                           
  7629                           ;ADC.c: 89:             TRISBbits.TRISB4 = 1;
  7630  0D13  1683               	bsf	3,5	;RP0=1, select bank1
  7631  0D14  1303               	bcf	3,6	;RP1=0, select bank1
  7632  0D15  1606               	bsf	6,4	;volatile
  7633                           
  7634                           ;ADC.c: 90:             break;
  7635  0D16  2D69               	goto	l2576
  7636  0D17                     l112:	
  7637                           ;ADC.c: 92:         case 12:
  7638                           
  7639                           
  7640                           ;ADC.c: 93:             ANSELHbits.ANS12 = 1;
  7641  0D17  1683               	bsf	3,5	;RP0=1, select bank3
  7642  0D18  1703               	bsf	3,6	;RP1=1, select bank3
  7643  0D19  1609               	bsf	9,4	;volatile
  7644  0D1A                     l2562:	
  7645                           
  7646                           ;ADC.c: 94:             ADCON0bits.CHS = 12;
  7647  0D1A  1283               	bcf	3,5	;RP0=0, select bank0
  7648  0D1B  1303               	bcf	3,6	;RP1=0, select bank0
  7649  0D1C  081F               	movf	31,w	;volatile
  7650  0D1D  39C3               	andlw	-61
  7651  0D1E  3830               	iorlw	48
  7652  0D1F  009F               	movwf	31	;volatile
  7653  0D20                     l2564:	
  7654                           
  7655                           ;ADC.c: 95:             TRISBbits.TRISB0 = 1;
  7656  0D20  1683               	bsf	3,5	;RP0=1, select bank1
  7657  0D21  1303               	bcf	3,6	;RP1=0, select bank1
  7658  0D22  1406               	bsf	6,0	;volatile
  7659                           
  7660                           ;ADC.c: 96:             break;
  7661  0D23  2D69               	goto	l2576
  7662  0D24                     l113:	
  7663                           ;ADC.c: 98:         case 13:
  7664                           
  7665                           
  7666                           ;ADC.c: 99:             ANSELHbits.ANS13 = 1;
  7667  0D24  1683               	bsf	3,5	;RP0=1, select bank3
  7668  0D25  1703               	bsf	3,6	;RP1=1, select bank3
  7669  0D26  1689               	bsf	9,5	;volatile
  7670  0D27                     l2566:	
  7671                           
  7672                           ;ADC.c: 100:             ADCON0bits.CHS = 13;
  7673  0D27  1283               	bcf	3,5	;RP0=0, select bank0
  7674  0D28  1303               	bcf	3,6	;RP1=0, select bank0
  7675  0D29  081F               	movf	31,w	;volatile
  7676  0D2A  39C3               	andlw	-61
  7677  0D2B  3834               	iorlw	52
  7678  0D2C  009F               	movwf	31	;volatile
  7679  0D2D                     l2568:	
  7680                           
  7681                           ;ADC.c: 101:             TRISBbits.TRISB5 = 1;
  7682  0D2D  1683               	bsf	3,5	;RP0=1, select bank1
  7683  0D2E  1303               	bcf	3,6	;RP1=0, select bank1
  7684  0D2F  1686               	bsf	6,5	;volatile
  7685                           
  7686                           ;ADC.c: 102:             break;
  7687  0D30  2D69               	goto	l2576
  7688  0D31                     l2572:	
  7689  0D31  0873               	movf	ADC_CONFIG@canal,w
  7690  0D32  00F1               	movwf	??_ADC_CONFIG
  7691  0D33  01F2               	clrf	??_ADC_CONFIG+1
  7692                           
  7693                           ; Switch on 2 bytes has been partitioned into a top level switch of size 1, and 1 sub-sw
      +                          itches
  7694                           ; Switch size 1, requested type "simple"
  7695                           ; Number of cases is 1, Range of values is 0 to 0
  7696                           ; switch strategies available:
  7697                           ; Name         Instructions Cycles
  7698                           ; simple_byte            4     3 (average)
  7699                           ; direct_byte           11     8 (fixed)
  7700                           ; jumptable            260     6 (fixed)
  7701                           ;	Chosen strategy is simple_byte
  7702  0D34  0872               	movf	??_ADC_CONFIG+1,w
  7703  0D35  3A00               	xorlw	0	; case 0
  7704  0D36  1903               	skipnz
  7705  0D37  2D39               	goto	l2964
  7706  0D38  2D69               	goto	l2576
  7707  0D39                     l2964:	
  7708                           
  7709                           ; Switch size 1, requested type "simple"
  7710                           ; Number of cases is 14, Range of values is 0 to 13
  7711                           ; switch strategies available:
  7712                           ; Name         Instructions Cycles
  7713                           ; simple_byte           43    22 (average)
  7714                           ; direct_byte           50     8 (fixed)
  7715                           ; jumptable            260     6 (fixed)
  7716                           ;	Chosen strategy is simple_byte
  7717  0D39  0871               	movf	??_ADC_CONFIG,w
  7718  0D3A  3A00               	xorlw	0	; case 0
  7719  0D3B  1903               	skipnz
  7720  0D3C  2C7D               	goto	l99
  7721  0D3D  3A01               	xorlw	1	; case 1
  7722  0D3E  1903               	skipnz
  7723  0D3F  2C88               	goto	l101
  7724  0D40  3A03               	xorlw	3	; case 2
  7725  0D41  1903               	skipnz
  7726  0D42  2C95               	goto	l102
  7727  0D43  3A01               	xorlw	1	; case 3
  7728  0D44  1903               	skipnz
  7729  0D45  2CA2               	goto	l103
  7730  0D46  3A07               	xorlw	7	; case 4
  7731  0D47  1903               	skipnz
  7732  0D48  2CAF               	goto	l104
  7733  0D49  3A01               	xorlw	1	; case 5
  7734  0D4A  1903               	skipnz
  7735  0D4B  2CBC               	goto	l105
  7736  0D4C  3A03               	xorlw	3	; case 6
  7737  0D4D  1903               	skipnz
  7738  0D4E  2CC9               	goto	l106
  7739  0D4F  3A01               	xorlw	1	; case 7
  7740  0D50  1903               	skipnz
  7741  0D51  2CD6               	goto	l107
  7742  0D52  3A0F               	xorlw	15	; case 8
  7743  0D53  1903               	skipnz
  7744  0D54  2CE3               	goto	l108
  7745  0D55  3A01               	xorlw	1	; case 9
  7746  0D56  1903               	skipnz
  7747  0D57  2CF0               	goto	l109
  7748  0D58  3A03               	xorlw	3	; case 10
  7749  0D59  1903               	skipnz
  7750  0D5A  2CFD               	goto	l110
  7751  0D5B  3A01               	xorlw	1	; case 11
  7752  0D5C  1903               	skipnz
  7753  0D5D  2D0A               	goto	l111
  7754  0D5E  3A07               	xorlw	7	; case 12
  7755  0D5F  1903               	skipnz
  7756  0D60  2D17               	goto	l112
  7757  0D61  3A01               	xorlw	1	; case 13
  7758  0D62  1903               	skipnz
  7759  0D63  2D24               	goto	l113
  7760  0D64  2D69               	goto	l2576
  7761  0D65                     l115:	
  7762                           ;ADC.c: 105:         case 0:
  7763                           
  7764                           
  7765                           ;ADC.c: 106:             ADCON1bits.ADFM = 0;
  7766  0D65  139F               	bcf	31,7	;volatile
  7767                           
  7768                           ;ADC.c: 107:             break;
  7769  0D66  2D79               	goto	l118
  7770  0D67                     l117:	
  7771                           ;ADC.c: 108:         case 1:
  7772                           
  7773                           
  7774                           ;ADC.c: 109:             ADCON1bits.ADFM = 1;
  7775  0D67  179F               	bsf	31,7	;volatile
  7776                           
  7777                           ;ADC.c: 110:             break;
  7778  0D68  2D79               	goto	l118
  7779  0D69                     l2576:	
  7780  0D69  0870               	movf	ADC_CONFIG@justif,w
  7781  0D6A  00F1               	movwf	??_ADC_CONFIG
  7782  0D6B  01F2               	clrf	??_ADC_CONFIG+1
  7783                           
  7784                           ; Switch on 2 bytes has been partitioned into a top level switch of size 1, and 1 sub-sw
      +                          itches
  7785                           ; Switch size 1, requested type "simple"
  7786                           ; Number of cases is 1, Range of values is 0 to 0
  7787                           ; switch strategies available:
  7788                           ; Name         Instructions Cycles
  7789                           ; simple_byte            4     3 (average)
  7790                           ; direct_byte           11     8 (fixed)
  7791                           ; jumptable            260     6 (fixed)
  7792                           ;	Chosen strategy is simple_byte
  7793  0D6C  0872               	movf	??_ADC_CONFIG+1,w
  7794  0D6D  3A00               	xorlw	0	; case 0
  7795  0D6E  1903               	skipnz
  7796  0D6F  2D71               	goto	l2966
  7797  0D70  2D79               	goto	l118
  7798  0D71                     l2966:	
  7799                           
  7800                           ; Switch size 1, requested type "simple"
  7801                           ; Number of cases is 2, Range of values is 0 to 1
  7802                           ; switch strategies available:
  7803                           ; Name         Instructions Cycles
  7804                           ; simple_byte            7     4 (average)
  7805                           ; direct_byte           14     8 (fixed)
  7806                           ; jumptable            260     6 (fixed)
  7807                           ;	Chosen strategy is simple_byte
  7808  0D71  0871               	movf	??_ADC_CONFIG,w
  7809  0D72  3A00               	xorlw	0	; case 0
  7810  0D73  1903               	skipnz
  7811  0D74  2D65               	goto	l115
  7812  0D75  3A01               	xorlw	1	; case 1
  7813  0D76  1903               	skipnz
  7814  0D77  2D67               	goto	l117
  7815  0D78  2D79               	goto	l118
  7816  0D79                     l118:	
  7817  0D79  0008               	return
  7818  0D7A                     __end_of_ADC_CONFIG:	
  7819  007E                     btemp	set	126	;btemp
  7820  007E                     wtemp0	set	126


Data Sizes:
    Strings     12
    Constant    0
    Data        0
    BSS         22
    Persistent  0
    Stack       0

Auto Spaces:
    Space          Size  Autos    Used
    COMMON           14     14      14
    BANK0            80     75      77
    BANK1            80     10      30
    BANK3            96      0       0
    BANK2            96      0       0

Pointer List with Targets:

    Lcd_Write_String@a	PTR unsigned char  size(2) Largest target is 5
		 -> STR_3(CODE[4]), STR_2(CODE[4]), STR_1(CODE[4]), main@s2(BANK1[5]), 
		 -> main@s1(BANK1[5]), 


Critical Paths under _main in COMMON

    _main->___xxtofl
    _int_stre->___xxtofl
    _int_strd->___xxtofl
    _int_strc->___xxtofl
    ___fltol->___xxtofl
    ___flsub->___xxtofl
    ___flmul->___xxtofl
    ___fldiv->___xxtofl
    _UART_Init->___aldiv
    _Lcd_Write_String->_Lcd_Write_Char
    _Lcd_Write_Char->_Lcd_Port
    _Lcd_Set_Cursor->_Lcd_Cmd
    _Lcd_Init->_Lcd_Cmd
    _Lcd_Cmd->_Lcd_Port

Critical Paths under _main in BANK0

    _main->_int_strc
    _int_stre->___fltol
    _int_strd->___fltol
    _int_strc->___fltol
    ___fltol->___flmul
    ___flsub->___fladd
    ___flmul->___flsub
    _UART_Init->___aldiv

Critical Paths under _main in BANK1

    None.

Critical Paths under _main in BANK3

    None.

Critical Paths under _main in BANK2

    None.

Call Graph Tables:

 ---------------------------------------------------------------------------------
 (Depth) Function   	        Calls       Base Space   Used Autos Params    Refs
 ---------------------------------------------------------------------------------
 (0) _main                                                16    16      0   29509
                                             71 BANK0      4     4      0
                                              0 BANK1     10    10      0
                         _ADC_CONFIG
                           _Lcd_Init
                     _Lcd_Set_Cursor
                   _Lcd_Write_String
                          _UART_Init
                         _UART_Write
                            ___fldiv
                            ___fltol
                           ___xxtofl
                           _int_strc
                           _int_strd
                           _int_stre
 ---------------------------------------------------------------------------------
 (1) _int_stre                                            16    12      4    7977
                                             53 BANK0     16    12      4
                             ___bmul
                            ___flmul
                            ___flsub
                            ___fltol
                           ___xxtofl
                           _num_case
 ---------------------------------------------------------------------------------
 (1) _int_strd                                            16    12      4    7977
                                             53 BANK0     16    12      4
                             ___bmul
                            ___flmul
                            ___flsub
                            ___fltol
                           ___xxtofl
                           _num_case
 ---------------------------------------------------------------------------------
 (2) ___bmul                                               4     3      1     244
                                              0 COMMON     4     3      1
 ---------------------------------------------------------------------------------
 (1) _int_strc                                            18    14      4    7733
                                             53 BANK0     18    14      4
                            ___flmul
                            ___flsub
                            ___fltol
                           ___xxtofl
                           _num_case
 ---------------------------------------------------------------------------------
 (2) _num_case                                             4     4      0      54
                                              0 COMMON     4     4      0
 ---------------------------------------------------------------------------------
 (2) ___xxtofl                                            14    10      4     778
                                              0 COMMON    14    10      4
 ---------------------------------------------------------------------------------
 (2) ___fltol                                             11     7      4     837
                                             42 BANK0     11     7      4
                            ___flmul (ARG)
                            ___flsub (ARG)
                           ___xxtofl (ARG)
 ---------------------------------------------------------------------------------
 (2) ___flsub                                              8     0      8    2789
                                              8 BANK0      8     0      8
                            ___fladd
                           ___xxtofl (ARG)
 ---------------------------------------------------------------------------------
 (3) ___fladd                                             20    12      8    2136
                                              0 COMMON    12     4      8
                                              0 BANK0      8     8      0
 ---------------------------------------------------------------------------------
 (2) ___flmul                                             26    18      8    2873
                                             16 BANK0     26    18      8
                          __Umul8_16
                            ___flsub (ARG)
                           ___xxtofl (ARG)
 ---------------------------------------------------------------------------------
 (3) __Umul8_16                                            9     7      2     799
                                              0 COMMON     9     7      2
 ---------------------------------------------------------------------------------
 (1) ___fldiv                                             26    18      8    1425
                                              0 BANK0     26    18      8
                           ___xxtofl (ARG)
 ---------------------------------------------------------------------------------
 (1) _UART_Write                                           3     3      0      22
                                              0 COMMON     3     3      0
 ---------------------------------------------------------------------------------
 (1) _UART_Init                                           18    14      4     836
                                              9 COMMON     2     2      0
                                              6 BANK0     16    12      4
                            ___aldiv
 ---------------------------------------------------------------------------------
 (2) ___aldiv                                             15     7      8     604
                                              0 COMMON     9     1      8
                                              0 BANK0      6     6      0
 ---------------------------------------------------------------------------------
 (1) _Lcd_Write_String                                     7     5      2     668
                                              3 COMMON     7     5      2
                     _Lcd_Write_Char
 ---------------------------------------------------------------------------------
 (2) _Lcd_Write_Char                                       2     2      0     198
                                              1 COMMON     2     2      0
                           _Lcd_Port
 ---------------------------------------------------------------------------------
 (1) _Lcd_Set_Cursor                                       2     1      1     666
                                              4 COMMON     2     1      1
                            _Lcd_Cmd
 ---------------------------------------------------------------------------------
 (1) _Lcd_Init                                             2     2      0     198
                                              4 COMMON     2     2      0
                            _Lcd_Cmd
 ---------------------------------------------------------------------------------
 (2) _Lcd_Cmd                                              3     3      0     198
                                              1 COMMON     3     3      0
                           _Lcd_Port
 ---------------------------------------------------------------------------------
 (3) _Lcd_Port                                             1     1      0     176
                                              0 COMMON     1     1      0
 ---------------------------------------------------------------------------------
 (1) _ADC_CONFIG                                           4     3      1     196
                                              0 COMMON     4     3      1
 ---------------------------------------------------------------------------------
 Estimated maximum stack depth 3
 ---------------------------------------------------------------------------------

 Call Graph Graphs:

 _main (ROOT)
   _ADC_CONFIG
   _Lcd_Init
     _Lcd_Cmd
       _Lcd_Port
   _Lcd_Set_Cursor
     _Lcd_Cmd
       _Lcd_Port
   _Lcd_Write_String
     _Lcd_Write_Char
       _Lcd_Port
   _UART_Init
     ___aldiv
   _UART_Write
   ___fldiv
     ___xxtofl (ARG)
   ___fltol
     ___flmul (ARG)
       __Umul8_16
       ___flsub (ARG)
         ___fladd
         ___xxtofl (ARG)
       ___xxtofl (ARG)
     ___flsub (ARG)
       ___fladd
       ___xxtofl (ARG)
     ___xxtofl (ARG)
   ___xxtofl
   _int_strc
     ___flmul
       __Umul8_16
       ___flsub (ARG)
         ___fladd
         ___xxtofl (ARG)
       ___xxtofl (ARG)
     ___flsub
       ___fladd
       ___xxtofl (ARG)
     ___fltol
       ___flmul (ARG)
         __Umul8_16
         ___flsub (ARG)
           ___fladd
           ___xxtofl (ARG)
         ___xxtofl (ARG)
       ___flsub (ARG)
         ___fladd
         ___xxtofl (ARG)
       ___xxtofl (ARG)
     ___xxtofl
     _num_case
   _int_strd
     ___bmul
     ___flmul
       __Umul8_16
       ___flsub (ARG)
         ___fladd
         ___xxtofl (ARG)
       ___xxtofl (ARG)
     ___flsub
       ___fladd
       ___xxtofl (ARG)
     ___fltol
       ___flmul (ARG)
         __Umul8_16
         ___flsub (ARG)
           ___fladd
           ___xxtofl (ARG)
         ___xxtofl (ARG)
       ___flsub (ARG)
         ___fladd
         ___xxtofl (ARG)
       ___xxtofl (ARG)
     ___xxtofl
     _num_case
   _int_stre
     ___bmul
     ___flmul
       __Umul8_16
       ___flsub (ARG)
         ___fladd
         ___xxtofl (ARG)
       ___xxtofl (ARG)
     ___flsub
       ___fladd
       ___xxtofl (ARG)
     ___fltol
       ___flmul (ARG)
         __Umul8_16
         ___flsub (ARG)
           ___fladd
           ___xxtofl (ARG)
         ___xxtofl (ARG)
       ___flsub (ARG)
         ___fladd
         ___xxtofl (ARG)
       ___xxtofl (ARG)
     ___xxtofl
     _num_case

 Address spaces:
Name               Size   Autos  Total    Cost      Usage
BITCOMMON            E      0       0       0        0.0%
EEDATA             100      0       0       0        0.0%
NULL                 0      0       0       0        0.0%
CODE                 0      0       0       0        0.0%
COMMON               E      E       E       1      100.0%
BITSFR0              0      0       0       1        0.0%
SFR0                 0      0       0       1        0.0%
BITSFR1              0      0       0       2        0.0%
SFR1                 0      0       0       2        0.0%
STACK                0      0       0       2        0.0%
ABS                  0      0      79       3        0.0%
BITBANK0            50      0       0       4        0.0%
BITSFR3              0      0       0       4        0.0%
SFR3                 0      0       0       4        0.0%
BANK0               50     4B      4D       5       96.3%
BITSFR2              0      0       0       5        0.0%
SFR2                 0      0       0       5        0.0%
BITBANK1            50      0       0       6        0.0%
BANK1               50      A      1E       7       37.5%
BITBANK3            60      0       0       8        0.0%
BANK3               60      0       0       9        0.0%
BITBANK2            60      0       0      10        0.0%
BANK2               60      0       0      11        0.0%
DATA                 0      0      79      12        0.0%


Microchip Technology PIC Macro Assembler V2.10 build 88905656 
Symbol Table                                                                                   Sat Feb 08 19:38:42 2020

      __size_of_ADC_CONFIG 010B               ___fldiv@aexp 0039               ___fldiv@bexp 0038  
                        pc 0002               ___fldiv@sign 0031             ___bmul@product 0072  
              __CFG_CP$OFF 0000            ADC_CONFIG@canal 0073                         l30 167A  
                       l31 1680                         l32 1681                         l41 169D  
                       l33 1687                         l25 1669                         l34 1688  
                       l26 166C                         l35 168E                         l27 1672  
                       l36 168F                         l28 1673                         l44 1614  
                       l37 1695                         l29 1679                         l53 15F4  
                       l38 1696                         l39 169C                         l56 1725  
                       l65 16DF                         l59 15C3                         l99 0C7D  
                       fsr 0004        __Umul8_16@word_mpld 0076                        l101 0C88  
                      l110 0CFD                        l102 0C95                        l111 0D0A  
                      l103 0CA2                        l112 0D17                        l104 0CAF  
                      l113 0D24                        l105 0CBC                        l201 0C6E  
                      l106 0CC9                        l115 0D65                        l107 0CD6  
                      l108 0CE3                        l117 0D67                        l109 0CF0  
                      l118 0D79                        l216 1783                        l403 0824  
                      l243 0B80                        l413 08AC                        l246 15C5  
                      l184 0DC6                        l249 15D8                        l531 17EA  
                      l195 09EC                        l187 0E29                        l524 17FF  
                      l364 0018                        l534 17FF                        l198 094C  
                      l711 01E9                        l703 0167                        l631 0259  
                      l635 0302                        l652 03D3                        l644 048D  
                      l709 01D9                        l733 075A                        l637 02D7  
                      l662 041B                        l727 07EE                        l656 03F9  
                      l673 047F                        l665 045B                        l674 048D  
                      l739 07E2                        l771 0A54                        l677 1638  
                      l765 0A0F                        l687 0075                        l767 0AA6  
                      l784 164D                        l689 01F5                        l786 165F  
                      l778 0A70                        l779 0A7C                        _RA0 0028  
                      _RA1 0029                        _RA2 002A                        _RA3 002B  
                      _RA4 002C                        _RC0 0038                        _RA5 002D  
                      _RC1 0039                        _RA6 002E                        _RA7 002F  
             __CFG_CPD$OFF 0000                        fsr0 0004                        indf 0000  
         ADC_CONFIG@justif 0070               ___flmul@aexp 0042               ___flmul@bexp 0043  
             ___flmul@sign 003D               ___flmul@temp 0048               ___flmul@prod 0044  
             __CFG_LVP$OFF 0000               ___fltol@exp1 0054                       l2000 029B  
                     l2010 02DB                       l2002 029F                       l2100 0457  
                     l2020 02F8                       l2012 02E6                       l2004 02A3  
                     l2110 0473                       l2102 0460                       l2030 0314  
                     l2014 02E8                       l2022 02FC                       l2006 02A4  
                     l2120 163A                       l2112 0477                       l2104 0465  
                     l2040 0340                       l2032 032B                       l2024 0306  
                     l2016 02EC                       l2008 02BB                       l2200 0017  
                     l2210 0828                       l2130 165B                       l2122 163C  
                     l2114 0479                       l2106 046D                       l2050 036B  
                     l2042 0344                       l2034 032F                       l2026 030B  
                     l2018 02ED                       l2140 1602                       l2220 084A  
                     l2212 0833                       l2204 0810                       l2124 1643  
                     l2300 04B2                       l2116 0488                       l2108 0472  
                     l2060 03DB                       l2052 03AB                       l2044 0345  
                     l2036 0333                       l2142 160A                       l2134 15F6  
                     l2150 15B9                       l2230 0884                       l2222 0857  
                     l2214 0837                       l2206 0813                       l2126 1647  
                     l2310 04CB                       l2302 04B4                       l2118 048C  
                     l2070 03F8                       l2062 03E0                       l2054 03B1  
                     l2046 0350                       l2038 033E                       l2144 160D  
                     l2136 15F9                       l2152 15BC                       l2240 08A4  
                     l2232 0885                       l2224 085B                       l2216 083F  
                     l2208 0817                       l2128 1656                       l2400 0776  
                     l2320 04E0                       l2312 04CC                       l2304 04BC  
                     l2072 03FD                       l2080 0409                       l2056 03B6  
                     l2048 0355                       l2160 172D                       l2138 15FF  
                     l2154 15C0                       l2146 15B0                       l2234 088E  
                     l2226 0864                       l2218 0847                       l2410 07BC  
                     l2402 078F                       l2330 04FB                       l2322 04E8  
                     l2314 04D1                       l2306 04C1                       l2074 0400  
                     l2066 03E9                       l2058 03C5                       l2082 040D  
                     l2250 179A                       l2170 1746                       l2162 1732  
                     l2148 15B3                       l2500 16A1                       l2228 0876  
                     l2236 0894                       l2420 07DB                       l2412 07C6  
                     l2404 0795                       l2340 057D                       l2332 050B  
                     l2324 04ED                       l2316 04D6                       l2308 04C7  
                     l2092 0420                       l2084 040E                       l2076 0402  
                     l2068 03F4                       l2260 17BE                       l2252 17AF  
                     l2244 1784                       l2172 174B                       l2164 1737  
                     l2180 175A                       l2156 1727                       l2510 0C78  
                     l2502 16BD                       l2238 0899                       l2422 07E6  
                     l2414 07C8                       l2406 07A2                       l2350 05EB  
                     l2342 0599                       l2334 0518                       l2326 04F2  
                     l2318 04DE                       l2094 0425                       l2086 0412  
                     l2078 0407                       l2254 17B0                       l2246 1791  
                     l2430 09F7                       l2174 1750                       l2166 173C  
                     l2182 1782                       l2158 1728                       l2190 0005  
                     l2520 0C91                       l2512 0C7B                       l2504 16C3  
                     l2600 0B73                       l2416 07D6                       l2408 07AD  
                     l2360 067B                       l2352 05FB                       l2344 05B5  
                     l2336 0535                       l2096 0433                       l2088 0418  
                     l2280 1615                       l2256 17B8                       l2440 0A25  
                     l2432 0A07                       l2176 1755                       l2168 1741  
                     l2192 0006                       l2530 0CB2                       l2522 0C98  
                     l2514 0C80                       l2506 0C70                       l2602 0B76  
                     l2418 07DA                       l2370 070F                       l2362 068B  
                     l2354 0618                       l2346 05BE                       l2338 0551  
                     l2290 049B                       l2098 0437                       l2282 1619  
                     l2274 17DF                       l2266 17C6                       l2258 17BA  
                     l2450 0A5B                       l2442 0A32                       l2434 0A17  
                     l2426 09EE                       l2194 000A                       l2540 0CD2  
                     l2532 0CB8                       l2524 0C9E                       l2516 0C84  
                     l2508 0C74                       l2604 0B79                       l2700 0057  
                     l2380 0734                       l2372 071D                       l2364 06B8  
                     l2356 0631                       l2348 05CE                       l2292 049F  
                     l2276 17EF                       l2268 17D8                       l2460 0A94  
                     l2452 0A66                       l2444 0A39                       l2428 09F3  
                     l2196 000E                       l2620 09C7                       l2612 094D  
                     l2550 0CF3                       l2542 0CD9                       l2534 0CBF  
                     l2526 0CA5                       l2518 0C8B                       l1910 1665  
                     l2470 15DA                       l2606 0B7A                       l2710 006B  
                     l2702 0058                       l2390 0757                       l2374 0726  
                     l2382 073A                       l2366 06DE                       l2358 064E  
                     l2294 04A0                       l2286 048E                       l2278 17F4  
                     l2462 0A99                       l2454 0A6A                       l2446 0A3D  
                     l2438 0A20                       l2198 0010                       l2622 09CD  
                     l2614 0962                       l2560 0D13                       l2552 0CF9  
                     l2544 0CDF                       l2536 0CC5                       l2528 0CAB  
                     l1920 168C                       l1912 1670                       l2480 16E9  
                     l2472 15DF                       l2608 0B7D                       l2800 01CC  
                     l2704 005D                       l2712 006D                       l2384 073E  
                     l2376 072A                       l2368 0706                       l2296 04A5  
                     l2288 0495                       l2464 0A9D                       l2456 0A74  
                     l2448 0A4B                       l2640 0924                       l2632 08AD  
                     l2624 09DF                       l2616 096D                       l2562 0D1A  
                     l2554 0D00                       l2546 0CE6                       l2538 0CCC  
                     l1922 1693                       l1914 1677                       l2490 170D  
                     l2482 16EF                       l2474 15E7                       l2810 01E5  
                     l2802 01D0                       l2730 00B6                       l2714 007D  
                     l2722 0096                       l2706 0062                       l2394 075F  
                     l2386 073F                       l2378 072B                       l2298 04AA  
                     l1930 0203                       l2466 0A9E                       l2458 0A7E  
                     l2642 092F                       l2634 08C2                       l2626 09E3  
                     l2618 09C3                       l2564 0D20                       l2556 0D06  
                     l2548 0CEC                       l2572 0D31                       l1924 169A  
                     l1916 167E                       l1908 1661                       l2492 1713  
                     l2484 16FD                       l2476 15ED                       l2804 01D8  
                     l2740 00D5                       l2732 00BE                       l2724 009B  
                     l2716 0089                       l2708 006A                       l2396 0764  
                     l2388 0743                       l1940 021A                       l1932 0207  
                     l2660 0BFC                       l2652 0B81                       l2644 093F  
                     l2636 08C8                       l2628 09E9                       l2900 0FF4  
                     l2566 0D27                       l2558 0D0D                       l1918 1685  
                     l2494 1719                       l2486 1701                       l2478 16E0  
                     l2590 0B09                       l2670 15C5                       l2806 01DF  
                     l2750 0107                       l2742 00E7                       l2734 00C6  
                     l2718 008D                       l2398 0772                       l1950 0230  
                     l1942 021B                       l1934 0208                       l1926 01F6  
                     l2662 0C4F                       l2654 0B96                       l2646 0943  
                     l2638 0920                       l2830 0D96                       l2822 0D7A  
                     l2568 0D2D                       l2576 0D69                       l2496 171F  
                     l2488 1707                       l2592 0B62                       l2672 15CB  
                     l2808 01E3                       l2760 0128                       l2752 0108  
                     l2744 00EB                       l2736 00CE                       l2728 00A4  
                     l2680 002A                       l1960 0241                       l1952 0231  
                     l1936 020D                       l1944 021D                       l1928 01FD  
                     l2664 0C62                       l2656 0B9C                       l2648 0949  
                     l2840 0DC3                       l2832 0DA5                       l2824 0D83  
                     l2498 169E                       l2594 0B65                       l2586 0AA7  
                     l2770 0141                       l2762 012A                       l2754 0116  
                     l2746 00EC                       l2738 00D0                       l2690 003E  
                     l2682 002B                       l2674 0019                       l1970 025F  
                     l1962 0246                       l1954 0237                       l1946 0225  
                     l1938 0212                       l2666 0C6D                       l2658 0BE9  
                     l2850 0E1F                       l2842 0DCA                       l2834 0DAE  
                     l2826 0D8A                       l2596 0B6E                       l2588 0B00  
                     l2780 0164                       l2764 0133                       l2772 0147  
                     l2748 00F5                       l2756 011A                       l2684 0030  
                     l2692 0040                       l2676 0020                       l1980 0273  
                     l1972 0263                       l1964 024E                       l1956 023B  
                     l1948 022A                       l2860 0E7E                       l2852 0E26  
                     l2844 0DD0                       l2836 0DB6                       l2828 0D91  
                     l2598 0B72                       l2790 0183                       l2774 014B  
                     l2766 0137                       l2758 0120                       l2694 0048  
                     l2686 0035                       l2678 0026                       l1990 0287  
                     l1982 0277                       l1974 0267                       l1966 024F  
                     l1958 023C                       l2870 0EB2                       l2862 0E88  
                     l2854 0E2D                       l2846 0E18                       l2838 0DBC  
                     l2792 019C                       l2784 016C                       l2776 014C  
                     l2768 0138                       l2696 004D                       l2688 003D  
                     l1992 028B                       l1984 027B                       l1976 026B  
                     l1968 0251                       l2880 0F11                       l2872 0EBB  
                     l2864 0E91                       l2856 0E33                       l2848 0E1B  
                     l2786 0171                       l2794 01A2                       l2778 0150  
                     l2698 0053                       l1994 028F                       l1986 027F  
                     l1978 026F                       l2962 1762                       l2890 0F74  
                     l2882 0F33                       l2874 0EC3                       l2866 0E9D  
                     l2858 0E7B                       l2964 0D39                       l2796 01AF  
                     l2788 017F                       l1996 0293                       l1988 0283  
                     l2892 0F96                       l2884 0F3C                       l2876 0EE7  
                     l2868 0EA6                       l2966 0D71                       l2798 01BD  
                     l1998 0297                       l2894 0FB8                       l2886 0F48  
                     l2878 0EEF                       l2896 0FC1                       l2888 0F6C  
                     l2898 0FCF                       STR_1 1010                       STR_2 1014  
                     STR_3 1018                       _BRGH 04C2                       _CREN 00C4  
                     u2010 0302                       u2011 0301                       u2020 0306  
                     u2101 0384                       u2021 0305                       u2005 02F1  
                     u2110 0398                       u2102 0385                       u2030 030B  
                     u2111 0399                       u2103 038A                       u2031 030A  
                     u2200 0412                       u2120 03B6                       u2112 039E  
                     u2104 038B                       u3000 0A5A                       u2201 0411  
                     u2121 03B5                       u2113 039F                       u2105 0390  
                     u2041 031D                       u3001 0A59                       u2210 0418  
                     u2130 03DB                       u2106 0391                       u2050 032F  
                     u2042 0324                       u2211 0417                       u2131 03DA  
                     u2051 032E                       u2043 032B                       u3100 16AB  
                     u2300 0477                       u2220 041F                       u2140 03E0  
                     u2060 0333                       u3020 0A6A                       u2301 0476  
                     u2221 041E                       u2141 03DF                       u2061 0332  
                     u3021 0A69                       u3110 16CD                       u2310 048C  
                     u2230 0425                       u2070 0344                       u3030 0A70  
                     u2311 048B                       u2231 0424                       u2071 0343  
                     u3031 0A6F                       u3015 0A5F                       u3120 16DF  
                     u3200 0B6E                       u2320 1647                       u2240 0437  
                     u2160 03F8                       u3040 0A74                       u3121 16DE  
                     u3201 0B6D                       u2321 1646                       u2241 0436  
                     u2161 03F7                       u3041 0A73                       u2410 085B  
                     u3130 0AB7                       u3210 15CB                       u2250 0448  
                     u2170 03FD                       u2090 036B                       u3050 0A89  
                     u2411 085A                       u3211 15CA                       u2171 03FC  
                     u2155 03ED                       u2091 036A                       u3140 0AD0  
                     u3300 00D5                       u3220 002A                       u2340 165B  
                     u2260 0457                       u2180 0407                       u2500 17C5  
                     u3060 0A99                       u2405 084C                       u3301 00D4  
                     u3221 0029                       u2341 165A                       u2261 0456  
                     u2181 0406                       u2093 0367                       u2085 0349  
                     u2501 17C4                       u3061 0A98                       u2430 0876  
                     u3230 0030                       u2270 0460                       u2190 040D  
                     u3070 0A9D                       u2350 000A                       u2431 0875  
                     u3151 0AE2                       u3135 0AB2                       u3231 002F  
                     u2335 164E                       u2271 045F                       u2255 0443  
                     u2191 040C                       u3071 0A9C                       u3055 0A84  
                     u2351 0009                       u1800 1677                       u3080 15DF  
                     u3160 0B09                       u3152 0AE3                       u3240 0035  
                     u2600 04CB                       u2280 0465                       u2520 17D7  
                     u2360 0017                       u1801 1676                       u3081 15DE  
                     u2425 085D                       u3161 0B08                       u3153 0AE8  
                     u3145 0ACB                       u3241 0034                       u2601 04CA  
                     u2281 0464                       u2521 17D6                       u2361 0016  
                     u1810 167E                       u3090 15ED                       u2450 0894  
                     u2370 0817                       u3170 0B19                       u3154 0AE9  
                     u3410 014B                       u3330 00EB                       u3250 0057  
                     u2610 04D1                       u2290 0472                       u2530 17DE  
                     u1811 167D                       u3091 15EC                       u2451 0893  
                     u2435 0872                       u2371 0816                       u3155 0AEE  
                     u3411 014A                       u3331 00EA                       u3315 00D7  
                     u3251 0056                       u2611 04D0                       u2291 0471  
                     u2531 17DD                       u2515 17C7                       u1820 1685  
                     u2460 0899                       u2380 0828                       u3180 0B32  
                     u3156 0AEF                       u3500 01E3                       u3420 0150  
                     u3260 005D                       u2620 04D6                       u1900 023B  
                     u1821 1684                       u2461 0898                       u2445 0886  
                     u2381 0827                       u3501 01E2                       u3421 014F  
                     u3405 013A                       u3325 00E0                       u3261 005C  
                     u2701 05DD                       u2621 04D5                       u1901 023A  
                     u1830 168C                       u2390 0847                       u3430 0164  
                     u3350 0107                       u3270 0062                       u2702 05E4  
                     u2630 04ED                       u1910 0241                       u2550 17EF  
                     u2470 1791                       u3510 0DA9                       u1831 168B  
                     u2391 0846                       u3191 0B44                       u3175 0B14  
                     u3431 0163                       u3351 0106                       u3271 0061  
                     u2711 060A                       u2703 05EB                       u2631 04EC  
                     u1911 0240                       u2551 17EE                       u2471 1790  
                     u1840 1693                       u3192 0B45                       u3440 016B  
                     u3360 0120                       u3280 007D                       u2712 0611  
                     u2640 04F2                       u1920 0246                       u2560 17F4  
                     u2480 17A8                       u3520 0DB2                       u1841 1692  
                     u3193 0B4A                       u3185 0B2D                       u3441 016A  
                     u3361 011F                       u3345 00EE                       u3281 007C  
                     u2713 0618                       u2641 04F1                       u1921 0245  
                     u2561 17F3                       u2545 17E1                       u1850 169A  
                     u3194 0B4B                       u3450 0171                       u3370 0128  
                     u3290 009B                       u2570 049F                       u1930 025F  
                     u2490 17BE                       u3530 0DCA                       u1851 1699  
                     u3195 0B50                       u3451 0170                       u3371 0127  
                     u3355 0103                       u3291 009A                       u2731 0640  
                     u2651 0543                       u2571 049E                       u1931 025E  
                     u2491 17BD                       u3531 0DC9                       u1780 1665  
                     u3196 0B51                       u3460 0183                       u2900 0785  
                     u2820 072A                       u2732 0647                       u2652 054A  
                     u2580 04A5                       u1940 0263                       u1860 0207  
                     u3540 0E2D                       u1781 1664                       u3461 0182  
                     u2821 0729                       u2805 0708                       u2741 066D  
                     u2733 064E                       u2725 061A                       u2661 055F  
                     u2653 0551                       u2581 04A4                       u1941 0262  
                     u1861 0206                       u2485 17A3                       u3541 0E2C  
                     u1790 1670                       u3470 0192                       u3390 0137  
                     u2910 07A2                       u2742 0674                       u2662 0566  
                     u2590 04AA                       u1950 02BB                       u1870 020D  
                     u1791 166F                       u3607 16E4                       u3391 0136  
                     u2911 07A1                       u2815 071F                       u2751 069A  
                     u2743 067B                       u2671 058B                       u2663 056D  
                     u2591 04A9                       u1951 02BA                       u1871 020C  
                     u3480 01AF                       u2920 07BC                       u2840 073E  
                     u2760 06C4                       u2752 06A1                       u2672 0592  
                     u1960 02C4                       u1880 0212                       u3617 16F3  
                     u3481 01AE                       u3385 012C                       u2921 07BB  
                     u2905 0780                       u2841 073D                       u2753 06A8  
                     u2681 05A7                       u2673 0599                       u1961 02C2  
                     u1881 0211                       u3490 01CC                       u2930 07DA  
                     u2850 0743                       u2682 05AE                       u1970 02C5  
                     u1890 0230                       u3627 16FF                       u3491 01CB  
                     u3475 018D                       u2931 07D9                       u2915 079E  
                     u2851 0742                       u2835 072D                       u2771 06D0  
                     u2683 05B5                       u1955 02B7                       u1891 022F  
                     u2860 0757                       u2780 06EC                       u2772 06D7  
                     u1980 02DB                       u2940 09F3                       u3637 1606  
                     u3485 01AB                       u2925 07B8                       u2861 0756  
                     u2773 06DE                       u2765 06BF                       u1981 02DA  
                     u2941 09F2                       u3557 0DC0                       u2870 075E  
                     u1990 02EC                       u2950 09F7                       u3647 160F  
                     u3495 01C8                       u2871 075D                       u2791 06F8  
                     u2695 05B7                       u1991 02EB                       u2951 09F6  
                     u3567 0E23                       u2880 0764                       u2792 06FF  
                     u2960 0A17                       u2881 0763                       u2793 0706  
                     u2785 06E7                       u2961 0A16                       u3577 0FC9  
                     u2890 0776                       u3587 15D3                       u2891 0775  
                     u2980 0A38                       u3597 15BE                       u2981 0A37  
                     u2975 0A2A                       u2995 0A4C                       _SPEN 00C7  
                     _TRMT 04C1                       _TXEN 04C5                       _SYNC 04C4  
             __CFG_WRT$OFF 0000                       _adc1 00B3                       _adc2 00B2  
        ?_Lcd_Write_String 0073                       _main 0D7A                       _ctrl 006C  
                     btemp 007E                       start 0000         ??_Lcd_Write_String 0075  
            __CFG_IESO$OFF 0000            ___fldiv@new_exp 0032            __end_of_Lcd_Cmd 1615  
        ___bmul@multiplier 0073              ___fltol@sign1 0053            __end_of___aldiv 08AD  
          __end_of___fladd 048E                      ?_main 0070            __end_of___fldiv 01F6  
            __CFG_WDTE$OFF 0000            __end_of___flmul 07EF            __end_of___flsub 1639  
          __end_of___fltol 1800                      _ANSEL 0188                      _SPBRG 0099  
  __size_of_Lcd_Set_Cursor 001C                      _TRISA 0085                      _TRISB 0086  
                    _TRISC 0087                      _TXREG 0019             __CFG_FCMEN$OFF 0000  
                    _adc11 00AE                      _adc22 00AA                ?_UART_Write 0070  
       __size_of_UART_Init 00DA                      _ctrl2 006B             __CFG_BOREN$OFF 0000  
                    pclath 000A                      status 0003                      wtemp0 007E  
         __end_of_Lcd_Init 1726           __end_of_Lcd_Port 169E             __CFG_MCLRE$OFF 0000  
          __initialization 07EF               __end_of_main 1000                     ??_main 0067  
             ??_ADC_CONFIG 0071                     _ADRESH 001E                     _ADRESL 009E  
                   _ANSELH 0189                  ??_Lcd_Cmd 0071    __size_of_Lcd_Write_Char 0015  
                   _TRISC6 043E                     _TRISC7 043F           __end_of___xxtofl 0AA7  
           __CFG_PWRTE$OFF 0000          __end_of_UART_Init 0B81                     ___bmul 0004  
      __size_of_UART_Write 0015                  ??___aldiv 0078                  ??___fladd 0020  
       __end_of_ADC_CONFIG 0D7A                  ??___fldiv 0028                  ??___flmul 0038  
                ??___flsub 007E                  ??___fltol 004E           __end_of_int_strc 0C6F  
         __end_of_int_strd 094D           __end_of_int_stre 09ED                     main@s1 00B4  
                   main@s2 00B9           __end_of_num_case 1784         __size_of__Umul8_16 0027  
          Lcd_Set_Cursor@a 0075            Lcd_Set_Cursor@b 0074               ___xxtofl@arg 007A  
             ___xxtofl@exp 0079               ___xxtofl@val 0070    __end_of__initialization 07FC  
               ___fltol@f1 004A        ___bmul@multiplicand 0070             __pcstackCOMMON 0070  
           _Lcd_Set_Cursor 15D9                  ?_Lcd_Init 0070                  ?_Lcd_Port 0070  
               __pbssBANK0 006B                 __pbssBANK1 00A0          __end_of__Umul8_16 1660  
               __pmaintext 0D7A                    ?___bmul 0070  __size_of_Lcd_Write_String 0042  
   __end_of_Lcd_Set_Cursor 15F5                  ?___xxtofl 0070               ??_UART_Write 0070  
               ??_Lcd_Init 0074                 ??_Lcd_Port 0070                 __stringtab 1000  
           _Lcd_Write_Char 15AF                    _Lcd_Cmd 15F5                  ?_int_strc 0055  
                ?_int_strd 0055                  ?_int_stre 0055                  ?_num_case 0070  
                  ___aldiv 0810            __size_of___bmul 0015                    ___fladd 01F6  
                  ___fldiv 0019                    ___flmul 048E                    ___flsub 1615  
                  ___fltol 1784         __end_of_UART_Write 15D9                  _ANSELbits 0188  
          ?_Lcd_Set_Cursor 0074                    __ptext1 094D                    __ptext2 08AD  
                  __ptext3 0004                    __ptext4 0B81                    __ptext5 1726  
                  __ptext6 09ED                    __ptext7 1784                    __ptext8 1615  
                  __ptext9 01F6                 ??___xxtofl 0074           ___aldiv@dividend 0074  
                  clrloop0 0809     __end_of_Lcd_Write_Char 15C4       end_of_initialization 07FC  
              num_case@num 0072                 ??_int_strc 0059                 ??_int_strd 0059  
               ??_int_stre 0059                 ??_num_case 0070           ___aldiv@quotient 0022  
                Lcd_Port@a 0070                  _UART_Init 0AA7             UART_Write@data 0072  
              ___fladd@grs 007B              ___xxtofl@sign 0078                  _TRISAbits 0085  
                _TRISBbits 0086                  _TRISEbits 0089                ___fldiv@grs 0034  
              ___fldiv@rem 002D            ?_Lcd_Write_Char 0070          Lcd_Write_String@a 0073  
        Lcd_Write_String@i 0078                ___flmul@grs 003E             __end_of___bmul 0019  
         _Lcd_Write_String 169E                 ?_UART_Init 0026               int_strc@loca 0063  
             int_strd@loca 0064               int_stre@loca 0064        start_initialization 07EF  
        __size_of_Lcd_Init 0046          __size_of_Lcd_Port 003E   __CFG_FOSC$INTRC_NOCLKOUT 0000  
                 ??___bmul 0071                  __Umul8_16 1639            Lcd_Write_Char@a 0072  
                ___fladd@a 0074                  ___fladd@b 0070                  ___fldiv@a 0020  
                ___fldiv@b 0024                  ___flmul@a 0034                  ___flmul@b 0030  
                ___flsub@a 0028                  ___flsub@b 002C                  ___latbits 0002  
            __pcstackBANK0 0020              __pcstackBANK1 00B4                 int_strc@c3 0060  
               int_strd@c2 0061                 int_stre@c1 0061          __size_of___xxtofl 00BA  
                 ?_Lcd_Cmd 0070          __size_of_int_strc 00EE          __size_of_int_strd 00A0  
        __size_of_int_stre 00A0           ??_Lcd_Set_Cursor 0075                   ?___aldiv 0070  
                 ?___fladd 0070                   ?___fldiv 0020                   ?___flmul 0030  
                 ?___flsub 0028                   ?___fltol 004A                 ?__Umul8_16 0070  
        __size_of_num_case 005E                ??_UART_Init 002A                  __pstrings 1000  
               UART_Init@x 0079            ___aldiv@divisor 0070            ___aldiv@counter 0020  
                clear_ram0 0808                   _PIE1bits 008C                   Lcd_Cmd@a 0073  
                 _PIR1bits 000C                  main@F1514 00A5                  main@F1516 00A0  
        UART_Init@baudrate 0026                 _ADCON0bits 001F                __stringbase 100F  
               _ADCON1bits 009F           ??_Lcd_Write_Char 0071                 _ADC_CONFIG 0C6F  
                 _Lcd_Init 16E0                   _Lcd_Port 1660   __end_of_Lcd_Write_String 16E0  
         __size_of_Lcd_Cmd 0020                ??__Umul8_16 0072           __size_of___aldiv 009D  
         __size_of___fladd 0298           __size_of___fldiv 01DD           __size_of___flmul 0361  
         __size_of___flsub 0024           __size_of___fltol 007C         __end_of__stringtab 1010  
                int_strc@c 005F                  int_strc@d 0062                  int_strc@e 0061  
                int_strd@c 0060                  int_strd@d 0063                  int_strd@e 0062  
                int_stre@c 0060                  int_stre@d 0063                  int_stre@e 0062  
                int_strc@n 0055                  int_strd@n 0055                  int_stre@n 0055  
               _ANSELHbits 0189                   ___xxtofl 09ED                   __ptext10 048E  
                 __ptext11 1639                   __ptext20 15F5                   __ptext12 0019  
                 __ptext21 1660                   __ptext13 15C4                   __ptext22 0C6F  
                 __ptext14 0AA7                   __ptext15 0810                   __ptext16 169E  
                 __ptext17 15AF                   __ptext18 15D9                   __ptext19 16E0  
        __CFG_BOR4V$BOR40V 0000              __size_of_main 0286                   _int_strc 0B81  
                 _int_strd 08AD                   _int_stre 094D                  num_case@r 0073  
                 _num_case 1726                 _INTCONbits 000B                ?_ADC_CONFIG 0070  
                stringcode 100A     __Umul8_16@multiplicand 0070                   stringdir 100A  
                 stringtab 1000               ___aldiv@sign 0021                 _UART_Write 15C4  
            ___fladd@signs 0078               ___fladd@aexp 0079               ___fladd@bexp 007A  
     __Umul8_16@multiplier 0078          __Umul8_16@product 0074  
