

Microchip MPLAB XC8 Assembler V2.10 build 88905656 
                                                                                               Sat Feb 08 12:40:28 2020

Microchip MPLAB XC8 C Compiler v2.10 (Free license) build 20190730164152 Og1 
     1                           	processor	16F887
     2                           	opt	pw 120
     3                           	opt	flic
     4                           	psect	strings,global,class=STRING,delta=2
     5                           	psect	cinit,global,class=CODE,merge=1,delta=2
     6                           	psect	bssBANK0,global,class=BANK0,space=1,delta=1
     7                           	psect	bssBANK1,global,class=BANK1,space=1,delta=1
     8                           	psect	clrtext,global,class=CODE,delta=2
     9                           	psect	cstackBANK1,global,class=BANK1,space=1,delta=1
    10                           	psect	cstackCOMMON,global,class=COMMON,space=1,delta=1
    11                           	psect	cstackBANK0,global,class=BANK0,space=1,delta=1
    12                           	psect	maintext,global,class=CODE,split=1,delta=2
    13                           	psect	text1,local,class=CODE,merge=1,delta=2
    14                           	psect	text2,local,class=CODE,merge=1,delta=2
    15                           	psect	text3,local,class=CODE,merge=1,delta=2,group=1
    16                           	psect	text4,local,class=CODE,merge=1,delta=2
    17                           	psect	text5,local,class=CODE,merge=1,delta=2
    18                           	psect	text6,local,class=CODE,merge=1,delta=2,group=1
    19                           	psect	text7,local,class=CODE,merge=1,delta=2,group=1
    20                           	psect	text8,local,class=CODE,merge=1,delta=2,group=1
    21                           	psect	text9,local,class=CODE,merge=1,delta=2,group=1
    22                           	psect	text10,local,class=CODE,merge=1,delta=2,group=1
    23                           	psect	text11,local,class=CODE,merge=1,delta=2,group=1
    24                           	psect	text12,local,class=CODE,merge=1,delta=2,group=1
    25                           	psect	text13,local,class=CODE,merge=1,delta=2
    26                           	psect	text14,local,class=CODE,merge=1,delta=2
    27                           	psect	text15,local,class=CODE,merge=1,delta=2
    28                           	psect	text16,local,class=CODE,merge=1,delta=2
    29                           	psect	text17,local,class=CODE,merge=1,delta=2
    30                           	psect	text18,local,class=CODE,merge=1,delta=2
    31                           	psect	text19,local,class=CODE,merge=1,delta=2
    32                           	dabs	1,0x7E,2
    33  0000                     
    34                           ; Version 2.10
    35                           ; Generated 31/07/2019 GMT
    36                           ; 
    37                           ; Copyright © 2019, Microchip Technology Inc. and its subsidiaries ("Microchip")
    38                           ; All rights reserved.
    39                           ; 
    40                           ; This software is developed by Microchip Technology Inc. and its subsidiaries ("Microch
      +                          ip").
    41                           ; 
    42                           ; Redistribution and use in source and binary forms, with or without modification, are
    43                           ; permitted provided that the following conditions are met:
    44                           ; 
    45                           ;     1. Redistributions of source code must retain the above copyright notice, this lis
      +                          t of
    46                           ;        conditions and the following disclaimer.
    47                           ; 
    48                           ;     2. Redistributions in binary form must reproduce the above copyright notice, this 
      +                          list
    49                           ;        of conditions and the following disclaimer in the documentation and/or other
    50                           ;        materials provided with the distribution.
    51                           ; 
    52                           ;     3. Microchip's name may not be used to endorse or promote products derived from th
      +                          is
    53                           ;        software without specific prior written permission.
    54                           ; 
    55                           ; THIS SOFTWARE IS PROVIDED BY MICROCHIP "AS IS" AND ANY EXPRESS OR IMPLIED WARRANTIES,
    56                           ; INCLUDING, BUT NOT LIMITED TO, THE IMPLIED WARRANTIES OF MERCHANTABILITY AND FITNESS F
      +                          OR
    57                           ; PURPOSE ARE DISCLAIMED.  IN NO EVENT SHALL MICROCHIP BE LIABLE FOR ANY DIRECT, INDIREC
      +                          T,
    58                           ; INCIDENTAL, SPECIAL, EXEMPLARY, OR CONSEQUENTIAL DAMAGES (INCLUDING BUT NOT LIMITED TO
    59                           ; PROCUREMENT OF SUBSTITUTE GOODS OR SERVICES; LOSS OF USE, DATA OR PROFITS; OR BUSINESS
    60                           ; INTERRUPTION) HOWSOEVER CAUSED AND ON ANY THEORY OF LIABILITY, WHETHER IN CONTRACT, ST
      +                          RICT
    61                           ; LIABILITY, OR TORT (INCLUDING NEGLIGENCE OR OTHERWISE) ARISING IN ANY WAY OUT OF THE U
      +                          SE OF
    62                           ; THIS SOFTWARE, EVEN IF ADVISED OF THE POSSIBILITY OF SUCH DAMAGE.
    63                           ; 
    64                           ; 
    65                           ; Code-generator required, PIC16F887 Definitions
    66                           ; 
    67                           ; SFR Addresses
    68  0000                     	;# 
    69  0001                     	;# 
    70  0002                     	;# 
    71  0003                     	;# 
    72  0004                     	;# 
    73  0005                     	;# 
    74  0006                     	;# 
    75  0007                     	;# 
    76  0008                     	;# 
    77  0009                     	;# 
    78  000A                     	;# 
    79  000B                     	;# 
    80  000C                     	;# 
    81  000D                     	;# 
    82  000E                     	;# 
    83  000E                     	;# 
    84  000F                     	;# 
    85  0010                     	;# 
    86  0011                     	;# 
    87  0012                     	;# 
    88  0013                     	;# 
    89  0014                     	;# 
    90  0015                     	;# 
    91  0015                     	;# 
    92  0016                     	;# 
    93  0017                     	;# 
    94  0018                     	;# 
    95  0019                     	;# 
    96  001A                     	;# 
    97  001B                     	;# 
    98  001B                     	;# 
    99  001C                     	;# 
   100  001D                     	;# 
   101  001E                     	;# 
   102  001F                     	;# 
   103  0081                     	;# 
   104  0085                     	;# 
   105  0086                     	;# 
   106  0087                     	;# 
   107  0088                     	;# 
   108  0089                     	;# 
   109  008C                     	;# 
   110  008D                     	;# 
   111  008E                     	;# 
   112  008F                     	;# 
   113  0090                     	;# 
   114  0091                     	;# 
   115  0092                     	;# 
   116  0093                     	;# 
   117  0093                     	;# 
   118  0093                     	;# 
   119  0094                     	;# 
   120  0095                     	;# 
   121  0096                     	;# 
   122  0097                     	;# 
   123  0098                     	;# 
   124  0099                     	;# 
   125  009A                     	;# 
   126  009B                     	;# 
   127  009C                     	;# 
   128  009D                     	;# 
   129  009E                     	;# 
   130  009F                     	;# 
   131  0105                     	;# 
   132  0107                     	;# 
   133  0108                     	;# 
   134  0109                     	;# 
   135  010C                     	;# 
   136  010C                     	;# 
   137  010D                     	;# 
   138  010E                     	;# 
   139  010F                     	;# 
   140  0185                     	;# 
   141  0187                     	;# 
   142  0188                     	;# 
   143  0189                     	;# 
   144  018C                     	;# 
   145  018D                     	;# 
   146  0000                     	;# 
   147  0001                     	;# 
   148  0002                     	;# 
   149  0003                     	;# 
   150  0004                     	;# 
   151  0005                     	;# 
   152  0006                     	;# 
   153  0007                     	;# 
   154  0008                     	;# 
   155  0009                     	;# 
   156  000A                     	;# 
   157  000B                     	;# 
   158  000C                     	;# 
   159  000D                     	;# 
   160  000E                     	;# 
   161  000E                     	;# 
   162  000F                     	;# 
   163  0010                     	;# 
   164  0011                     	;# 
   165  0012                     	;# 
   166  0013                     	;# 
   167  0014                     	;# 
   168  0015                     	;# 
   169  0015                     	;# 
   170  0016                     	;# 
   171  0017                     	;# 
   172  0018                     	;# 
   173  0019                     	;# 
   174  001A                     	;# 
   175  001B                     	;# 
   176  001B                     	;# 
   177  001C                     	;# 
   178  001D                     	;# 
   179  001E                     	;# 
   180  001F                     	;# 
   181  0081                     	;# 
   182  0085                     	;# 
   183  0086                     	;# 
   184  0087                     	;# 
   185  0088                     	;# 
   186  0089                     	;# 
   187  008C                     	;# 
   188  008D                     	;# 
   189  008E                     	;# 
   190  008F                     	;# 
   191  0090                     	;# 
   192  0091                     	;# 
   193  0092                     	;# 
   194  0093                     	;# 
   195  0093                     	;# 
   196  0093                     	;# 
   197  0094                     	;# 
   198  0095                     	;# 
   199  0096                     	;# 
   200  0097                     	;# 
   201  0098                     	;# 
   202  0099                     	;# 
   203  009A                     	;# 
   204  009B                     	;# 
   205  009C                     	;# 
   206  009D                     	;# 
   207  009E                     	;# 
   208  009F                     	;# 
   209  0105                     	;# 
   210  0107                     	;# 
   211  0108                     	;# 
   212  0109                     	;# 
   213  010C                     	;# 
   214  010C                     	;# 
   215  010D                     	;# 
   216  010E                     	;# 
   217  010F                     	;# 
   218  0185                     	;# 
   219  0187                     	;# 
   220  0188                     	;# 
   221  0189                     	;# 
   222  018C                     	;# 
   223  018D                     	;# 
   224  0000                     	;# 
   225  0001                     	;# 
   226  0002                     	;# 
   227  0003                     	;# 
   228  0004                     	;# 
   229  0005                     	;# 
   230  0006                     	;# 
   231  0007                     	;# 
   232  0008                     	;# 
   233  0009                     	;# 
   234  000A                     	;# 
   235  000B                     	;# 
   236  000C                     	;# 
   237  000D                     	;# 
   238  000E                     	;# 
   239  000E                     	;# 
   240  000F                     	;# 
   241  0010                     	;# 
   242  0011                     	;# 
   243  0012                     	;# 
   244  0013                     	;# 
   245  0014                     	;# 
   246  0015                     	;# 
   247  0015                     	;# 
   248  0016                     	;# 
   249  0017                     	;# 
   250  0018                     	;# 
   251  0019                     	;# 
   252  001A                     	;# 
   253  001B                     	;# 
   254  001B                     	;# 
   255  001C                     	;# 
   256  001D                     	;# 
   257  001E                     	;# 
   258  001F                     	;# 
   259  0081                     	;# 
   260  0085                     	;# 
   261  0086                     	;# 
   262  0087                     	;# 
   263  0088                     	;# 
   264  0089                     	;# 
   265  008C                     	;# 
   266  008D                     	;# 
   267  008E                     	;# 
   268  008F                     	;# 
   269  0090                     	;# 
   270  0091                     	;# 
   271  0092                     	;# 
   272  0093                     	;# 
   273  0093                     	;# 
   274  0093                     	;# 
   275  0094                     	;# 
   276  0095                     	;# 
   277  0096                     	;# 
   278  0097                     	;# 
   279  0098                     	;# 
   280  0099                     	;# 
   281  009A                     	;# 
   282  009B                     	;# 
   283  009C                     	;# 
   284  009D                     	;# 
   285  009E                     	;# 
   286  009F                     	;# 
   287  0105                     	;# 
   288  0107                     	;# 
   289  0108                     	;# 
   290  0109                     	;# 
   291  010C                     	;# 
   292  010C                     	;# 
   293  010D                     	;# 
   294  010E                     	;# 
   295  010F                     	;# 
   296  0185                     	;# 
   297  0187                     	;# 
   298  0188                     	;# 
   299  0189                     	;# 
   300  018C                     	;# 
   301  018D                     	;# 
   302  0000                     	;# 
   303  0001                     	;# 
   304  0002                     	;# 
   305  0003                     	;# 
   306  0004                     	;# 
   307  0005                     	;# 
   308  0006                     	;# 
   309  0007                     	;# 
   310  0008                     	;# 
   311  0009                     	;# 
   312  000A                     	;# 
   313  000B                     	;# 
   314  000C                     	;# 
   315  000D                     	;# 
   316  000E                     	;# 
   317  000E                     	;# 
   318  000F                     	;# 
   319  0010                     	;# 
   320  0011                     	;# 
   321  0012                     	;# 
   322  0013                     	;# 
   323  0014                     	;# 
   324  0015                     	;# 
   325  0015                     	;# 
   326  0016                     	;# 
   327  0017                     	;# 
   328  0018                     	;# 
   329  0019                     	;# 
   330  001A                     	;# 
   331  001B                     	;# 
   332  001B                     	;# 
   333  001C                     	;# 
   334  001D                     	;# 
   335  001E                     	;# 
   336  001F                     	;# 
   337  0081                     	;# 
   338  0085                     	;# 
   339  0086                     	;# 
   340  0087                     	;# 
   341  0088                     	;# 
   342  0089                     	;# 
   343  008C                     	;# 
   344  008D                     	;# 
   345  008E                     	;# 
   346  008F                     	;# 
   347  0090                     	;# 
   348  0091                     	;# 
   349  0092                     	;# 
   350  0093                     	;# 
   351  0093                     	;# 
   352  0093                     	;# 
   353  0094                     	;# 
   354  0095                     	;# 
   355  0096                     	;# 
   356  0097                     	;# 
   357  0098                     	;# 
   358  0099                     	;# 
   359  009A                     	;# 
   360  009B                     	;# 
   361  009C                     	;# 
   362  009D                     	;# 
   363  009E                     	;# 
   364  009F                     	;# 
   365  0105                     	;# 
   366  0107                     	;# 
   367  0108                     	;# 
   368  0109                     	;# 
   369  010C                     	;# 
   370  010C                     	;# 
   371  010D                     	;# 
   372  010E                     	;# 
   373  010F                     	;# 
   374  0185                     	;# 
   375  0187                     	;# 
   376  0188                     	;# 
   377  0189                     	;# 
   378  018C                     	;# 
   379  018D                     	;# 
   380  000B                     _INTCONbits	set	11
   381  000C                     _PIR1bits	set	12
   382  001E                     _ADRESH	set	30
   383  001F                     _ADCON0bits	set	31
   384  0038                     _RC0	set	56
   385  0039                     _RC1	set	57
   386  002F                     _RA7	set	47
   387  002E                     _RA6	set	46
   388  002D                     _RA5	set	45
   389  002C                     _RA4	set	44
   390  002B                     _RA3	set	43
   391  002A                     _RA2	set	42
   392  0029                     _RA1	set	41
   393  0028                     _RA0	set	40
   394  009E                     _ADRESL	set	158
   395  008C                     _PIE1bits	set	140
   396  0086                     _TRISBbits	set	134
   397  0089                     _TRISEbits	set	137
   398  0085                     _TRISAbits	set	133
   399  009F                     _ADCON1bits	set	159
   400  0087                     _TRISC	set	135
   401  0086                     _TRISB	set	134
   402  0085                     _TRISA	set	133
   403  0189                     _ANSELHbits	set	393
   404  0188                     _ANSELbits	set	392
   405  0188                     _ANSEL	set	392
   406  0189                     _ANSELH	set	393
   407                           
   408                           	psect	strings
   409  1000                     __pstrings:	
   410  1000                     stringtab:	
   411  1000                     __stringtab:	
   412                           
   413                           ;	String table - string pointers are 1 byte each
   414  1000  1BFF               	btfsc	btemp+1,7
   415  1001  280A               	ljmp	stringcode
   416  1002  1383               	bcf	3,7
   417  1003  187F               	btfsc	btemp+1,0
   418  1004  1783               	bsf	3,7
   419  1005  0800               	movf	0,w
   420  1006  0A84               	incf	4,f
   421  1007  1903               	skipnz
   422  1008  0AFF               	incf	btemp+1,f
   423  1009  0008               	return
   424  100A                     stringcode:	
   425  100A                     stringdir:	
   426  100A  3010               	movlw	high stringdir
   427  100B  008A               	movwf	10
   428  100C  0804               	movf	4,w
   429  100D  0A84               	incf	4,f
   430  100E  0782               	addwf	2,f
   431  100F                     __stringbase:	
   432  100F  3400               	retlw	0
   433  1010                     __end_of__stringtab:	
   434  1010                     STR_1:	
   435  1010  3450               	retlw	80	;'P'
   436  1011  3431               	retlw	49	;'1'
   437  1012  343A               	retlw	58	;':'
   438  1013  3400               	retlw	0
   439  1014                     STR_2:	
   440  1014  3450               	retlw	80	;'P'
   441  1015  3432               	retlw	50	;'2'
   442  1016  343A               	retlw	58	;':'
   443  1017  3400               	retlw	0
   444  1018                     STR_3:	
   445  1018  3450               	retlw	80	;'P'
   446  1019  3433               	retlw	51	;'3'
   447  101A  343A               	retlw	58	;':'
   448  101B  3400               	retlw	0
   449                           
   450                           ; #config settings
   451  0000                     
   452                           	psect	cinit
   453  07EF                     start_initialization:	
   454  07EF                     __initialization:	
   455                           
   456                           ; Clear objects allocated to BANK0
   457  07EF  1283               	bcf	3,5	;RP0=0, select bank0
   458  07F0  1303               	bcf	3,6	;RP1=0, select bank0
   459  07F1  01EB               	clrf	__pbssBANK0& (0+127)
   460  07F2  01EC               	clrf	(__pbssBANK0+1)& (0+127)
   461                           
   462                           ; Clear objects allocated to BANK1
   463  07F3  1383               	bcf	3,7	;select IRP bank0
   464  07F4  30A0               	movlw	low __pbssBANK1
   465  07F5  0084               	movwf	4
   466  07F6  30B4               	movlw	low (__pbssBANK1+20)
   467  07F7  160A  118A  277C  120A  118A  	fcall	clear_ram0
   468  07FC                     end_of_initialization:	
   469                           ;End of C runtime variable initialization code
   470                           
   471  07FC                     __end_of__initialization:	
   472  07FC  0183               	clrf	3
   473  07FD  120A  158A  2DB6   	ljmp	_main	;jump to C main() function
   474                           
   475                           	psect	bssBANK0
   476  006B                     __pbssBANK0:	
   477  006B                     _ctrl2:	
   478  006B                     	ds	1
   479  006C                     _ctrl:	
   480  006C                     	ds	1
   481                           
   482                           	psect	bssBANK1
   483  00A0                     __pbssBANK1:	
   484  00A0                     main@F1511:	
   485  00A0                     	ds	5
   486  00A5                     main@F1509:	
   487  00A5                     	ds	5
   488  00AA                     _adc22:	
   489  00AA                     	ds	4
   490  00AE                     _adc11:	
   491  00AE                     	ds	4
   492  00B2                     _adc2:	
   493  00B2                     	ds	1
   494  00B3                     _adc1:	
   495  00B3                     	ds	1
   496                           
   497                           	psect	clrtext
   498  177C                     clear_ram0:	
   499                           ;	Called with FSR containing the base address, and
   500                           ;	W with the last address+1
   501                           
   502  177C  0064               	clrwdt	;clear the watchdog before getting into this loop
   503  177D                     clrloop0:	
   504  177D  0180               	clrf	0	;clear RAM location pointed to by FSR
   505  177E  0A84               	incf	4,f	;increment pointer
   506  177F  0604               	xorwf	4,w	;XOR with final address
   507  1780  1903               	btfsc	3,2	;have we reached the end yet?
   508  1781  3400               	retlw	0	;all done for this memory range, return
   509  1782  0604               	xorwf	4,w	;XOR again to restore value
   510  1783  2F7D               	goto	clrloop0	;do the next byte
   511                           
   512                           	psect	cstackBANK1
   513  00B4                     __pcstackBANK1:	
   514  00B4                     main@s1:	
   515                           
   516                           ; 5 bytes @ 0x0
   517  00B4                     	ds	5
   518  00B9                     main@s2:	
   519                           
   520                           ; 5 bytes @ 0x5
   521  00B9                     	ds	5
   522                           
   523                           	psect	cstackCOMMON
   524  0070                     __pcstackCOMMON:	
   525  0070                     ?_ADC_CONFIG:	
   526  0070                     ?_num_case:	
   527                           ; 1 bytes @ 0x0
   528                           
   529  0070                     ??_num_case:	
   530                           ; 1 bytes @ 0x0
   531                           
   532  0070                     ?_Lcd_Port:	
   533                           ; 1 bytes @ 0x0
   534                           
   535  0070                     ??_Lcd_Port:	
   536                           ; 1 bytes @ 0x0
   537                           
   538  0070                     ?_Lcd_Cmd:	
   539                           ; 1 bytes @ 0x0
   540                           
   541  0070                     ?_Lcd_Init:	
   542                           ; 1 bytes @ 0x0
   543                           
   544  0070                     ?_Lcd_Write_Char:	
   545                           ; 1 bytes @ 0x0
   546                           
   547  0070                     ?_main:	
   548                           ; 1 bytes @ 0x0
   549                           
   550  0070                     ?___bmul:	
   551                           ; 1 bytes @ 0x0
   552                           
   553  0070                     ?__Umul8_16:	
   554                           ; 1 bytes @ 0x0
   555                           
   556  0070                     ?___fladd:	
   557                           ; 2 bytes @ 0x0
   558                           
   559  0070                     ?___xxtofl:	
   560                           ; 4 bytes @ 0x0
   561                           
   562  0070                     Lcd_Port@a:	
   563                           ; 4 bytes @ 0x0
   564                           
   565  0070                     ADC_CONFIG@justif:	
   566                           ; 1 bytes @ 0x0
   567                           
   568  0070                     ___bmul@multiplicand:	
   569                           ; 1 bytes @ 0x0
   570                           
   571  0070                     __Umul8_16@multiplicand:	
   572                           ; 1 bytes @ 0x0
   573                           
   574  0070                     ___fladd@b:	
   575                           ; 1 bytes @ 0x0
   576                           
   577  0070                     ___xxtofl@val:	
   578                           ; 4 bytes @ 0x0
   579                           
   580                           
   581                           ; 4 bytes @ 0x0
   582  0070                     	ds	1
   583  0071                     ??_ADC_CONFIG:	
   584  0071                     ??_Lcd_Cmd:	
   585                           ; 1 bytes @ 0x1
   586                           
   587  0071                     ??_Lcd_Write_Char:	
   588                           ; 1 bytes @ 0x1
   589                           
   590  0071                     ??___bmul:	
   591                           ; 1 bytes @ 0x1
   592                           
   593                           
   594                           ; 1 bytes @ 0x1
   595  0071                     	ds	1
   596  0072                     ??__Umul8_16:	
   597  0072                     Lcd_Write_Char@a:	
   598                           ; 1 bytes @ 0x2
   599                           
   600  0072                     num_case@num:	
   601                           ; 1 bytes @ 0x2
   602                           
   603  0072                     ___bmul@product:	
   604                           ; 1 bytes @ 0x2
   605                           
   606                           
   607                           ; 1 bytes @ 0x2
   608  0072                     	ds	1
   609  0073                     ?_Lcd_Write_String:	
   610  0073                     Lcd_Cmd@a:	
   611                           ; 1 bytes @ 0x3
   612                           
   613  0073                     num_case@r:	
   614                           ; 1 bytes @ 0x3
   615                           
   616  0073                     ADC_CONFIG@canal:	
   617                           ; 1 bytes @ 0x3
   618                           
   619  0073                     ___bmul@multiplier:	
   620                           ; 1 bytes @ 0x3
   621                           
   622  0073                     Lcd_Write_String@a:	
   623                           ; 1 bytes @ 0x3
   624                           
   625                           
   626                           ; 2 bytes @ 0x3
   627  0073                     	ds	1
   628  0074                     ?_Lcd_Set_Cursor:	
   629  0074                     ??_Lcd_Init:	
   630                           ; 1 bytes @ 0x4
   631                           
   632  0074                     ??___xxtofl:	
   633                           ; 1 bytes @ 0x4
   634                           
   635  0074                     Lcd_Set_Cursor@b:	
   636                           ; 1 bytes @ 0x4
   637                           
   638  0074                     __Umul8_16@product:	
   639                           ; 1 bytes @ 0x4
   640                           
   641  0074                     ___fladd@a:	
   642                           ; 2 bytes @ 0x4
   643                           
   644                           
   645                           ; 4 bytes @ 0x4
   646  0074                     	ds	1
   647  0075                     ??_Lcd_Set_Cursor:	
   648  0075                     ??_Lcd_Write_String:	
   649                           ; 1 bytes @ 0x5
   650                           
   651  0075                     Lcd_Set_Cursor@a:	
   652                           ; 1 bytes @ 0x5
   653                           
   654                           
   655                           ; 1 bytes @ 0x5
   656  0075                     	ds	1
   657  0076                     __Umul8_16@word_mpld:	
   658                           
   659                           ; 2 bytes @ 0x6
   660  0076                     	ds	2
   661  0078                     ___fladd@signs:	
   662  0078                     ___xxtofl@sign:	
   663                           ; 1 bytes @ 0x8
   664                           
   665  0078                     __Umul8_16@multiplier:	
   666                           ; 1 bytes @ 0x8
   667                           
   668  0078                     Lcd_Write_String@i:	
   669                           ; 1 bytes @ 0x8
   670                           
   671                           
   672                           ; 2 bytes @ 0x8
   673  0078                     	ds	1
   674  0079                     ___fladd@aexp:	
   675  0079                     ___xxtofl@exp:	
   676                           ; 1 bytes @ 0x9
   677                           
   678                           
   679                           ; 1 bytes @ 0x9
   680  0079                     	ds	1
   681  007A                     ___fladd@bexp:	
   682  007A                     ___xxtofl@arg:	
   683                           ; 1 bytes @ 0xA
   684                           
   685                           
   686                           ; 4 bytes @ 0xA
   687  007A                     	ds	1
   688  007B                     ___fladd@grs:	
   689                           
   690                           ; 1 bytes @ 0xB
   691  007B                     	ds	3
   692  007E                     ??___flsub:	
   693                           
   694                           	psect	cstackBANK0
   695  0020                     __pcstackBANK0:	
   696                           ; 1 bytes @ 0xE
   697                           
   698  0020                     ??___fladd:	
   699  0020                     ?___fldiv:	
   700                           ; 1 bytes @ 0x0
   701                           
   702  0020                     ___fldiv@a:	
   703                           ; 4 bytes @ 0x0
   704                           
   705                           
   706                           ; 4 bytes @ 0x0
   707  0020                     	ds	4
   708  0024                     ___fldiv@b:	
   709                           
   710                           ; 4 bytes @ 0x4
   711  0024                     	ds	4
   712  0028                     ??___fldiv:	
   713  0028                     ?___flsub:	
   714                           ; 1 bytes @ 0x8
   715                           
   716  0028                     ___flsub@a:	
   717                           ; 4 bytes @ 0x8
   718                           
   719                           
   720                           ; 4 bytes @ 0x8
   721  0028                     	ds	4
   722  002C                     ___flsub@b:	
   723                           
   724                           ; 4 bytes @ 0xC
   725  002C                     	ds	1
   726  002D                     ___fldiv@rem:	
   727                           
   728                           ; 4 bytes @ 0xD
   729  002D                     	ds	3
   730  0030                     ?___flmul:	
   731  0030                     ___flmul@b:	
   732                           ; 4 bytes @ 0x10
   733                           
   734                           
   735                           ; 4 bytes @ 0x10
   736  0030                     	ds	1
   737  0031                     ___fldiv@sign:	
   738                           
   739                           ; 1 bytes @ 0x11
   740  0031                     	ds	1
   741  0032                     ___fldiv@new_exp:	
   742                           
   743                           ; 2 bytes @ 0x12
   744  0032                     	ds	2
   745  0034                     ___fldiv@grs:	
   746  0034                     ___flmul@a:	
   747                           ; 4 bytes @ 0x14
   748                           
   749                           
   750                           ; 4 bytes @ 0x14
   751  0034                     	ds	4
   752  0038                     ??___flmul:	
   753  0038                     ___fldiv@bexp:	
   754                           ; 1 bytes @ 0x18
   755                           
   756                           
   757                           ; 1 bytes @ 0x18
   758  0038                     	ds	1
   759  0039                     ___fldiv@aexp:	
   760                           
   761                           ; 1 bytes @ 0x19
   762  0039                     	ds	4
   763  003D                     ___flmul@sign:	
   764                           
   765                           ; 1 bytes @ 0x1D
   766  003D                     	ds	1
   767  003E                     ___flmul@grs:	
   768                           
   769                           ; 4 bytes @ 0x1E
   770  003E                     	ds	4
   771  0042                     ___flmul@aexp:	
   772                           
   773                           ; 1 bytes @ 0x22
   774  0042                     	ds	1
   775  0043                     ___flmul@bexp:	
   776                           
   777                           ; 1 bytes @ 0x23
   778  0043                     	ds	1
   779  0044                     ___flmul@prod:	
   780                           
   781                           ; 4 bytes @ 0x24
   782  0044                     	ds	4
   783  0048                     ___flmul@temp:	
   784                           
   785                           ; 2 bytes @ 0x28
   786  0048                     	ds	2
   787  004A                     ?___fltol:	
   788  004A                     ___fltol@f1:	
   789                           ; 4 bytes @ 0x2A
   790                           
   791                           
   792                           ; 4 bytes @ 0x2A
   793  004A                     	ds	4
   794  004E                     ??___fltol:	
   795                           
   796                           ; 1 bytes @ 0x2E
   797  004E                     	ds	5
   798  0053                     ___fltol@sign1:	
   799                           
   800                           ; 1 bytes @ 0x33
   801  0053                     	ds	1
   802  0054                     ___fltol@exp1:	
   803                           
   804                           ; 1 bytes @ 0x34
   805  0054                     	ds	1
   806  0055                     ?_int_stre:	
   807  0055                     ?_int_strd:	
   808                           ; 1 bytes @ 0x35
   809                           
   810  0055                     ?_int_strc:	
   811                           ; 1 bytes @ 0x35
   812                           
   813  0055                     int_stre@n:	
   814                           ; 1 bytes @ 0x35
   815                           
   816  0055                     int_strd@n:	
   817                           ; 4 bytes @ 0x35
   818                           
   819  0055                     int_strc@n:	
   820                           ; 4 bytes @ 0x35
   821                           
   822                           
   823                           ; 4 bytes @ 0x35
   824  0055                     	ds	4
   825  0059                     ??_int_stre:	
   826  0059                     ??_int_strd:	
   827                           ; 1 bytes @ 0x39
   828                           
   829  0059                     ??_int_strc:	
   830                           ; 1 bytes @ 0x39
   831                           
   832                           
   833                           ; 1 bytes @ 0x39
   834  0059                     	ds	6
   835  005F                     int_strc@c:	
   836                           
   837                           ; 1 bytes @ 0x3F
   838  005F                     	ds	1
   839  0060                     int_stre@c:	
   840  0060                     int_strd@c:	
   841                           ; 1 bytes @ 0x40
   842                           
   843  0060                     int_strc@c3:	
   844                           ; 1 bytes @ 0x40
   845                           
   846                           
   847                           ; 1 bytes @ 0x40
   848  0060                     	ds	1
   849  0061                     int_stre@c1:	
   850  0061                     int_strd@c2:	
   851                           ; 1 bytes @ 0x41
   852                           
   853  0061                     int_strc@e:	
   854                           ; 1 bytes @ 0x41
   855                           
   856                           
   857                           ; 1 bytes @ 0x41
   858  0061                     	ds	1
   859  0062                     int_stre@e:	
   860  0062                     int_strd@e:	
   861                           ; 1 bytes @ 0x42
   862                           
   863  0062                     int_strc@d:	
   864                           ; 1 bytes @ 0x42
   865                           
   866                           
   867                           ; 1 bytes @ 0x42
   868  0062                     	ds	1
   869  0063                     int_stre@d:	
   870  0063                     int_strd@d:	
   871                           ; 1 bytes @ 0x43
   872                           
   873  0063                     int_strc@loca:	
   874                           ; 1 bytes @ 0x43
   875                           
   876                           
   877                           ; 4 bytes @ 0x43
   878  0063                     	ds	1
   879  0064                     int_stre@loca:	
   880  0064                     int_strd@loca:	
   881                           ; 1 bytes @ 0x44
   882                           
   883                           
   884                           ; 1 bytes @ 0x44
   885  0064                     	ds	3
   886  0067                     ??_main:	
   887                           
   888                           ; 1 bytes @ 0x47
   889  0067                     	ds	4
   890                           
   891                           	psect	maintext
   892  0DB6                     __pmaintext:	
   893 ;;
   894 ;;Main: autosize = 0, tempsize = 4, incstack = 0, save=0
   895 ;;
   896 ;; *************** function _main *****************
   897 ;; Defined at:
   898 ;;		line 57 in file "Lab3.c"
   899 ;; Parameters:    Size  Location     Type
   900 ;;		None
   901 ;; Auto vars:     Size  Location     Type
   902 ;;  s2              5    5[BANK1 ] unsigned char [5]
   903 ;;  s1              5    0[BANK1 ] unsigned char [5]
   904 ;;  a               2    0        unsigned int 
   905 ;; Return value:  Size  Location     Type
   906 ;;                  1    wreg      void 
   907 ;; Registers used:
   908 ;;		wreg, fsr0l, fsr0h, status,2, status,0, btemp+1, pclath, cstack
   909 ;; Tracked objects:
   910 ;;		On entry : B00/0
   911 ;;		On exit  : 0/0
   912 ;;		Unchanged: 0/0
   913 ;; Data sizes:     COMMON   BANK0   BANK1   BANK3   BANK2
   914 ;;      Params:         0       0       0       0       0
   915 ;;      Locals:         0       0      10       0       0
   916 ;;      Temps:          0       4       0       0       0
   917 ;;      Totals:         0       4      10       0       0
   918 ;;Total ram usage:       14 bytes
   919 ;; Hardware stack levels required when called:    3
   920 ;; This function calls:
   921 ;;		_ADC_CONFIG
   922 ;;		_Lcd_Init
   923 ;;		_Lcd_Set_Cursor
   924 ;;		_Lcd_Write_String
   925 ;;		___fldiv
   926 ;;		___xxtofl
   927 ;;		_int_strc
   928 ;;		_int_strd
   929 ;;		_int_stre
   930 ;; This function is called by:
   931 ;;		Startup code after reset
   932 ;; This function uses a non-reentrant model
   933 ;;
   934                           
   935                           
   936                           ;psect for function _main
   937  0DB6                     _main:	
   938  0DB6                     l2634:	
   939                           ;incstack = 0
   940                           ; Regs used in _main: [wreg-fsr0h+status,2+status,0+btemp+1+pclath+cstack]
   941                           
   942                           
   943                           ;Lab3.c: 58:     unsigned int a;;Lab3.c: 59:     ANSELH = 0;
   944  0DB6  1683               	bsf	3,5	;RP0=1, select bank3
   945  0DB7  1703               	bsf	3,6	;RP1=1, select bank3
   946  0DB8  0189               	clrf	9	;volatile
   947                           
   948                           ;Lab3.c: 60:     ANSEL = 0;
   949  0DB9  0188               	clrf	8	;volatile
   950                           
   951                           ;Lab3.c: 61:     TRISA = 0x00;
   952  0DBA  1683               	bsf	3,5	;RP0=1, select bank1
   953  0DBB  1303               	bcf	3,6	;RP1=0, select bank1
   954  0DBC  0185               	clrf	5	;volatile
   955                           
   956                           ;Lab3.c: 62:     TRISB = 0x00;
   957  0DBD  0186               	clrf	6	;volatile
   958                           
   959                           ;Lab3.c: 63:     TRISC = 0x00;
   960  0DBE  0187               	clrf	7	;volatile
   961  0DBF                     l2636:	
   962                           
   963                           ;Lab3.c: 66:     ADC_CONFIG(12,0);
   964  0DBF  01F0               	clrf	ADC_CONFIG@justif
   965  0DC0  300C               	movlw	12
   966  0DC1  120A  158A  24AB  120A  158A  	fcall	_ADC_CONFIG
   967  0DC6                     l2638:	
   968                           
   969                           ;Lab3.c: 67:     ADC_CONFIG(10,0);
   970  0DC6  01F0               	clrf	ADC_CONFIG@justif
   971  0DC7  300A               	movlw	10
   972  0DC8  120A  158A  24AB  120A  158A  	fcall	_ADC_CONFIG
   973  0DCD                     l2640:	
   974                           
   975                           ;Lab3.c: 69:     Lcd_Init();
   976  0DCD  120A  158A  20A3  120A  158A  	fcall	_Lcd_Init
   977  0DD2                     l2642:	
   978                           
   979                           ;Lab3.c: 72:     char s1[5] = "";
   980  0DD2  30B4               	movlw	main@s1& (0+255)
   981  0DD3  0084               	movwf	4
   982  0DD4  3005               	movlw	5
   983  0DD5  00FF               	movwf	btemp+1
   984  0DD6                     u3130:	
   985  0DD6  1383               	bcf	3,7	;select IRP bank1
   986  0DD7  0180               	clrf	0
   987  0DD8  0A84               	incf	4,f
   988  0DD9  0BFF               	decfsz	btemp+1,f
   989  0DDA  2DD6               	goto	u3130
   990  0DDB                     l2644:	
   991                           
   992                           ;Lab3.c: 73:     char s2[5] = "";
   993  0DDB  30B9               	movlw	main@s2& (0+255)
   994  0DDC  0084               	movwf	4
   995  0DDD  3005               	movlw	5
   996  0DDE  00FF               	movwf	btemp+1
   997  0DDF                     u3140:	
   998  0DDF  0180               	clrf	0
   999  0DE0  0A84               	incf	4,f
  1000  0DE1  0BFF               	decfsz	btemp+1,f
  1001  0DE2  2DDF               	goto	u3140
  1002  0DE3                     l2646:	
  1003                           
  1004                           ;Lab3.c: 78:         ADCON0bits.CHS = 10;
  1005  0DE3  1283               	bcf	3,5	;RP0=0, select bank0
  1006  0DE4  1303               	bcf	3,6	;RP1=0, select bank0
  1007  0DE5  081F               	movf	31,w	;volatile
  1008  0DE6  39C3               	andlw	-61
  1009  0DE7  3828               	iorlw	40
  1010  0DE8  009F               	movwf	31	;volatile
  1011  0DE9                     l2648:	
  1012                           
  1013                           ;Lab3.c: 79:         _delay((unsigned long)((500)*(4000000/4000000.0)));
  1014  0DE9  30A5               	movlw	165
  1015  0DEA  1283               	bcf	3,5	;RP0=0, select bank0
  1016  0DEB  1303               	bcf	3,6	;RP1=0, select bank0
  1017  0DEC  00E7               	movwf	??_main
  1018  0DED                     u3177:	
  1019  0DED  0BE7               	decfsz	??_main,f
  1020  0DEE  2DED               	goto	u3177
  1021  0DEF  2DF0               	nop2
  1022  0DF0                     l2650:	
  1023                           
  1024                           ;Lab3.c: 80:         ADCON0bits.GO = 1;
  1025  0DF0  1283               	bcf	3,5	;RP0=0, select bank0
  1026  0DF1  1303               	bcf	3,6	;RP1=0, select bank0
  1027  0DF2  149F               	bsf	31,1	;volatile
  1028  0DF3                     l127:	
  1029                           ;Lab3.c: 81:         while(ADCON0bits.GO == 1){};
  1030                           
  1031  0DF3  189F               	btfsc	31,1	;volatile
  1032  0DF4  2DF6               	goto	u3151
  1033  0DF5  2DF7               	goto	u3150
  1034  0DF6                     u3151:	
  1035  0DF6  2DF3               	goto	l127
  1036  0DF7                     u3150:	
  1037  0DF7                     l2652:	
  1038                           
  1039                           ;Lab3.c: 82:         adc1 = ADRESH;
  1040  0DF7  081E               	movf	30,w	;volatile
  1041  0DF8  00E7               	movwf	??_main
  1042  0DF9  0867               	movf	??_main,w
  1043  0DFA  1683               	bsf	3,5	;RP0=1, select bank1
  1044  0DFB  1303               	bcf	3,6	;RP1=0, select bank1
  1045  0DFC  00B3               	movwf	_adc1^(0+128)
  1046  0DFD                     l2654:	
  1047                           
  1048                           ;Lab3.c: 83:         adc11 = adc1/51.0;
  1049  0DFD  3042               	movlw	66
  1050  0DFE  1283               	bcf	3,5	;RP0=0, select bank0
  1051  0DFF  1303               	bcf	3,6	;RP1=0, select bank0
  1052  0E00  00A3               	movwf	___fldiv@a+3
  1053  0E01  304C               	movlw	76
  1054  0E02  00A2               	movwf	___fldiv@a+2
  1055  0E03  3000               	movlw	0
  1056  0E04  00A1               	movwf	___fldiv@a+1
  1057  0E05  3000               	movlw	0
  1058  0E06  00A0               	movwf	___fldiv@a
  1059  0E07  1683               	bsf	3,5	;RP0=1, select bank1
  1060  0E08  1303               	bcf	3,6	;RP1=0, select bank1
  1061  0E09  0833               	movf	_adc1^(0+128),w
  1062  0E0A  1283               	bcf	3,5	;RP0=0, select bank0
  1063  0E0B  1303               	bcf	3,6	;RP1=0, select bank0
  1064  0E0C  00E7               	movwf	??_main
  1065  0E0D  01E8               	clrf	??_main+1
  1066  0E0E  01E9               	clrf	??_main+2
  1067  0E0F  01EA               	clrf	??_main+3
  1068  0E10  086A               	movf	??_main+3,w
  1069  0E11  00F3               	movwf	___xxtofl@val+3
  1070  0E12  0869               	movf	??_main+2,w
  1071  0E13  00F2               	movwf	___xxtofl@val+2
  1072  0E14  0868               	movf	??_main+1,w
  1073  0E15  00F1               	movwf	___xxtofl@val+1
  1074  0E16  0867               	movf	??_main,w
  1075  0E17  00F0               	movwf	___xxtofl@val
  1076  0E18  3001               	movlw	1
  1077  0E19  120A  158A  2303  120A  158A  	fcall	___xxtofl
  1078  0E1E  0873               	movf	?___xxtofl+3,w
  1079  0E1F  1283               	bcf	3,5	;RP0=0, select bank0
  1080  0E20  1303               	bcf	3,6	;RP1=0, select bank0
  1081  0E21  00A7               	movwf	___fldiv@b+3
  1082  0E22  0872               	movf	?___xxtofl+2,w
  1083  0E23  00A6               	movwf	___fldiv@b+2
  1084  0E24  0871               	movf	?___xxtofl+1,w
  1085  0E25  00A5               	movwf	___fldiv@b+1
  1086  0E26  0870               	movf	?___xxtofl,w
  1087  0E27  00A4               	movwf	___fldiv@b
  1088  0E28  120A  118A  2019  120A  158A  	fcall	___fldiv
  1089  0E2D  1283               	bcf	3,5	;RP0=0, select bank0
  1090  0E2E  1303               	bcf	3,6	;RP1=0, select bank0
  1091  0E2F  0823               	movf	?___fldiv+3,w
  1092  0E30  1683               	bsf	3,5	;RP0=1, select bank1
  1093  0E31  1303               	bcf	3,6	;RP1=0, select bank1
  1094  0E32  00B1               	movwf	(_adc11+3)^(0+128)
  1095  0E33  1283               	bcf	3,5	;RP0=0, select bank0
  1096  0E34  1303               	bcf	3,6	;RP1=0, select bank0
  1097  0E35  0822               	movf	?___fldiv+2,w
  1098  0E36  1683               	bsf	3,5	;RP0=1, select bank1
  1099  0E37  1303               	bcf	3,6	;RP1=0, select bank1
  1100  0E38  00B0               	movwf	(_adc11+2)^(0+128)
  1101  0E39  1283               	bcf	3,5	;RP0=0, select bank0
  1102  0E3A  1303               	bcf	3,6	;RP1=0, select bank0
  1103  0E3B  0821               	movf	?___fldiv+1,w
  1104  0E3C  1683               	bsf	3,5	;RP0=1, select bank1
  1105  0E3D  1303               	bcf	3,6	;RP1=0, select bank1
  1106  0E3E  00AF               	movwf	(_adc11+1)^(0+128)
  1107  0E3F  1283               	bcf	3,5	;RP0=0, select bank0
  1108  0E40  1303               	bcf	3,6	;RP1=0, select bank0
  1109  0E41  0820               	movf	?___fldiv,w
  1110  0E42  1683               	bsf	3,5	;RP0=1, select bank1
  1111  0E43  1303               	bcf	3,6	;RP1=0, select bank1
  1112  0E44  00AE               	movwf	_adc11^(0+128)
  1113  0E45                     l2656:	
  1114                           
  1115                           ;Lab3.c: 84:         PIR1bits.ADIF = 0;
  1116  0E45  1283               	bcf	3,5	;RP0=0, select bank0
  1117  0E46  1303               	bcf	3,6	;RP1=0, select bank0
  1118  0E47  130C               	bcf	12,6	;volatile
  1119  0E48                     l2658:	
  1120                           
  1121                           ;Lab3.c: 85:         ADCON0bits.CHS = 12;
  1122  0E48  081F               	movf	31,w	;volatile
  1123  0E49  39C3               	andlw	-61
  1124  0E4A  3830               	iorlw	48
  1125  0E4B  009F               	movwf	31	;volatile
  1126  0E4C                     l2660:	
  1127                           
  1128                           ;Lab3.c: 86:         _delay((unsigned long)((500)*(4000000/4000000.0)));
  1129  0E4C  30A5               	movlw	165
  1130  0E4D  1283               	bcf	3,5	;RP0=0, select bank0
  1131  0E4E  1303               	bcf	3,6	;RP1=0, select bank0
  1132  0E4F  00E7               	movwf	??_main
  1133  0E50                     u3187:	
  1134  0E50  0BE7               	decfsz	??_main,f
  1135  0E51  2E50               	goto	u3187
  1136  0E52  2E53               	nop2
  1137  0E53                     l2662:	
  1138                           
  1139                           ;Lab3.c: 87:         ADCON0bits.GO = 1;
  1140  0E53  1283               	bcf	3,5	;RP0=0, select bank0
  1141  0E54  1303               	bcf	3,6	;RP1=0, select bank0
  1142  0E55  149F               	bsf	31,1	;volatile
  1143  0E56                     l130:	
  1144                           ;Lab3.c: 88:         while(ADCON0bits.GO == 1){};
  1145                           
  1146  0E56  189F               	btfsc	31,1	;volatile
  1147  0E57  2E59               	goto	u3161
  1148  0E58  2E5A               	goto	u3160
  1149  0E59                     u3161:	
  1150  0E59  2E56               	goto	l130
  1151  0E5A                     u3160:	
  1152  0E5A                     l2664:	
  1153                           
  1154                           ;Lab3.c: 89:         adc2 = ADRESH;
  1155  0E5A  081E               	movf	30,w	;volatile
  1156  0E5B  00E7               	movwf	??_main
  1157  0E5C  0867               	movf	??_main,w
  1158  0E5D  1683               	bsf	3,5	;RP0=1, select bank1
  1159  0E5E  1303               	bcf	3,6	;RP1=0, select bank1
  1160  0E5F  00B2               	movwf	_adc2^(0+128)
  1161  0E60                     l2666:	
  1162                           
  1163                           ;Lab3.c: 90:         adc22 = adc2/51.0;
  1164  0E60  3042               	movlw	66
  1165  0E61  1283               	bcf	3,5	;RP0=0, select bank0
  1166  0E62  1303               	bcf	3,6	;RP1=0, select bank0
  1167  0E63  00A3               	movwf	___fldiv@a+3
  1168  0E64  304C               	movlw	76
  1169  0E65  00A2               	movwf	___fldiv@a+2
  1170  0E66  3000               	movlw	0
  1171  0E67  00A1               	movwf	___fldiv@a+1
  1172  0E68  3000               	movlw	0
  1173  0E69  00A0               	movwf	___fldiv@a
  1174  0E6A  1683               	bsf	3,5	;RP0=1, select bank1
  1175  0E6B  1303               	bcf	3,6	;RP1=0, select bank1
  1176  0E6C  0832               	movf	_adc2^(0+128),w
  1177  0E6D  1283               	bcf	3,5	;RP0=0, select bank0
  1178  0E6E  1303               	bcf	3,6	;RP1=0, select bank0
  1179  0E6F  00E7               	movwf	??_main
  1180  0E70  01E8               	clrf	??_main+1
  1181  0E71  01E9               	clrf	??_main+2
  1182  0E72  01EA               	clrf	??_main+3
  1183  0E73  086A               	movf	??_main+3,w
  1184  0E74  00F3               	movwf	___xxtofl@val+3
  1185  0E75  0869               	movf	??_main+2,w
  1186  0E76  00F2               	movwf	___xxtofl@val+2
  1187  0E77  0868               	movf	??_main+1,w
  1188  0E78  00F1               	movwf	___xxtofl@val+1
  1189  0E79  0867               	movf	??_main,w
  1190  0E7A  00F0               	movwf	___xxtofl@val
  1191  0E7B  3001               	movlw	1
  1192  0E7C  120A  158A  2303  120A  158A  	fcall	___xxtofl
  1193  0E81  0873               	movf	?___xxtofl+3,w
  1194  0E82  1283               	bcf	3,5	;RP0=0, select bank0
  1195  0E83  1303               	bcf	3,6	;RP1=0, select bank0
  1196  0E84  00A7               	movwf	___fldiv@b+3
  1197  0E85  0872               	movf	?___xxtofl+2,w
  1198  0E86  00A6               	movwf	___fldiv@b+2
  1199  0E87  0871               	movf	?___xxtofl+1,w
  1200  0E88  00A5               	movwf	___fldiv@b+1
  1201  0E89  0870               	movf	?___xxtofl,w
  1202  0E8A  00A4               	movwf	___fldiv@b
  1203  0E8B  120A  118A  2019  120A  158A  	fcall	___fldiv
  1204  0E90  1283               	bcf	3,5	;RP0=0, select bank0
  1205  0E91  1303               	bcf	3,6	;RP1=0, select bank0
  1206  0E92  0823               	movf	?___fldiv+3,w
  1207  0E93  1683               	bsf	3,5	;RP0=1, select bank1
  1208  0E94  1303               	bcf	3,6	;RP1=0, select bank1
  1209  0E95  00AD               	movwf	(_adc22+3)^(0+128)
  1210  0E96  1283               	bcf	3,5	;RP0=0, select bank0
  1211  0E97  1303               	bcf	3,6	;RP1=0, select bank0
  1212  0E98  0822               	movf	?___fldiv+2,w
  1213  0E99  1683               	bsf	3,5	;RP0=1, select bank1
  1214  0E9A  1303               	bcf	3,6	;RP1=0, select bank1
  1215  0E9B  00AC               	movwf	(_adc22+2)^(0+128)
  1216  0E9C  1283               	bcf	3,5	;RP0=0, select bank0
  1217  0E9D  1303               	bcf	3,6	;RP1=0, select bank0
  1218  0E9E  0821               	movf	?___fldiv+1,w
  1219  0E9F  1683               	bsf	3,5	;RP0=1, select bank1
  1220  0EA0  1303               	bcf	3,6	;RP1=0, select bank1
  1221  0EA1  00AB               	movwf	(_adc22+1)^(0+128)
  1222  0EA2  1283               	bcf	3,5	;RP0=0, select bank0
  1223  0EA3  1303               	bcf	3,6	;RP1=0, select bank0
  1224  0EA4  0820               	movf	?___fldiv,w
  1225  0EA5  1683               	bsf	3,5	;RP0=1, select bank1
  1226  0EA6  1303               	bcf	3,6	;RP1=0, select bank1
  1227  0EA7  00AA               	movwf	_adc22^(0+128)
  1228  0EA8                     l2668:	
  1229                           
  1230                           ;Lab3.c: 91:         PIR1bits.ADIF = 0;
  1231  0EA8  1283               	bcf	3,5	;RP0=0, select bank0
  1232  0EA9  1303               	bcf	3,6	;RP1=0, select bank0
  1233  0EAA  130C               	bcf	12,6	;volatile
  1234  0EAB                     l2670:	
  1235                           
  1236                           ;Lab3.c: 93:         Lcd_Set_Cursor(1,2);
  1237  0EAB  3002               	movlw	2
  1238  0EAC  00E7               	movwf	??_main
  1239  0EAD  0867               	movf	??_main,w
  1240  0EAE  00F4               	movwf	Lcd_Set_Cursor@b
  1241  0EAF  3001               	movlw	1
  1242  0EB0  160A  118A  2799  120A  158A  	fcall	_Lcd_Set_Cursor
  1243  0EB5                     l2672:	
  1244                           
  1245                           ;Lab3.c: 94:         Lcd_Write_String("P1:");
  1246  0EB5  3001               	movlw	(low ((STR_1-__stringbase)| (0+32768)))& (0+255)
  1247  0EB6  00F3               	movwf	Lcd_Write_String@a
  1248  0EB7  3080               	movlw	128
  1249  0EB8  00F4               	movwf	Lcd_Write_String@a+1
  1250  0EB9  120A  158A  2061  120A  158A  	fcall	_Lcd_Write_String
  1251  0EBE                     l2674:	
  1252                           
  1253                           ;Lab3.c: 95:         Lcd_Set_Cursor(1,7);
  1254  0EBE  3007               	movlw	7
  1255  0EBF  1283               	bcf	3,5	;RP0=0, select bank0
  1256  0EC0  1303               	bcf	3,6	;RP1=0, select bank0
  1257  0EC1  00E7               	movwf	??_main
  1258  0EC2  0867               	movf	??_main,w
  1259  0EC3  00F4               	movwf	Lcd_Set_Cursor@b
  1260  0EC4  3001               	movlw	1
  1261  0EC5  160A  118A  2799  120A  158A  	fcall	_Lcd_Set_Cursor
  1262  0ECA                     l2676:	
  1263                           
  1264                           ;Lab3.c: 96:         Lcd_Write_String("P2:");
  1265  0ECA  3005               	movlw	(low ((STR_2-__stringbase)| (0+32768)))& (0+255)
  1266  0ECB  00F3               	movwf	Lcd_Write_String@a
  1267  0ECC  3080               	movlw	128
  1268  0ECD  00F4               	movwf	Lcd_Write_String@a+1
  1269  0ECE  120A  158A  2061  120A  158A  	fcall	_Lcd_Write_String
  1270  0ED3                     l2678:	
  1271                           
  1272                           ;Lab3.c: 97:         Lcd_Set_Cursor(1,12);
  1273  0ED3  300C               	movlw	12
  1274  0ED4  1283               	bcf	3,5	;RP0=0, select bank0
  1275  0ED5  1303               	bcf	3,6	;RP1=0, select bank0
  1276  0ED6  00E7               	movwf	??_main
  1277  0ED7  0867               	movf	??_main,w
  1278  0ED8  00F4               	movwf	Lcd_Set_Cursor@b
  1279  0ED9  3001               	movlw	1
  1280  0EDA  160A  118A  2799  120A  158A  	fcall	_Lcd_Set_Cursor
  1281  0EDF                     l2680:	
  1282                           
  1283                           ;Lab3.c: 98:         Lcd_Write_String("P3:");
  1284  0EDF  3009               	movlw	(low ((STR_3-__stringbase)| (0+32768)))& (0+255)
  1285  0EE0  00F3               	movwf	Lcd_Write_String@a
  1286  0EE1  3080               	movlw	128
  1287  0EE2  00F4               	movwf	Lcd_Write_String@a+1
  1288  0EE3  120A  158A  2061  120A  158A  	fcall	_Lcd_Write_String
  1289  0EE8                     l2682:	
  1290                           
  1291                           ;Lab3.c: 99:         Lcd_Set_Cursor(2,1);
  1292  0EE8  01F4               	clrf	Lcd_Set_Cursor@b
  1293  0EE9  0AF4               	incf	Lcd_Set_Cursor@b,f
  1294  0EEA  3002               	movlw	2
  1295  0EEB  160A  118A  2799  120A  158A  	fcall	_Lcd_Set_Cursor
  1296  0EF0                     l2684:	
  1297                           
  1298                           ;Lab3.c: 100:         s1[0] = int_stre(adc11);
  1299  0EF0  1683               	bsf	3,5	;RP0=1, select bank1
  1300  0EF1  1303               	bcf	3,6	;RP1=0, select bank1
  1301  0EF2  0831               	movf	(_adc11+3)^(0+128),w
  1302  0EF3  1283               	bcf	3,5	;RP0=0, select bank0
  1303  0EF4  1303               	bcf	3,6	;RP1=0, select bank0
  1304  0EF5  00D8               	movwf	int_stre@n+3
  1305  0EF6  1683               	bsf	3,5	;RP0=1, select bank1
  1306  0EF7  1303               	bcf	3,6	;RP1=0, select bank1
  1307  0EF8  0830               	movf	(_adc11+2)^(0+128),w
  1308  0EF9  1283               	bcf	3,5	;RP0=0, select bank0
  1309  0EFA  1303               	bcf	3,6	;RP1=0, select bank0
  1310  0EFB  00D7               	movwf	int_stre@n+2
  1311  0EFC  1683               	bsf	3,5	;RP0=1, select bank1
  1312  0EFD  1303               	bcf	3,6	;RP1=0, select bank1
  1313  0EFE  082F               	movf	(_adc11+1)^(0+128),w
  1314  0EFF  1283               	bcf	3,5	;RP0=0, select bank0
  1315  0F00  1303               	bcf	3,6	;RP1=0, select bank0
  1316  0F01  00D6               	movwf	int_stre@n+1
  1317  0F02  1683               	bsf	3,5	;RP0=1, select bank1
  1318  0F03  1303               	bcf	3,6	;RP1=0, select bank1
  1319  0F04  082E               	movf	_adc11^(0+128),w
  1320  0F05  1283               	bcf	3,5	;RP0=0, select bank0
  1321  0F06  1303               	bcf	3,6	;RP1=0, select bank0
  1322  0F07  00D5               	movwf	int_stre@n
  1323  0F08  120A  158A  2263  120A  158A  	fcall	_int_stre
  1324  0F0D  1283               	bcf	3,5	;RP0=0, select bank0
  1325  0F0E  1303               	bcf	3,6	;RP1=0, select bank0
  1326  0F0F  00E7               	movwf	??_main
  1327  0F10  0867               	movf	??_main,w
  1328  0F11  1683               	bsf	3,5	;RP0=1, select bank1
  1329  0F12  1303               	bcf	3,6	;RP1=0, select bank1
  1330  0F13  00B4               	movwf	main@s1^(0+128)
  1331  0F14                     l2686:	
  1332                           
  1333                           ;Lab3.c: 101:         s1[1]='.';
  1334  0F14  302E               	movlw	46
  1335  0F15  1283               	bcf	3,5	;RP0=0, select bank0
  1336  0F16  1303               	bcf	3,6	;RP1=0, select bank0
  1337  0F17  00E7               	movwf	??_main
  1338  0F18  0867               	movf	??_main,w
  1339  0F19  1683               	bsf	3,5	;RP0=1, select bank1
  1340  0F1A  1303               	bcf	3,6	;RP1=0, select bank1
  1341  0F1B  00B5               	movwf	(main@s1^(0+128)+1)
  1342  0F1C                     l2688:	
  1343                           
  1344                           ;Lab3.c: 102:         s1[2] = int_strd(adc11);
  1345  0F1C  0831               	movf	(_adc11+3)^(0+128),w
  1346  0F1D  1283               	bcf	3,5	;RP0=0, select bank0
  1347  0F1E  1303               	bcf	3,6	;RP1=0, select bank0
  1348  0F1F  00D8               	movwf	int_strd@n+3
  1349  0F20  1683               	bsf	3,5	;RP0=1, select bank1
  1350  0F21  1303               	bcf	3,6	;RP1=0, select bank1
  1351  0F22  0830               	movf	(_adc11+2)^(0+128),w
  1352  0F23  1283               	bcf	3,5	;RP0=0, select bank0
  1353  0F24  1303               	bcf	3,6	;RP1=0, select bank0
  1354  0F25  00D7               	movwf	int_strd@n+2
  1355  0F26  1683               	bsf	3,5	;RP0=1, select bank1
  1356  0F27  1303               	bcf	3,6	;RP1=0, select bank1
  1357  0F28  082F               	movf	(_adc11+1)^(0+128),w
  1358  0F29  1283               	bcf	3,5	;RP0=0, select bank0
  1359  0F2A  1303               	bcf	3,6	;RP1=0, select bank0
  1360  0F2B  00D6               	movwf	int_strd@n+1
  1361  0F2C  1683               	bsf	3,5	;RP0=1, select bank1
  1362  0F2D  1303               	bcf	3,6	;RP1=0, select bank1
  1363  0F2E  082E               	movf	_adc11^(0+128),w
  1364  0F2F  1283               	bcf	3,5	;RP0=0, select bank0
  1365  0F30  1303               	bcf	3,6	;RP1=0, select bank0
  1366  0F31  00D5               	movwf	int_strd@n
  1367  0F32  120A  158A  21C3  120A  158A  	fcall	_int_strd
  1368  0F37  1283               	bcf	3,5	;RP0=0, select bank0
  1369  0F38  1303               	bcf	3,6	;RP1=0, select bank0
  1370  0F39  00E7               	movwf	??_main
  1371  0F3A  0867               	movf	??_main,w
  1372  0F3B  1683               	bsf	3,5	;RP0=1, select bank1
  1373  0F3C  1303               	bcf	3,6	;RP1=0, select bank1
  1374  0F3D  00B6               	movwf	(main@s1^(0+128)+2)
  1375  0F3E                     l2690:	
  1376                           
  1377                           ;Lab3.c: 103:         s1[3] = int_strc(adc11);
  1378  0F3E  0831               	movf	(_adc11+3)^(0+128),w
  1379  0F3F  1283               	bcf	3,5	;RP0=0, select bank0
  1380  0F40  1303               	bcf	3,6	;RP1=0, select bank0
  1381  0F41  00D8               	movwf	int_strc@n+3
  1382  0F42  1683               	bsf	3,5	;RP0=1, select bank1
  1383  0F43  1303               	bcf	3,6	;RP1=0, select bank1
  1384  0F44  0830               	movf	(_adc11+2)^(0+128),w
  1385  0F45  1283               	bcf	3,5	;RP0=0, select bank0
  1386  0F46  1303               	bcf	3,6	;RP1=0, select bank0
  1387  0F47  00D7               	movwf	int_strc@n+2
  1388  0F48  1683               	bsf	3,5	;RP0=1, select bank1
  1389  0F49  1303               	bcf	3,6	;RP1=0, select bank1
  1390  0F4A  082F               	movf	(_adc11+1)^(0+128),w
  1391  0F4B  1283               	bcf	3,5	;RP0=0, select bank0
  1392  0F4C  1303               	bcf	3,6	;RP1=0, select bank0
  1393  0F4D  00D6               	movwf	int_strc@n+1
  1394  0F4E  1683               	bsf	3,5	;RP0=1, select bank1
  1395  0F4F  1303               	bcf	3,6	;RP1=0, select bank1
  1396  0F50  082E               	movf	_adc11^(0+128),w
  1397  0F51  1283               	bcf	3,5	;RP0=0, select bank0
  1398  0F52  1303               	bcf	3,6	;RP1=0, select bank0
  1399  0F53  00D5               	movwf	int_strc@n
  1400  0F54  120A  158A  23BD  120A  158A  	fcall	_int_strc
  1401  0F59  1283               	bcf	3,5	;RP0=0, select bank0
  1402  0F5A  1303               	bcf	3,6	;RP1=0, select bank0
  1403  0F5B  00E7               	movwf	??_main
  1404  0F5C  0867               	movf	??_main,w
  1405  0F5D  1683               	bsf	3,5	;RP0=1, select bank1
  1406  0F5E  1303               	bcf	3,6	;RP1=0, select bank1
  1407  0F5F  00B7               	movwf	(main@s1^(0+128)+3)
  1408  0F60                     l2692:	
  1409                           
  1410                           ;Lab3.c: 104:         Lcd_Write_String(s1);
  1411  0F60  30B4               	movlw	(low (main@s1| 0))& (0+255)
  1412  0F61  00F3               	movwf	Lcd_Write_String@a
  1413  0F62  3000               	movlw	0
  1414  0F63  00F4               	movwf	Lcd_Write_String@a+1
  1415  0F64  120A  158A  2061  120A  158A  	fcall	_Lcd_Write_String
  1416  0F69                     l2694:	
  1417                           
  1418                           ;Lab3.c: 105:         Lcd_Set_Cursor(2,6);
  1419  0F69  3006               	movlw	6
  1420  0F6A  1283               	bcf	3,5	;RP0=0, select bank0
  1421  0F6B  1303               	bcf	3,6	;RP1=0, select bank0
  1422  0F6C  00E7               	movwf	??_main
  1423  0F6D  0867               	movf	??_main,w
  1424  0F6E  00F4               	movwf	Lcd_Set_Cursor@b
  1425  0F6F  3002               	movlw	2
  1426  0F70  160A  118A  2799  120A  158A  	fcall	_Lcd_Set_Cursor
  1427  0F75                     l2696:	
  1428                           
  1429                           ;Lab3.c: 106:         s2[0] = int_stre(adc22);
  1430  0F75  1683               	bsf	3,5	;RP0=1, select bank1
  1431  0F76  1303               	bcf	3,6	;RP1=0, select bank1
  1432  0F77  082D               	movf	(_adc22+3)^(0+128),w
  1433  0F78  1283               	bcf	3,5	;RP0=0, select bank0
  1434  0F79  1303               	bcf	3,6	;RP1=0, select bank0
  1435  0F7A  00D8               	movwf	int_stre@n+3
  1436  0F7B  1683               	bsf	3,5	;RP0=1, select bank1
  1437  0F7C  1303               	bcf	3,6	;RP1=0, select bank1
  1438  0F7D  082C               	movf	(_adc22+2)^(0+128),w
  1439  0F7E  1283               	bcf	3,5	;RP0=0, select bank0
  1440  0F7F  1303               	bcf	3,6	;RP1=0, select bank0
  1441  0F80  00D7               	movwf	int_stre@n+2
  1442  0F81  1683               	bsf	3,5	;RP0=1, select bank1
  1443  0F82  1303               	bcf	3,6	;RP1=0, select bank1
  1444  0F83  082B               	movf	(_adc22+1)^(0+128),w
  1445  0F84  1283               	bcf	3,5	;RP0=0, select bank0
  1446  0F85  1303               	bcf	3,6	;RP1=0, select bank0
  1447  0F86  00D6               	movwf	int_stre@n+1
  1448  0F87  1683               	bsf	3,5	;RP0=1, select bank1
  1449  0F88  1303               	bcf	3,6	;RP1=0, select bank1
  1450  0F89  082A               	movf	_adc22^(0+128),w
  1451  0F8A  1283               	bcf	3,5	;RP0=0, select bank0
  1452  0F8B  1303               	bcf	3,6	;RP1=0, select bank0
  1453  0F8C  00D5               	movwf	int_stre@n
  1454  0F8D  120A  158A  2263  120A  158A  	fcall	_int_stre
  1455  0F92  1283               	bcf	3,5	;RP0=0, select bank0
  1456  0F93  1303               	bcf	3,6	;RP1=0, select bank0
  1457  0F94  00E7               	movwf	??_main
  1458  0F95  0867               	movf	??_main,w
  1459  0F96  1683               	bsf	3,5	;RP0=1, select bank1
  1460  0F97  1303               	bcf	3,6	;RP1=0, select bank1
  1461  0F98  00B9               	movwf	main@s2^(0+128)
  1462  0F99                     l2698:	
  1463                           
  1464                           ;Lab3.c: 107:         s2[1]='.';
  1465  0F99  302E               	movlw	46
  1466  0F9A  1283               	bcf	3,5	;RP0=0, select bank0
  1467  0F9B  1303               	bcf	3,6	;RP1=0, select bank0
  1468  0F9C  00E7               	movwf	??_main
  1469  0F9D  0867               	movf	??_main,w
  1470  0F9E  1683               	bsf	3,5	;RP0=1, select bank1
  1471  0F9F  1303               	bcf	3,6	;RP1=0, select bank1
  1472  0FA0  00BA               	movwf	(main@s2^(0+128)+1)
  1473  0FA1                     l2700:	
  1474                           
  1475                           ;Lab3.c: 108:         s2[2] = int_strd(adc22);
  1476  0FA1  082D               	movf	(_adc22+3)^(0+128),w
  1477  0FA2  1283               	bcf	3,5	;RP0=0, select bank0
  1478  0FA3  1303               	bcf	3,6	;RP1=0, select bank0
  1479  0FA4  00D8               	movwf	int_strd@n+3
  1480  0FA5  1683               	bsf	3,5	;RP0=1, select bank1
  1481  0FA6  1303               	bcf	3,6	;RP1=0, select bank1
  1482  0FA7  082C               	movf	(_adc22+2)^(0+128),w
  1483  0FA8  1283               	bcf	3,5	;RP0=0, select bank0
  1484  0FA9  1303               	bcf	3,6	;RP1=0, select bank0
  1485  0FAA  00D7               	movwf	int_strd@n+2
  1486  0FAB  1683               	bsf	3,5	;RP0=1, select bank1
  1487  0FAC  1303               	bcf	3,6	;RP1=0, select bank1
  1488  0FAD  082B               	movf	(_adc22+1)^(0+128),w
  1489  0FAE  1283               	bcf	3,5	;RP0=0, select bank0
  1490  0FAF  1303               	bcf	3,6	;RP1=0, select bank0
  1491  0FB0  00D6               	movwf	int_strd@n+1
  1492  0FB1  1683               	bsf	3,5	;RP0=1, select bank1
  1493  0FB2  1303               	bcf	3,6	;RP1=0, select bank1
  1494  0FB3  082A               	movf	_adc22^(0+128),w
  1495  0FB4  1283               	bcf	3,5	;RP0=0, select bank0
  1496  0FB5  1303               	bcf	3,6	;RP1=0, select bank0
  1497  0FB6  00D5               	movwf	int_strd@n
  1498  0FB7  120A  158A  21C3  120A  158A  	fcall	_int_strd
  1499  0FBC  1283               	bcf	3,5	;RP0=0, select bank0
  1500  0FBD  1303               	bcf	3,6	;RP1=0, select bank0
  1501  0FBE  00E7               	movwf	??_main
  1502  0FBF  0867               	movf	??_main,w
  1503  0FC0  1683               	bsf	3,5	;RP0=1, select bank1
  1504  0FC1  1303               	bcf	3,6	;RP1=0, select bank1
  1505  0FC2  00BB               	movwf	(main@s2^(0+128)+2)
  1506  0FC3                     l2702:	
  1507                           
  1508                           ;Lab3.c: 109:         s2[3] = int_strc(adc22);
  1509  0FC3  082D               	movf	(_adc22+3)^(0+128),w
  1510  0FC4  1283               	bcf	3,5	;RP0=0, select bank0
  1511  0FC5  1303               	bcf	3,6	;RP1=0, select bank0
  1512  0FC6  00D8               	movwf	int_strc@n+3
  1513  0FC7  1683               	bsf	3,5	;RP0=1, select bank1
  1514  0FC8  1303               	bcf	3,6	;RP1=0, select bank1
  1515  0FC9  082C               	movf	(_adc22+2)^(0+128),w
  1516  0FCA  1283               	bcf	3,5	;RP0=0, select bank0
  1517  0FCB  1303               	bcf	3,6	;RP1=0, select bank0
  1518  0FCC  00D7               	movwf	int_strc@n+2
  1519  0FCD  1683               	bsf	3,5	;RP0=1, select bank1
  1520  0FCE  1303               	bcf	3,6	;RP1=0, select bank1
  1521  0FCF  082B               	movf	(_adc22+1)^(0+128),w
  1522  0FD0  1283               	bcf	3,5	;RP0=0, select bank0
  1523  0FD1  1303               	bcf	3,6	;RP1=0, select bank0
  1524  0FD2  00D6               	movwf	int_strc@n+1
  1525  0FD3  1683               	bsf	3,5	;RP0=1, select bank1
  1526  0FD4  1303               	bcf	3,6	;RP1=0, select bank1
  1527  0FD5  082A               	movf	_adc22^(0+128),w
  1528  0FD6  1283               	bcf	3,5	;RP0=0, select bank0
  1529  0FD7  1303               	bcf	3,6	;RP1=0, select bank0
  1530  0FD8  00D5               	movwf	int_strc@n
  1531  0FD9  120A  158A  23BD  120A  158A  	fcall	_int_strc
  1532  0FDE  1283               	bcf	3,5	;RP0=0, select bank0
  1533  0FDF  1303               	bcf	3,6	;RP1=0, select bank0
  1534  0FE0  00E7               	movwf	??_main
  1535  0FE1  0867               	movf	??_main,w
  1536  0FE2  1683               	bsf	3,5	;RP0=1, select bank1
  1537  0FE3  1303               	bcf	3,6	;RP1=0, select bank1
  1538  0FE4  00BC               	movwf	(main@s2^(0+128)+3)
  1539  0FE5                     l2704:	
  1540                           
  1541                           ;Lab3.c: 110:         Lcd_Write_String(s2);
  1542  0FE5  30B9               	movlw	(low (main@s2| 0))& (0+255)
  1543  0FE6  00F3               	movwf	Lcd_Write_String@a
  1544  0FE7  3000               	movlw	0
  1545  0FE8  00F4               	movwf	Lcd_Write_String@a+1
  1546  0FE9  120A  158A  2061  120A  158A  	fcall	_Lcd_Write_String
  1547  0FEE                     l2706:	
  1548                           
  1549                           ;Lab3.c: 111:         _delay((unsigned long)((2000)*(4000000/4000.0)));
  1550  0FEE  300B               	movlw	11
  1551  0FEF  1283               	bcf	3,5	;RP0=0, select bank0
  1552  0FF0  1303               	bcf	3,6	;RP1=0, select bank0
  1553  0FF1  00E9               	movwf	??_main+2
  1554  0FF2  3026               	movlw	38
  1555  0FF3  00E8               	movwf	??_main+1
  1556  0FF4  305D               	movlw	93
  1557  0FF5  00E7               	movwf	??_main
  1558  0FF6                     u3197:	
  1559  0FF6  0BE7               	decfsz	??_main,f
  1560  0FF7  2FF6               	goto	u3197
  1561  0FF8  0BE8               	decfsz	??_main+1,f
  1562  0FF9  2FF6               	goto	u3197
  1563  0FFA  0BE9               	decfsz	??_main+2,f
  1564  0FFB  2FF6               	goto	u3197
  1565  0FFC  2DE3               	goto	l2646
  1566  0FFD  120A  118A  2800   	ljmp	start
  1567  1000                     __end_of_main:	
  1568                           
  1569                           	psect	text1
  1570  0A63                     __ptext1:	
  1571 ;; *************** function _int_stre *****************
  1572 ;; Defined at:
  1573 ;;		line 115 in file "Lab3.c"
  1574 ;; Parameters:    Size  Location     Type
  1575 ;;  n               4   53[BANK0 ] float 
  1576 ;; Auto vars:     Size  Location     Type
  1577 ;;  loca            1   68[BANK0 ] unsigned char 
  1578 ;;  d               1   67[BANK0 ] unsigned char 
  1579 ;;  e               1   66[BANK0 ] unsigned char 
  1580 ;;  c1              1   65[BANK0 ] unsigned char 
  1581 ;;  c               1   64[BANK0 ] unsigned char 
  1582 ;;  c3              1    0        unsigned char 
  1583 ;;  c2              1    0        unsigned char 
  1584 ;; Return value:  Size  Location     Type
  1585 ;;                  1    wreg      unsigned char 
  1586 ;; Registers used:
  1587 ;;		wreg, fsr0l, fsr0h, status,2, status,0, btemp+1, pclath, cstack
  1588 ;; Tracked objects:
  1589 ;;		On entry : 0/0
  1590 ;;		On exit  : 0/0
  1591 ;;		Unchanged: 0/0
  1592 ;; Data sizes:     COMMON   BANK0   BANK1   BANK3   BANK2
  1593 ;;      Params:         0       4       0       0       0
  1594 ;;      Locals:         0       7       0       0       0
  1595 ;;      Temps:          0       5       0       0       0
  1596 ;;      Totals:         0      16       0       0       0
  1597 ;;Total ram usage:       16 bytes
  1598 ;; Hardware stack levels used:    1
  1599 ;; Hardware stack levels required when called:    2
  1600 ;; This function calls:
  1601 ;;		___bmul
  1602 ;;		___flmul
  1603 ;;		___flsub
  1604 ;;		___fltol
  1605 ;;		___xxtofl
  1606 ;;		_num_case
  1607 ;; This function is called by:
  1608 ;;		_main
  1609 ;; This function uses a non-reentrant model
  1610 ;;
  1611                           
  1612                           
  1613                           ;psect for function _int_stre
  1614  0A63                     _int_stre:	
  1615  0A63                     l2428:	
  1616                           ;incstack = 0
  1617                           ; Regs used in _int_stre: [wreg-fsr0h+status,2+status,0+btemp+1+pclath+cstack]
  1618                           
  1619                           
  1620                           ;Lab3.c: 116:     uint8_t e;;Lab3.c: 117:     uint8_t d;;Lab3.c: 118:     uint8_t c;;Lab
      +                          3.c: 119:     uint8_t loca;;Lab3.c: 120:     char c1;;Lab3.c: 121:     char c2;;Lab3.c: 
      +                          122:     char c3;;Lab3.c: 124:     e = n;
  1621  0A63  1283               	bcf	3,5	;RP0=0, select bank0
  1622  0A64  1303               	bcf	3,6	;RP1=0, select bank0
  1623  0A65  0858               	movf	int_stre@n+3,w
  1624  0A66  00CD               	movwf	___fltol@f1+3
  1625  0A67  0857               	movf	int_stre@n+2,w
  1626  0A68  00CC               	movwf	___fltol@f1+2
  1627  0A69  0856               	movf	int_stre@n+1,w
  1628  0A6A  00CB               	movwf	___fltol@f1+1
  1629  0A6B  0855               	movf	int_stre@n,w
  1630  0A6C  00CA               	movwf	___fltol@f1
  1631  0A6D  120A  158A  2147  120A  158A  	fcall	___fltol
  1632  0A72  1283               	bcf	3,5	;RP0=0, select bank0
  1633  0A73  1303               	bcf	3,6	;RP1=0, select bank0
  1634  0A74  084A               	movf	?___fltol,w
  1635  0A75  00D9               	movwf	??_int_stre
  1636  0A76  0859               	movf	??_int_stre,w
  1637  0A77  00E2               	movwf	int_stre@e
  1638  0A78                     l2430:	
  1639                           
  1640                           ;Lab3.c: 125:     c1 = num_case(e);
  1641  0A78  0862               	movf	int_stre@e,w
  1642  0A79  120A  158A  20E9  120A  158A  	fcall	_num_case
  1643  0A7E  1283               	bcf	3,5	;RP0=0, select bank0
  1644  0A7F  1303               	bcf	3,6	;RP1=0, select bank0
  1645  0A80  00D9               	movwf	??_int_stre
  1646  0A81  0859               	movf	??_int_stre,w
  1647  0A82  00E1               	movwf	int_stre@c1
  1648  0A83                     l2432:	
  1649                           
  1650                           ;Lab3.c: 126:     loca = (n - e)*10;
  1651  0A83  0858               	movf	int_stre@n+3,w
  1652  0A84  00AF               	movwf	___flsub@b+3
  1653  0A85  0857               	movf	int_stre@n+2,w
  1654  0A86  00AE               	movwf	___flsub@b+2
  1655  0A87  0856               	movf	int_stre@n+1,w
  1656  0A88  00AD               	movwf	___flsub@b+1
  1657  0A89  0855               	movf	int_stre@n,w
  1658  0A8A  00AC               	movwf	___flsub@b
  1659  0A8B  0862               	movf	int_stre@e,w
  1660  0A8C  00D9               	movwf	??_int_stre
  1661  0A8D  01DA               	clrf	??_int_stre+1
  1662  0A8E  01DB               	clrf	??_int_stre+2
  1663  0A8F  01DC               	clrf	??_int_stre+3
  1664  0A90  085C               	movf	??_int_stre+3,w
  1665  0A91  00F3               	movwf	___xxtofl@val+3
  1666  0A92  085B               	movf	??_int_stre+2,w
  1667  0A93  00F2               	movwf	___xxtofl@val+2
  1668  0A94  085A               	movf	??_int_stre+1,w
  1669  0A95  00F1               	movwf	___xxtofl@val+1
  1670  0A96  0859               	movf	??_int_stre,w
  1671  0A97  00F0               	movwf	___xxtofl@val
  1672  0A98  3001               	movlw	1
  1673  0A99  120A  158A  2303  120A  158A  	fcall	___xxtofl
  1674  0A9E  0873               	movf	?___xxtofl+3,w
  1675  0A9F  1283               	bcf	3,5	;RP0=0, select bank0
  1676  0AA0  1303               	bcf	3,6	;RP1=0, select bank0
  1677  0AA1  00AB               	movwf	___flsub@a+3
  1678  0AA2  0872               	movf	?___xxtofl+2,w
  1679  0AA3  00AA               	movwf	___flsub@a+2
  1680  0AA4  0871               	movf	?___xxtofl+1,w
  1681  0AA5  00A9               	movwf	___flsub@a+1
  1682  0AA6  0870               	movf	?___xxtofl,w
  1683  0AA7  00A8               	movwf	___flsub@a
  1684  0AA8  160A  118A  27B5  120A  158A  	fcall	___flsub
  1685  0AAD  1283               	bcf	3,5	;RP0=0, select bank0
  1686  0AAE  1303               	bcf	3,6	;RP1=0, select bank0
  1687  0AAF  082B               	movf	?___flsub+3,w
  1688  0AB0  00B7               	movwf	___flmul@a+3
  1689  0AB1  082A               	movf	?___flsub+2,w
  1690  0AB2  00B6               	movwf	___flmul@a+2
  1691  0AB3  0829               	movf	?___flsub+1,w
  1692  0AB4  00B5               	movwf	___flmul@a+1
  1693  0AB5  0828               	movf	?___flsub,w
  1694  0AB6  00B4               	movwf	___flmul@a
  1695  0AB7  3041               	movlw	65
  1696  0AB8  00B3               	movwf	___flmul@b+3
  1697  0AB9  3020               	movlw	32
  1698  0ABA  00B2               	movwf	___flmul@b+2
  1699  0ABB  3000               	movlw	0
  1700  0ABC  00B1               	movwf	___flmul@b+1
  1701  0ABD  3000               	movlw	0
  1702  0ABE  00B0               	movwf	___flmul@b
  1703  0ABF  120A  118A  248E  120A  158A  	fcall	___flmul
  1704  0AC4  1283               	bcf	3,5	;RP0=0, select bank0
  1705  0AC5  1303               	bcf	3,6	;RP1=0, select bank0
  1706  0AC6  0833               	movf	?___flmul+3,w
  1707  0AC7  00CD               	movwf	___fltol@f1+3
  1708  0AC8  0832               	movf	?___flmul+2,w
  1709  0AC9  00CC               	movwf	___fltol@f1+2
  1710  0ACA  0831               	movf	?___flmul+1,w
  1711  0ACB  00CB               	movwf	___fltol@f1+1
  1712  0ACC  0830               	movf	?___flmul,w
  1713  0ACD  00CA               	movwf	___fltol@f1
  1714  0ACE  120A  158A  2147  120A  158A  	fcall	___fltol
  1715  0AD3  1283               	bcf	3,5	;RP0=0, select bank0
  1716  0AD4  1303               	bcf	3,6	;RP1=0, select bank0
  1717  0AD5  084A               	movf	?___fltol,w
  1718  0AD6  00DD               	movwf	??_int_stre+4
  1719  0AD7  085D               	movf	??_int_stre+4,w
  1720  0AD8  00E4               	movwf	int_stre@loca
  1721  0AD9                     l2434:	
  1722                           
  1723                           ;Lab3.c: 127:     d = loca;
  1724  0AD9  0864               	movf	int_stre@loca,w
  1725  0ADA  00D9               	movwf	??_int_stre
  1726  0ADB  0859               	movf	??_int_stre,w
  1727  0ADC  00E3               	movwf	int_stre@d
  1728  0ADD                     l2436:	
  1729  0ADD  0863               	movf	int_stre@d,w
  1730  0ADE  120A  158A  20E9  120A  158A  	fcall	_num_case
  1731  0AE3                     l2438:	
  1732                           
  1733                           ;Lab3.c: 129:     loca = (loca-d)*10;
  1734  0AE3  300A               	movlw	10
  1735  0AE4  1283               	bcf	3,5	;RP0=0, select bank0
  1736  0AE5  1303               	bcf	3,6	;RP1=0, select bank0
  1737  0AE6  00D9               	movwf	??_int_stre
  1738  0AE7  0859               	movf	??_int_stre,w
  1739  0AE8  00F0               	movwf	___bmul@multiplicand
  1740  0AE9  0863               	movf	int_stre@d,w
  1741  0AEA  0264               	subwf	int_stre@loca,w
  1742  0AEB  120A  118A  2004  120A  158A  	fcall	___bmul
  1743  0AF0  1283               	bcf	3,5	;RP0=0, select bank0
  1744  0AF1  1303               	bcf	3,6	;RP1=0, select bank0
  1745  0AF2  00DA               	movwf	??_int_stre+1
  1746  0AF3  085A               	movf	??_int_stre+1,w
  1747  0AF4  00E4               	movwf	int_stre@loca
  1748  0AF5                     l2440:	
  1749                           
  1750                           ;Lab3.c: 130:     c = loca;
  1751  0AF5  0864               	movf	int_stre@loca,w
  1752  0AF6  00D9               	movwf	??_int_stre
  1753  0AF7  0859               	movf	??_int_stre,w
  1754  0AF8  00E0               	movwf	int_stre@c
  1755  0AF9                     l2442:	
  1756  0AF9  0860               	movf	int_stre@c,w
  1757  0AFA  120A  158A  20E9  120A  158A  	fcall	_num_case
  1758  0AFF                     l2444:	
  1759                           
  1760                           ;Lab3.c: 132:     return c1;
  1761  0AFF  1283               	bcf	3,5	;RP0=0, select bank0
  1762  0B00  1303               	bcf	3,6	;RP1=0, select bank0
  1763  0B01  0861               	movf	int_stre@c1,w
  1764  0B02                     l138:	
  1765  0B02  0008               	return
  1766  0B03                     __end_of_int_stre:	
  1767                           
  1768                           	psect	text2
  1769  09C3                     __ptext2:	
  1770 ;; *************** function _int_strd *****************
  1771 ;; Defined at:
  1772 ;;		line 135 in file "Lab3.c"
  1773 ;; Parameters:    Size  Location     Type
  1774 ;;  n               4   53[BANK0 ] float 
  1775 ;; Auto vars:     Size  Location     Type
  1776 ;;  loca            1   68[BANK0 ] unsigned char 
  1777 ;;  d               1   67[BANK0 ] unsigned char 
  1778 ;;  e               1   66[BANK0 ] unsigned char 
  1779 ;;  c2              1   65[BANK0 ] unsigned char 
  1780 ;;  c               1   64[BANK0 ] unsigned char 
  1781 ;;  c3              1    0        unsigned char 
  1782 ;;  c1              1    0        unsigned char 
  1783 ;; Return value:  Size  Location     Type
  1784 ;;                  1    wreg      unsigned char 
  1785 ;; Registers used:
  1786 ;;		wreg, fsr0l, fsr0h, status,2, status,0, btemp+1, pclath, cstack
  1787 ;; Tracked objects:
  1788 ;;		On entry : 0/0
  1789 ;;		On exit  : 0/0
  1790 ;;		Unchanged: 0/0
  1791 ;; Data sizes:     COMMON   BANK0   BANK1   BANK3   BANK2
  1792 ;;      Params:         0       4       0       0       0
  1793 ;;      Locals:         0       7       0       0       0
  1794 ;;      Temps:          0       5       0       0       0
  1795 ;;      Totals:         0      16       0       0       0
  1796 ;;Total ram usage:       16 bytes
  1797 ;; Hardware stack levels used:    1
  1798 ;; Hardware stack levels required when called:    2
  1799 ;; This function calls:
  1800 ;;		___bmul
  1801 ;;		___flmul
  1802 ;;		___flsub
  1803 ;;		___fltol
  1804 ;;		___xxtofl
  1805 ;;		_num_case
  1806 ;; This function is called by:
  1807 ;;		_main
  1808 ;; This function uses a non-reentrant model
  1809 ;;
  1810                           
  1811                           
  1812                           ;psect for function _int_strd
  1813  09C3                     _int_strd:	
  1814  09C3                     l2448:	
  1815                           ;incstack = 0
  1816                           ; Regs used in _int_strd: [wreg-fsr0h+status,2+status,0+btemp+1+pclath+cstack]
  1817                           
  1818                           
  1819                           ;Lab3.c: 136:     uint8_t e;;Lab3.c: 137:     uint8_t d;;Lab3.c: 138:     uint8_t c;;Lab
      +                          3.c: 139:     uint8_t loca;;Lab3.c: 140:     char c1;;Lab3.c: 141:     char c2;;Lab3.c: 
      +                          142:     char c3;;Lab3.c: 144:     e = n;
  1820  09C3  1283               	bcf	3,5	;RP0=0, select bank0
  1821  09C4  1303               	bcf	3,6	;RP1=0, select bank0
  1822  09C5  0858               	movf	int_strd@n+3,w
  1823  09C6  00CD               	movwf	___fltol@f1+3
  1824  09C7  0857               	movf	int_strd@n+2,w
  1825  09C8  00CC               	movwf	___fltol@f1+2
  1826  09C9  0856               	movf	int_strd@n+1,w
  1827  09CA  00CB               	movwf	___fltol@f1+1
  1828  09CB  0855               	movf	int_strd@n,w
  1829  09CC  00CA               	movwf	___fltol@f1
  1830  09CD  120A  158A  2147  120A  158A  	fcall	___fltol
  1831  09D2  1283               	bcf	3,5	;RP0=0, select bank0
  1832  09D3  1303               	bcf	3,6	;RP1=0, select bank0
  1833  09D4  084A               	movf	?___fltol,w
  1834  09D5  00D9               	movwf	??_int_strd
  1835  09D6  0859               	movf	??_int_strd,w
  1836  09D7  00E2               	movwf	int_strd@e
  1837  09D8                     l2450:	
  1838  09D8  0862               	movf	int_strd@e,w
  1839  09D9  120A  158A  20E9  120A  158A  	fcall	_num_case
  1840  09DE                     l2452:	
  1841                           
  1842                           ;Lab3.c: 146:     loca = (n - e)*10;
  1843  09DE  1283               	bcf	3,5	;RP0=0, select bank0
  1844  09DF  1303               	bcf	3,6	;RP1=0, select bank0
  1845  09E0  0858               	movf	int_strd@n+3,w
  1846  09E1  00AF               	movwf	___flsub@b+3
  1847  09E2  0857               	movf	int_strd@n+2,w
  1848  09E3  00AE               	movwf	___flsub@b+2
  1849  09E4  0856               	movf	int_strd@n+1,w
  1850  09E5  00AD               	movwf	___flsub@b+1
  1851  09E6  0855               	movf	int_strd@n,w
  1852  09E7  00AC               	movwf	___flsub@b
  1853  09E8  0862               	movf	int_strd@e,w
  1854  09E9  00D9               	movwf	??_int_strd
  1855  09EA  01DA               	clrf	??_int_strd+1
  1856  09EB  01DB               	clrf	??_int_strd+2
  1857  09EC  01DC               	clrf	??_int_strd+3
  1858  09ED  085C               	movf	??_int_strd+3,w
  1859  09EE  00F3               	movwf	___xxtofl@val+3
  1860  09EF  085B               	movf	??_int_strd+2,w
  1861  09F0  00F2               	movwf	___xxtofl@val+2
  1862  09F1  085A               	movf	??_int_strd+1,w
  1863  09F2  00F1               	movwf	___xxtofl@val+1
  1864  09F3  0859               	movf	??_int_strd,w
  1865  09F4  00F0               	movwf	___xxtofl@val
  1866  09F5  3001               	movlw	1
  1867  09F6  120A  158A  2303  120A  158A  	fcall	___xxtofl
  1868  09FB  0873               	movf	?___xxtofl+3,w
  1869  09FC  1283               	bcf	3,5	;RP0=0, select bank0
  1870  09FD  1303               	bcf	3,6	;RP1=0, select bank0
  1871  09FE  00AB               	movwf	___flsub@a+3
  1872  09FF  0872               	movf	?___xxtofl+2,w
  1873  0A00  00AA               	movwf	___flsub@a+2
  1874  0A01  0871               	movf	?___xxtofl+1,w
  1875  0A02  00A9               	movwf	___flsub@a+1
  1876  0A03  0870               	movf	?___xxtofl,w
  1877  0A04  00A8               	movwf	___flsub@a
  1878  0A05  160A  118A  27B5  120A  158A  	fcall	___flsub
  1879  0A0A  1283               	bcf	3,5	;RP0=0, select bank0
  1880  0A0B  1303               	bcf	3,6	;RP1=0, select bank0
  1881  0A0C  082B               	movf	?___flsub+3,w
  1882  0A0D  00B7               	movwf	___flmul@a+3
  1883  0A0E  082A               	movf	?___flsub+2,w
  1884  0A0F  00B6               	movwf	___flmul@a+2
  1885  0A10  0829               	movf	?___flsub+1,w
  1886  0A11  00B5               	movwf	___flmul@a+1
  1887  0A12  0828               	movf	?___flsub,w
  1888  0A13  00B4               	movwf	___flmul@a
  1889  0A14  3041               	movlw	65
  1890  0A15  00B3               	movwf	___flmul@b+3
  1891  0A16  3020               	movlw	32
  1892  0A17  00B2               	movwf	___flmul@b+2
  1893  0A18  3000               	movlw	0
  1894  0A19  00B1               	movwf	___flmul@b+1
  1895  0A1A  3000               	movlw	0
  1896  0A1B  00B0               	movwf	___flmul@b
  1897  0A1C  120A  118A  248E  120A  158A  	fcall	___flmul
  1898  0A21  1283               	bcf	3,5	;RP0=0, select bank0
  1899  0A22  1303               	bcf	3,6	;RP1=0, select bank0
  1900  0A23  0833               	movf	?___flmul+3,w
  1901  0A24  00CD               	movwf	___fltol@f1+3
  1902  0A25  0832               	movf	?___flmul+2,w
  1903  0A26  00CC               	movwf	___fltol@f1+2
  1904  0A27  0831               	movf	?___flmul+1,w
  1905  0A28  00CB               	movwf	___fltol@f1+1
  1906  0A29  0830               	movf	?___flmul,w
  1907  0A2A  00CA               	movwf	___fltol@f1
  1908  0A2B  120A  158A  2147  120A  158A  	fcall	___fltol
  1909  0A30  1283               	bcf	3,5	;RP0=0, select bank0
  1910  0A31  1303               	bcf	3,6	;RP1=0, select bank0
  1911  0A32  084A               	movf	?___fltol,w
  1912  0A33  00DD               	movwf	??_int_strd+4
  1913  0A34  085D               	movf	??_int_strd+4,w
  1914  0A35  00E4               	movwf	int_strd@loca
  1915  0A36                     l2454:	
  1916                           
  1917                           ;Lab3.c: 147:     d = loca;
  1918  0A36  0864               	movf	int_strd@loca,w
  1919  0A37  00D9               	movwf	??_int_strd
  1920  0A38  0859               	movf	??_int_strd,w
  1921  0A39  00E3               	movwf	int_strd@d
  1922  0A3A                     l2456:	
  1923                           
  1924                           ;Lab3.c: 148:     c2 = num_case(d);
  1925  0A3A  0863               	movf	int_strd@d,w
  1926  0A3B  120A  158A  20E9  120A  158A  	fcall	_num_case
  1927  0A40  1283               	bcf	3,5	;RP0=0, select bank0
  1928  0A41  1303               	bcf	3,6	;RP1=0, select bank0
  1929  0A42  00D9               	movwf	??_int_strd
  1930  0A43  0859               	movf	??_int_strd,w
  1931  0A44  00E1               	movwf	int_strd@c2
  1932  0A45                     l2458:	
  1933                           
  1934                           ;Lab3.c: 149:     loca = (loca-d)*10;
  1935  0A45  300A               	movlw	10
  1936  0A46  00D9               	movwf	??_int_strd
  1937  0A47  0859               	movf	??_int_strd,w
  1938  0A48  00F0               	movwf	___bmul@multiplicand
  1939  0A49  0863               	movf	int_strd@d,w
  1940  0A4A  0264               	subwf	int_strd@loca,w
  1941  0A4B  120A  118A  2004  120A  158A  	fcall	___bmul
  1942  0A50  1283               	bcf	3,5	;RP0=0, select bank0
  1943  0A51  1303               	bcf	3,6	;RP1=0, select bank0
  1944  0A52  00DA               	movwf	??_int_strd+1
  1945  0A53  085A               	movf	??_int_strd+1,w
  1946  0A54  00E4               	movwf	int_strd@loca
  1947  0A55                     l2460:	
  1948                           
  1949                           ;Lab3.c: 150:     c = loca;
  1950  0A55  0864               	movf	int_strd@loca,w
  1951  0A56  00D9               	movwf	??_int_strd
  1952  0A57  0859               	movf	??_int_strd,w
  1953  0A58  00E0               	movwf	int_strd@c
  1954  0A59                     l2462:	
  1955  0A59  0860               	movf	int_strd@c,w
  1956  0A5A  120A  158A  20E9  120A  158A  	fcall	_num_case
  1957  0A5F                     l2464:	
  1958                           
  1959                           ;Lab3.c: 152:     return c2;
  1960  0A5F  1283               	bcf	3,5	;RP0=0, select bank0
  1961  0A60  1303               	bcf	3,6	;RP1=0, select bank0
  1962  0A61  0861               	movf	int_strd@c2,w
  1963  0A62                     l141:	
  1964  0A62  0008               	return
  1965  0A63                     __end_of_int_strd:	
  1966                           
  1967                           	psect	text3
  1968  0004                     __ptext3:	
  1969 ;; *************** function ___bmul *****************
  1970 ;; Defined at:
  1971 ;;		line 4 in file "C:\Program Files (x86)\Microchip\xc8\v2.10\pic\sources\c90\common\Umul8.c"
  1972 ;; Parameters:    Size  Location     Type
  1973 ;;  multiplier      1    wreg     unsigned char 
  1974 ;;  multiplicand    1    0[COMMON] unsigned char 
  1975 ;; Auto vars:     Size  Location     Type
  1976 ;;  multiplier      1    3[COMMON] unsigned char 
  1977 ;;  product         1    2[COMMON] unsigned char 
  1978 ;; Return value:  Size  Location     Type
  1979 ;;                  1    wreg      unsigned char 
  1980 ;; Registers used:
  1981 ;;		wreg, status,2, status,0
  1982 ;; Tracked objects:
  1983 ;;		On entry : 0/0
  1984 ;;		On exit  : 0/0
  1985 ;;		Unchanged: 0/0
  1986 ;; Data sizes:     COMMON   BANK0   BANK1   BANK3   BANK2
  1987 ;;      Params:         1       0       0       0       0
  1988 ;;      Locals:         2       0       0       0       0
  1989 ;;      Temps:          1       0       0       0       0
  1990 ;;      Totals:         4       0       0       0       0
  1991 ;;Total ram usage:        4 bytes
  1992 ;; Hardware stack levels used:    1
  1993 ;; This function calls:
  1994 ;;		Nothing
  1995 ;; This function is called by:
  1996 ;;		_int_stre
  1997 ;;		_int_strd
  1998 ;; This function uses a non-reentrant model
  1999 ;;
  2000                           
  2001                           
  2002                           ;psect for function ___bmul
  2003  0004                     ___bmul:	
  2004                           
  2005                           ;incstack = 0
  2006                           ; Regs used in ___bmul: [wreg+status,2+status,0]
  2007                           ;___bmul@multiplier stored from wreg
  2008  0004  00F3               	movwf	___bmul@multiplier
  2009  0005                     l2072:	
  2010  0005  01F2               	clrf	___bmul@product
  2011  0006                     l2074:	
  2012  0006  1C73               	btfss	___bmul@multiplier,0
  2013  0007  2809               	goto	u2161
  2014  0008  280A               	goto	u2160
  2015  0009                     u2161:	
  2016  0009  280E               	goto	l2078
  2017  000A                     u2160:	
  2018  000A                     l2076:	
  2019  000A  0870               	movf	___bmul@multiplicand,w
  2020  000B  00F1               	movwf	??___bmul
  2021  000C  0871               	movf	??___bmul,w
  2022  000D  07F2               	addwf	___bmul@product,f
  2023  000E                     l2078:	
  2024  000E  1003               	clrc
  2025  000F  0DF0               	rlf	___bmul@multiplicand,f
  2026  0010                     l2080:	
  2027  0010  1003               	clrc
  2028  0011  0CF3               	rrf	___bmul@multiplier,f
  2029  0012  0873               	movf	___bmul@multiplier,w
  2030  0013  1D03               	btfss	3,2
  2031  0014  2816               	goto	u2171
  2032  0015  2817               	goto	u2170
  2033  0016                     u2171:	
  2034  0016  2806               	goto	l2074
  2035  0017                     u2170:	
  2036  0017                     l2082:	
  2037  0017  0872               	movf	___bmul@product,w
  2038  0018                     l324:	
  2039  0018  0008               	return
  2040  0019                     __end_of___bmul:	
  2041                           
  2042                           	psect	text4
  2043  0BBD                     __ptext4:	
  2044 ;; *************** function _int_strc *****************
  2045 ;; Defined at:
  2046 ;;		line 154 in file "Lab3.c"
  2047 ;; Parameters:    Size  Location     Type
  2048 ;;  n               4   53[BANK0 ] float 
  2049 ;; Auto vars:     Size  Location     Type
  2050 ;;  loca            4   67[BANK0 ] float 
  2051 ;;  d               1   66[BANK0 ] unsigned char 
  2052 ;;  e               1   65[BANK0 ] unsigned char 
  2053 ;;  c3              1   64[BANK0 ] unsigned char 
  2054 ;;  c               1   63[BANK0 ] unsigned char 
  2055 ;;  c2              1    0        unsigned char 
  2056 ;;  c1              1    0        unsigned char 
  2057 ;; Return value:  Size  Location     Type
  2058 ;;                  1    wreg      unsigned char 
  2059 ;; Registers used:
  2060 ;;		wreg, fsr0l, fsr0h, status,2, status,0, btemp+1, pclath, cstack
  2061 ;; Tracked objects:
  2062 ;;		On entry : 0/0
  2063 ;;		On exit  : 0/0
  2064 ;;		Unchanged: 0/0
  2065 ;; Data sizes:     COMMON   BANK0   BANK1   BANK3   BANK2
  2066 ;;      Params:         0       4       0       0       0
  2067 ;;      Locals:         0      10       0       0       0
  2068 ;;      Temps:          0       4       0       0       0
  2069 ;;      Totals:         0      18       0       0       0
  2070 ;;Total ram usage:       18 bytes
  2071 ;; Hardware stack levels used:    1
  2072 ;; Hardware stack levels required when called:    2
  2073 ;; This function calls:
  2074 ;;		___flmul
  2075 ;;		___flsub
  2076 ;;		___fltol
  2077 ;;		___xxtofl
  2078 ;;		_num_case
  2079 ;; This function is called by:
  2080 ;;		_main
  2081 ;; This function uses a non-reentrant model
  2082 ;;
  2083                           
  2084                           
  2085                           ;psect for function _int_strc
  2086  0BBD                     _int_strc:	
  2087  0BBD                     l2468:	
  2088                           ;incstack = 0
  2089                           ; Regs used in _int_strc: [wreg-fsr0h+status,2+status,0+btemp+1+pclath+cstack]
  2090                           
  2091                           
  2092                           ;Lab3.c: 155:     uint8_t e;;Lab3.c: 156:     uint8_t d;;Lab3.c: 157:     uint8_t c;;Lab
      +                          3.c: 158:     float loca;;Lab3.c: 159:     char c1;;Lab3.c: 160:     char c2;;Lab3.c: 16
      +                          1:     char c3;;Lab3.c: 163:     e = n;
  2093  0BBD  1283               	bcf	3,5	;RP0=0, select bank0
  2094  0BBE  1303               	bcf	3,6	;RP1=0, select bank0
  2095  0BBF  0858               	movf	int_strc@n+3,w
  2096  0BC0  00CD               	movwf	___fltol@f1+3
  2097  0BC1  0857               	movf	int_strc@n+2,w
  2098  0BC2  00CC               	movwf	___fltol@f1+2
  2099  0BC3  0856               	movf	int_strc@n+1,w
  2100  0BC4  00CB               	movwf	___fltol@f1+1
  2101  0BC5  0855               	movf	int_strc@n,w
  2102  0BC6  00CA               	movwf	___fltol@f1
  2103  0BC7  120A  158A  2147  120A  158A  	fcall	___fltol
  2104  0BCC  1283               	bcf	3,5	;RP0=0, select bank0
  2105  0BCD  1303               	bcf	3,6	;RP1=0, select bank0
  2106  0BCE  084A               	movf	?___fltol,w
  2107  0BCF  00D9               	movwf	??_int_strc
  2108  0BD0  0859               	movf	??_int_strc,w
  2109  0BD1  00E1               	movwf	int_strc@e
  2110  0BD2                     l2470:	
  2111  0BD2  0861               	movf	int_strc@e,w
  2112  0BD3  120A  158A  20E9  120A  158A  	fcall	_num_case
  2113  0BD8                     l2472:	
  2114                           
  2115                           ;Lab3.c: 165:     loca = (n - e)*10;
  2116  0BD8  3041               	movlw	65
  2117  0BD9  1283               	bcf	3,5	;RP0=0, select bank0
  2118  0BDA  1303               	bcf	3,6	;RP1=0, select bank0
  2119  0BDB  00B3               	movwf	___flmul@b+3
  2120  0BDC  3020               	movlw	32
  2121  0BDD  00B2               	movwf	___flmul@b+2
  2122  0BDE  3000               	movlw	0
  2123  0BDF  00B1               	movwf	___flmul@b+1
  2124  0BE0  3000               	movlw	0
  2125  0BE1  00B0               	movwf	___flmul@b
  2126  0BE2  0861               	movf	int_strc@e,w
  2127  0BE3  00D9               	movwf	??_int_strc
  2128  0BE4  01DA               	clrf	??_int_strc+1
  2129  0BE5  01DB               	clrf	??_int_strc+2
  2130  0BE6  01DC               	clrf	??_int_strc+3
  2131  0BE7  085C               	movf	??_int_strc+3,w
  2132  0BE8  00F3               	movwf	___xxtofl@val+3
  2133  0BE9  085B               	movf	??_int_strc+2,w
  2134  0BEA  00F2               	movwf	___xxtofl@val+2
  2135  0BEB  085A               	movf	??_int_strc+1,w
  2136  0BEC  00F1               	movwf	___xxtofl@val+1
  2137  0BED  0859               	movf	??_int_strc,w
  2138  0BEE  00F0               	movwf	___xxtofl@val
  2139  0BEF  3001               	movlw	1
  2140  0BF0  120A  158A  2303  120A  158A  	fcall	___xxtofl
  2141  0BF5  0873               	movf	?___xxtofl+3,w
  2142  0BF6  1283               	bcf	3,5	;RP0=0, select bank0
  2143  0BF7  1303               	bcf	3,6	;RP1=0, select bank0
  2144  0BF8  00AB               	movwf	___flsub@a+3
  2145  0BF9  0872               	movf	?___xxtofl+2,w
  2146  0BFA  00AA               	movwf	___flsub@a+2
  2147  0BFB  0871               	movf	?___xxtofl+1,w
  2148  0BFC  00A9               	movwf	___flsub@a+1
  2149  0BFD  0870               	movf	?___xxtofl,w
  2150  0BFE  00A8               	movwf	___flsub@a
  2151  0BFF  0858               	movf	int_strc@n+3,w
  2152  0C00  00AF               	movwf	___flsub@b+3
  2153  0C01  0857               	movf	int_strc@n+2,w
  2154  0C02  00AE               	movwf	___flsub@b+2
  2155  0C03  0856               	movf	int_strc@n+1,w
  2156  0C04  00AD               	movwf	___flsub@b+1
  2157  0C05  0855               	movf	int_strc@n,w
  2158  0C06  00AC               	movwf	___flsub@b
  2159  0C07  160A  118A  27B5  120A  158A  	fcall	___flsub
  2160  0C0C  1283               	bcf	3,5	;RP0=0, select bank0
  2161  0C0D  1303               	bcf	3,6	;RP1=0, select bank0
  2162  0C0E  082B               	movf	?___flsub+3,w
  2163  0C0F  00B7               	movwf	___flmul@a+3
  2164  0C10  082A               	movf	?___flsub+2,w
  2165  0C11  00B6               	movwf	___flmul@a+2
  2166  0C12  0829               	movf	?___flsub+1,w
  2167  0C13  00B5               	movwf	___flmul@a+1
  2168  0C14  0828               	movf	?___flsub,w
  2169  0C15  00B4               	movwf	___flmul@a
  2170  0C16  120A  118A  248E  120A  158A  	fcall	___flmul
  2171  0C1B  1283               	bcf	3,5	;RP0=0, select bank0
  2172  0C1C  1303               	bcf	3,6	;RP1=0, select bank0
  2173  0C1D  0833               	movf	?___flmul+3,w
  2174  0C1E  00E6               	movwf	int_strc@loca+3
  2175  0C1F  0832               	movf	?___flmul+2,w
  2176  0C20  00E5               	movwf	int_strc@loca+2
  2177  0C21  0831               	movf	?___flmul+1,w
  2178  0C22  00E4               	movwf	int_strc@loca+1
  2179  0C23  0830               	movf	?___flmul,w
  2180  0C24  00E3               	movwf	int_strc@loca
  2181  0C25                     l2474:	
  2182                           
  2183                           ;Lab3.c: 166:     d = loca;
  2184  0C25  0866               	movf	int_strc@loca+3,w
  2185  0C26  00CD               	movwf	___fltol@f1+3
  2186  0C27  0865               	movf	int_strc@loca+2,w
  2187  0C28  00CC               	movwf	___fltol@f1+2
  2188  0C29  0864               	movf	int_strc@loca+1,w
  2189  0C2A  00CB               	movwf	___fltol@f1+1
  2190  0C2B  0863               	movf	int_strc@loca,w
  2191  0C2C  00CA               	movwf	___fltol@f1
  2192  0C2D  120A  158A  2147  120A  158A  	fcall	___fltol
  2193  0C32  1283               	bcf	3,5	;RP0=0, select bank0
  2194  0C33  1303               	bcf	3,6	;RP1=0, select bank0
  2195  0C34  084A               	movf	?___fltol,w
  2196  0C35  00D9               	movwf	??_int_strc
  2197  0C36  0859               	movf	??_int_strc,w
  2198  0C37  00E2               	movwf	int_strc@d
  2199  0C38                     l2476:	
  2200  0C38  0862               	movf	int_strc@d,w
  2201  0C39  120A  158A  20E9  120A  158A  	fcall	_num_case
  2202                           
  2203                           ;Lab3.c: 168:     loca = (loca-d)*10;
  2204  0C3E  3041               	movlw	65
  2205  0C3F  1283               	bcf	3,5	;RP0=0, select bank0
  2206  0C40  1303               	bcf	3,6	;RP1=0, select bank0
  2207  0C41  00B3               	movwf	___flmul@b+3
  2208  0C42  3020               	movlw	32
  2209  0C43  00B2               	movwf	___flmul@b+2
  2210  0C44  3000               	movlw	0
  2211  0C45  00B1               	movwf	___flmul@b+1
  2212  0C46  3000               	movlw	0
  2213  0C47  00B0               	movwf	___flmul@b
  2214  0C48  0862               	movf	int_strc@d,w
  2215  0C49  00D9               	movwf	??_int_strc
  2216  0C4A  01DA               	clrf	??_int_strc+1
  2217  0C4B  01DB               	clrf	??_int_strc+2
  2218  0C4C  01DC               	clrf	??_int_strc+3
  2219  0C4D  085C               	movf	??_int_strc+3,w
  2220  0C4E  00F3               	movwf	___xxtofl@val+3
  2221  0C4F  085B               	movf	??_int_strc+2,w
  2222  0C50  00F2               	movwf	___xxtofl@val+2
  2223  0C51  085A               	movf	??_int_strc+1,w
  2224  0C52  00F1               	movwf	___xxtofl@val+1
  2225  0C53  0859               	movf	??_int_strc,w
  2226  0C54  00F0               	movwf	___xxtofl@val
  2227  0C55  3001               	movlw	1
  2228  0C56  120A  158A  2303  120A  158A  	fcall	___xxtofl
  2229  0C5B  0873               	movf	?___xxtofl+3,w
  2230  0C5C  1283               	bcf	3,5	;RP0=0, select bank0
  2231  0C5D  1303               	bcf	3,6	;RP1=0, select bank0
  2232  0C5E  00AB               	movwf	___flsub@a+3
  2233  0C5F  0872               	movf	?___xxtofl+2,w
  2234  0C60  00AA               	movwf	___flsub@a+2
  2235  0C61  0871               	movf	?___xxtofl+1,w
  2236  0C62  00A9               	movwf	___flsub@a+1
  2237  0C63  0870               	movf	?___xxtofl,w
  2238  0C64  00A8               	movwf	___flsub@a
  2239  0C65  0866               	movf	int_strc@loca+3,w
  2240  0C66  00AF               	movwf	___flsub@b+3
  2241  0C67  0865               	movf	int_strc@loca+2,w
  2242  0C68  00AE               	movwf	___flsub@b+2
  2243  0C69  0864               	movf	int_strc@loca+1,w
  2244  0C6A  00AD               	movwf	___flsub@b+1
  2245  0C6B  0863               	movf	int_strc@loca,w
  2246  0C6C  00AC               	movwf	___flsub@b
  2247  0C6D  160A  118A  27B5  120A  158A  	fcall	___flsub
  2248  0C72  1283               	bcf	3,5	;RP0=0, select bank0
  2249  0C73  1303               	bcf	3,6	;RP1=0, select bank0
  2250  0C74  082B               	movf	?___flsub+3,w
  2251  0C75  00B7               	movwf	___flmul@a+3
  2252  0C76  082A               	movf	?___flsub+2,w
  2253  0C77  00B6               	movwf	___flmul@a+2
  2254  0C78  0829               	movf	?___flsub+1,w
  2255  0C79  00B5               	movwf	___flmul@a+1
  2256  0C7A  0828               	movf	?___flsub,w
  2257  0C7B  00B4               	movwf	___flmul@a
  2258  0C7C  120A  118A  248E  120A  158A  	fcall	___flmul
  2259  0C81  1283               	bcf	3,5	;RP0=0, select bank0
  2260  0C82  1303               	bcf	3,6	;RP1=0, select bank0
  2261  0C83  0833               	movf	?___flmul+3,w
  2262  0C84  00E6               	movwf	int_strc@loca+3
  2263  0C85  0832               	movf	?___flmul+2,w
  2264  0C86  00E5               	movwf	int_strc@loca+2
  2265  0C87  0831               	movf	?___flmul+1,w
  2266  0C88  00E4               	movwf	int_strc@loca+1
  2267  0C89  0830               	movf	?___flmul,w
  2268  0C8A  00E3               	movwf	int_strc@loca
  2269  0C8B                     l2478:	
  2270                           
  2271                           ;Lab3.c: 169:     c = loca;
  2272  0C8B  0866               	movf	int_strc@loca+3,w
  2273  0C8C  00CD               	movwf	___fltol@f1+3
  2274  0C8D  0865               	movf	int_strc@loca+2,w
  2275  0C8E  00CC               	movwf	___fltol@f1+2
  2276  0C8F  0864               	movf	int_strc@loca+1,w
  2277  0C90  00CB               	movwf	___fltol@f1+1
  2278  0C91  0863               	movf	int_strc@loca,w
  2279  0C92  00CA               	movwf	___fltol@f1
  2280  0C93  120A  158A  2147  120A  158A  	fcall	___fltol
  2281  0C98  1283               	bcf	3,5	;RP0=0, select bank0
  2282  0C99  1303               	bcf	3,6	;RP1=0, select bank0
  2283  0C9A  084A               	movf	?___fltol,w
  2284  0C9B  00D9               	movwf	??_int_strc
  2285  0C9C  0859               	movf	??_int_strc,w
  2286  0C9D  00DF               	movwf	int_strc@c
  2287  0C9E                     l2480:	
  2288                           
  2289                           ;Lab3.c: 170:     c3 = num_case(c);
  2290  0C9E  085F               	movf	int_strc@c,w
  2291  0C9F  120A  158A  20E9  120A  158A  	fcall	_num_case
  2292  0CA4  1283               	bcf	3,5	;RP0=0, select bank0
  2293  0CA5  1303               	bcf	3,6	;RP1=0, select bank0
  2294  0CA6  00D9               	movwf	??_int_strc
  2295  0CA7  0859               	movf	??_int_strc,w
  2296  0CA8  00E0               	movwf	int_strc@c3
  2297  0CA9                     l2482:	
  2298                           
  2299                           ;Lab3.c: 171:     return c3;
  2300  0CA9  0860               	movf	int_strc@c3,w
  2301  0CAA                     l144:	
  2302  0CAA  0008               	return
  2303  0CAB                     __end_of_int_strc:	
  2304                           
  2305                           	psect	text5
  2306  08E9                     __ptext5:	
  2307 ;; *************** function _num_case *****************
  2308 ;; Defined at:
  2309 ;;		line 174 in file "Lab3.c"
  2310 ;; Parameters:    Size  Location     Type
  2311 ;;  num             1    wreg     unsigned char 
  2312 ;; Auto vars:     Size  Location     Type
  2313 ;;  num             1    2[COMMON] unsigned char 
  2314 ;;  r               1    3[COMMON] unsigned char 
  2315 ;; Return value:  Size  Location     Type
  2316 ;;                  1    wreg      unsigned char 
  2317 ;; Registers used:
  2318 ;;		wreg, fsr0l, fsr0h, status,2, status,0
  2319 ;; Tracked objects:
  2320 ;;		On entry : 0/0
  2321 ;;		On exit  : 0/0
  2322 ;;		Unchanged: 0/0
  2323 ;; Data sizes:     COMMON   BANK0   BANK1   BANK3   BANK2
  2324 ;;      Params:         0       0       0       0       0
  2325 ;;      Locals:         2       0       0       0       0
  2326 ;;      Temps:          2       0       0       0       0
  2327 ;;      Totals:         4       0       0       0       0
  2328 ;;Total ram usage:        4 bytes
  2329 ;; Hardware stack levels used:    1
  2330 ;; This function calls:
  2331 ;;		Nothing
  2332 ;; This function is called by:
  2333 ;;		_int_stre
  2334 ;;		_int_strd
  2335 ;;		_int_strc
  2336 ;; This function uses a non-reentrant model
  2337 ;;
  2338                           
  2339                           
  2340                           ;psect for function _num_case
  2341  08E9                     _num_case:	
  2342                           
  2343                           ;incstack = 0
  2344                           ; Regs used in _num_case: [wreg-fsr0h+status,2+status,0]
  2345                           ;num_case@num stored from wreg
  2346  08E9  00F2               	movwf	num_case@num
  2347  08EA                     l2038:	
  2348                           
  2349                           ;Lab3.c: 175:     char r;;Lab3.c: 176:     switch(num){
  2350  08EA  291D               	goto	l2062
  2351  08EB                     l2040:	
  2352                           
  2353                           ;Lab3.c: 178:             r = '0';
  2354  08EB  3030               	movlw	48
  2355  08EC  00F0               	movwf	??_num_case
  2356  08ED  0870               	movf	??_num_case,w
  2357  08EE  00F3               	movwf	num_case@r
  2358                           
  2359                           ;Lab3.c: 179:             break;
  2360  08EF  2945               	goto	l2064
  2361  08F0                     l2042:	
  2362                           
  2363                           ;Lab3.c: 181:             r = '1';
  2364  08F0  3031               	movlw	49
  2365  08F1  00F0               	movwf	??_num_case
  2366  08F2  0870               	movf	??_num_case,w
  2367  08F3  00F3               	movwf	num_case@r
  2368                           
  2369                           ;Lab3.c: 182:             break;
  2370  08F4  2945               	goto	l2064
  2371  08F5                     l2044:	
  2372                           
  2373                           ;Lab3.c: 184:             r = '2';
  2374  08F5  3032               	movlw	50
  2375  08F6  00F0               	movwf	??_num_case
  2376  08F7  0870               	movf	??_num_case,w
  2377  08F8  00F3               	movwf	num_case@r
  2378                           
  2379                           ;Lab3.c: 185:             break;
  2380  08F9  2945               	goto	l2064
  2381  08FA                     l2046:	
  2382                           
  2383                           ;Lab3.c: 187:             r = '3';
  2384  08FA  3033               	movlw	51
  2385  08FB  00F0               	movwf	??_num_case
  2386  08FC  0870               	movf	??_num_case,w
  2387  08FD  00F3               	movwf	num_case@r
  2388                           
  2389                           ;Lab3.c: 188:             break;
  2390  08FE  2945               	goto	l2064
  2391  08FF                     l2048:	
  2392                           
  2393                           ;Lab3.c: 190:             r = '4';
  2394  08FF  3034               	movlw	52
  2395  0900  00F0               	movwf	??_num_case
  2396  0901  0870               	movf	??_num_case,w
  2397  0902  00F3               	movwf	num_case@r
  2398                           
  2399                           ;Lab3.c: 191:             break;
  2400  0903  2945               	goto	l2064
  2401  0904                     l2050:	
  2402                           
  2403                           ;Lab3.c: 193:             r = '5';
  2404  0904  3035               	movlw	53
  2405  0905  00F0               	movwf	??_num_case
  2406  0906  0870               	movf	??_num_case,w
  2407  0907  00F3               	movwf	num_case@r
  2408                           
  2409                           ;Lab3.c: 194:             break;
  2410  0908  2945               	goto	l2064
  2411  0909                     l2052:	
  2412                           
  2413                           ;Lab3.c: 196:             r = '6';
  2414  0909  3036               	movlw	54
  2415  090A  00F0               	movwf	??_num_case
  2416  090B  0870               	movf	??_num_case,w
  2417  090C  00F3               	movwf	num_case@r
  2418                           
  2419                           ;Lab3.c: 197:             break;
  2420  090D  2945               	goto	l2064
  2421  090E                     l2054:	
  2422                           
  2423                           ;Lab3.c: 199:             r = '7';
  2424  090E  3037               	movlw	55
  2425  090F  00F0               	movwf	??_num_case
  2426  0910  0870               	movf	??_num_case,w
  2427  0911  00F3               	movwf	num_case@r
  2428                           
  2429                           ;Lab3.c: 200:             break;
  2430  0912  2945               	goto	l2064
  2431  0913                     l2056:	
  2432                           
  2433                           ;Lab3.c: 202:             r = '8';
  2434  0913  3038               	movlw	56
  2435  0914  00F0               	movwf	??_num_case
  2436  0915  0870               	movf	??_num_case,w
  2437  0916  00F3               	movwf	num_case@r
  2438                           
  2439                           ;Lab3.c: 203:             break;
  2440  0917  2945               	goto	l2064
  2441  0918                     l2058:	
  2442                           
  2443                           ;Lab3.c: 205:             r = '9';
  2444  0918  3039               	movlw	57
  2445  0919  00F0               	movwf	??_num_case
  2446  091A  0870               	movf	??_num_case,w
  2447  091B  00F3               	movwf	num_case@r
  2448                           
  2449                           ;Lab3.c: 206:             break;
  2450  091C  2945               	goto	l2064
  2451  091D                     l2062:	
  2452  091D  0872               	movf	num_case@num,w
  2453  091E  00F0               	movwf	??_num_case
  2454  091F  01F1               	clrf	??_num_case+1
  2455                           
  2456                           ; Switch on 2 bytes has been partitioned into a top level switch of size 1, and 1 sub-sw
      +                          itches
  2457                           ; Switch size 1, requested type "simple"
  2458                           ; Number of cases is 1, Range of values is 0 to 0
  2459                           ; switch strategies available:
  2460                           ; Name         Instructions Cycles
  2461                           ; simple_byte            4     3 (average)
  2462                           ; direct_byte           11     8 (fixed)
  2463                           ; jumptable            260     6 (fixed)
  2464                           ;	Chosen strategy is simple_byte
  2465  0920  0871               	movf	??_num_case+1,w
  2466  0921  3A00               	xorlw	0	; case 0
  2467  0922  1903               	skipnz
  2468  0923  2925               	goto	l2768
  2469  0924  2945               	goto	l2064
  2470  0925                     l2768:	
  2471                           
  2472                           ; Switch size 1, requested type "simple"
  2473                           ; Number of cases is 10, Range of values is 0 to 9
  2474                           ; switch strategies available:
  2475                           ; Name         Instructions Cycles
  2476                           ; simple_byte           31    16 (average)
  2477                           ; direct_byte           38     8 (fixed)
  2478                           ; jumptable            260     6 (fixed)
  2479                           ;	Chosen strategy is simple_byte
  2480  0925  0870               	movf	??_num_case,w
  2481  0926  3A00               	xorlw	0	; case 0
  2482  0927  1903               	skipnz
  2483  0928  28EB               	goto	l2040
  2484  0929  3A01               	xorlw	1	; case 1
  2485  092A  1903               	skipnz
  2486  092B  28F0               	goto	l2042
  2487  092C  3A03               	xorlw	3	; case 2
  2488  092D  1903               	skipnz
  2489  092E  28F5               	goto	l2044
  2490  092F  3A01               	xorlw	1	; case 3
  2491  0930  1903               	skipnz
  2492  0931  28FA               	goto	l2046
  2493  0932  3A07               	xorlw	7	; case 4
  2494  0933  1903               	skipnz
  2495  0934  28FF               	goto	l2048
  2496  0935  3A01               	xorlw	1	; case 5
  2497  0936  1903               	skipnz
  2498  0937  2904               	goto	l2050
  2499  0938  3A03               	xorlw	3	; case 6
  2500  0939  1903               	skipnz
  2501  093A  2909               	goto	l2052
  2502  093B  3A01               	xorlw	1	; case 7
  2503  093C  1903               	skipnz
  2504  093D  290E               	goto	l2054
  2505  093E  3A0F               	xorlw	15	; case 8
  2506  093F  1903               	skipnz
  2507  0940  2913               	goto	l2056
  2508  0941  3A01               	xorlw	1	; case 9
  2509  0942  1903               	skipnz
  2510  0943  2918               	goto	l2058
  2511  0944  2945               	goto	l2064
  2512  0945                     l2064:	
  2513                           
  2514                           ;Lab3.c: 208:     return r;
  2515  0945  0873               	movf	num_case@r,w
  2516  0946                     l159:	
  2517  0946  0008               	return
  2518  0947                     __end_of_num_case:	
  2519                           
  2520                           	psect	text6
  2521  0B03                     __ptext6:	
  2522 ;; *************** function ___xxtofl *****************
  2523 ;; Defined at:
  2524 ;;		line 10 in file "C:\Program Files (x86)\Microchip\xc8\v2.10\pic\sources\c90\common\xxtofl.c"
  2525 ;; Parameters:    Size  Location     Type
  2526 ;;  sign            1    wreg     unsigned char 
  2527 ;;  val             4    0[COMMON] long 
  2528 ;; Auto vars:     Size  Location     Type
  2529 ;;  sign            1    8[COMMON] unsigned char 
  2530 ;;  arg             4   10[COMMON] unsigned long 
  2531 ;;  exp             1    9[COMMON] unsigned char 
  2532 ;; Return value:  Size  Location     Type
  2533 ;;                  4    0[COMMON] unsigned char 
  2534 ;; Registers used:
  2535 ;;		wreg, status,2, status,0
  2536 ;; Tracked objects:
  2537 ;;		On entry : 0/0
  2538 ;;		On exit  : 0/0
  2539 ;;		Unchanged: 0/0
  2540 ;; Data sizes:     COMMON   BANK0   BANK1   BANK3   BANK2
  2541 ;;      Params:         4       0       0       0       0
  2542 ;;      Locals:         6       0       0       0       0
  2543 ;;      Temps:          4       0       0       0       0
  2544 ;;      Totals:        14       0       0       0       0
  2545 ;;Total ram usage:       14 bytes
  2546 ;; Hardware stack levels used:    1
  2547 ;; This function calls:
  2548 ;;		Nothing
  2549 ;; This function is called by:
  2550 ;;		_main
  2551 ;;		_int_stre
  2552 ;;		_int_strd
  2553 ;;		_int_strc
  2554 ;; This function uses a non-reentrant model
  2555 ;;
  2556                           
  2557                           
  2558                           ;psect for function ___xxtofl
  2559  0B03                     ___xxtofl:	
  2560                           
  2561                           ;incstack = 0
  2562                           ; Regs used in ___xxtofl: [wreg+status,2+status,0]
  2563                           ;___xxtofl@sign stored from wreg
  2564  0B03  00F8               	movwf	___xxtofl@sign
  2565  0B04                     l2268:	
  2566  0B04  0878               	movf	___xxtofl@sign,w
  2567  0B05  1903               	btfsc	3,2
  2568  0B06  2B08               	goto	u2651
  2569  0B07  2B09               	goto	u2650
  2570  0B08                     u2651:	
  2571  0B08  2B1D               	goto	l2274
  2572  0B09                     u2650:	
  2573  0B09                     l2270:	
  2574  0B09  1FF3               	btfss	___xxtofl@val+3,7
  2575  0B0A  2B0C               	goto	u2661
  2576  0B0B  2B0D               	goto	u2660
  2577  0B0C                     u2661:	
  2578  0B0C  2B1D               	goto	l2274
  2579  0B0D                     u2660:	
  2580  0B0D                     l2272:	
  2581  0B0D  0970               	comf	___xxtofl@val,w
  2582  0B0E  00FA               	movwf	___xxtofl@arg
  2583  0B0F  0971               	comf	___xxtofl@val+1,w
  2584  0B10  00FB               	movwf	___xxtofl@arg+1
  2585  0B11  0972               	comf	___xxtofl@val+2,w
  2586  0B12  00FC               	movwf	___xxtofl@arg+2
  2587  0B13  0973               	comf	___xxtofl@val+3,w
  2588  0B14  00FD               	movwf	___xxtofl@arg+3
  2589  0B15  0AFA               	incf	___xxtofl@arg,f
  2590  0B16  1903               	skipnz
  2591  0B17  0AFB               	incf	___xxtofl@arg+1,f
  2592  0B18  1903               	skipnz
  2593  0B19  0AFC               	incf	___xxtofl@arg+2,f
  2594  0B1A  1903               	skipnz
  2595  0B1B  0AFD               	incf	___xxtofl@arg+3,f
  2596  0B1C  2B25               	goto	l725
  2597  0B1D                     l2274:	
  2598  0B1D  0873               	movf	___xxtofl@val+3,w
  2599  0B1E  00FD               	movwf	___xxtofl@arg+3
  2600  0B1F  0872               	movf	___xxtofl@val+2,w
  2601  0B20  00FC               	movwf	___xxtofl@arg+2
  2602  0B21  0871               	movf	___xxtofl@val+1,w
  2603  0B22  00FB               	movwf	___xxtofl@arg+1
  2604  0B23  0870               	movf	___xxtofl@val,w
  2605  0B24  00FA               	movwf	___xxtofl@arg
  2606  0B25                     l725:	
  2607  0B25  0873               	movf	___xxtofl@val+3,w
  2608  0B26  0472               	iorwf	___xxtofl@val+2,w
  2609  0B27  0471               	iorwf	___xxtofl@val+1,w
  2610  0B28  0470               	iorwf	___xxtofl@val,w
  2611  0B29  1D03               	skipz
  2612  0B2A  2B2C               	goto	u2671
  2613  0B2B  2B2D               	goto	u2670
  2614  0B2C                     u2671:	
  2615  0B2C  2B36               	goto	l2280
  2616  0B2D                     u2670:	
  2617  0B2D                     l2276:	
  2618  0B2D  3000               	movlw	0
  2619  0B2E  00F3               	movwf	?___xxtofl+3
  2620  0B2F  3000               	movlw	0
  2621  0B30  00F2               	movwf	?___xxtofl+2
  2622  0B31  3000               	movlw	0
  2623  0B32  00F1               	movwf	?___xxtofl+1
  2624  0B33  3000               	movlw	0
  2625  0B34  00F0               	movwf	?___xxtofl
  2626  0B35  2BBC               	goto	l727
  2627  0B36                     l2280:	
  2628  0B36  3096               	movlw	150
  2629  0B37  00F4               	movwf	??___xxtofl
  2630  0B38  0874               	movf	??___xxtofl,w
  2631  0B39  00F9               	movwf	___xxtofl@exp
  2632  0B3A  2B48               	goto	l2284
  2633  0B3B                     l2282:	
  2634  0B3B  3001               	movlw	1
  2635  0B3C  00F4               	movwf	??___xxtofl
  2636  0B3D  0874               	movf	??___xxtofl,w
  2637  0B3E  07F9               	addwf	___xxtofl@exp,f
  2638  0B3F  3001               	movlw	1
  2639  0B40                     u2685:	
  2640  0B40  1003               	clrc
  2641  0B41  0CFD               	rrf	___xxtofl@arg+3,f
  2642  0B42  0CFC               	rrf	___xxtofl@arg+2,f
  2643  0B43  0CFB               	rrf	___xxtofl@arg+1,f
  2644  0B44  0CFA               	rrf	___xxtofl@arg,f
  2645  0B45  3EFF               	addlw	-1
  2646  0B46  1D03               	skipz
  2647  0B47  2B40               	goto	u2685
  2648  0B48                     l2284:	
  2649  0B48  30FE               	movlw	254
  2650  0B49  057D               	andwf	___xxtofl@arg+3,w
  2651  0B4A  1D03               	btfss	3,2
  2652  0B4B  2B4D               	goto	u2691
  2653  0B4C  2B4E               	goto	u2690
  2654  0B4D                     u2691:	
  2655  0B4D  2B3B               	goto	l2282
  2656  0B4E                     u2690:	
  2657  0B4E  2B6A               	goto	l731
  2658  0B4F                     l2286:	
  2659  0B4F  3001               	movlw	1
  2660  0B50  00F4               	movwf	??___xxtofl
  2661  0B51  0874               	movf	??___xxtofl,w
  2662  0B52  07F9               	addwf	___xxtofl@exp,f
  2663  0B53                     l2288:	
  2664  0B53  3001               	movlw	1
  2665  0B54  07FA               	addwf	___xxtofl@arg,f
  2666  0B55  3000               	movlw	0
  2667  0B56  1803               	skipnc
  2668  0B57  3001               	movlw	1
  2669  0B58  07FB               	addwf	___xxtofl@arg+1,f
  2670  0B59  3000               	movlw	0
  2671  0B5A  1803               	skipnc
  2672  0B5B  3001               	movlw	1
  2673  0B5C  07FC               	addwf	___xxtofl@arg+2,f
  2674  0B5D  3000               	movlw	0
  2675  0B5E  1803               	skipnc
  2676  0B5F  3001               	movlw	1
  2677  0B60  07FD               	addwf	___xxtofl@arg+3,f
  2678  0B61                     l2290:	
  2679  0B61  3001               	movlw	1
  2680  0B62                     u2705:	
  2681  0B62  1003               	clrc
  2682  0B63  0CFD               	rrf	___xxtofl@arg+3,f
  2683  0B64  0CFC               	rrf	___xxtofl@arg+2,f
  2684  0B65  0CFB               	rrf	___xxtofl@arg+1,f
  2685  0B66  0CFA               	rrf	___xxtofl@arg,f
  2686  0B67  3EFF               	addlw	-1
  2687  0B68  1D03               	skipz
  2688  0B69  2B62               	goto	u2705
  2689  0B6A                     l731:	
  2690  0B6A  30FF               	movlw	255
  2691  0B6B  057D               	andwf	___xxtofl@arg+3,w
  2692  0B6C  1D03               	btfss	3,2
  2693  0B6D  2B6F               	goto	u2711
  2694  0B6E  2B70               	goto	u2710
  2695  0B6F                     u2711:	
  2696  0B6F  2B4F               	goto	l2286
  2697  0B70                     u2710:	
  2698  0B70  2B7C               	goto	l2294
  2699  0B71                     l2292:	
  2700  0B71  3001               	movlw	1
  2701  0B72  02F9               	subwf	___xxtofl@exp,f
  2702  0B73  3001               	movlw	1
  2703  0B74  00F4               	movwf	??___xxtofl
  2704  0B75                     u2725:	
  2705  0B75  1003               	clrc
  2706  0B76  0DFA               	rlf	___xxtofl@arg,f
  2707  0B77  0DFB               	rlf	___xxtofl@arg+1,f
  2708  0B78  0DFC               	rlf	___xxtofl@arg+2,f
  2709  0B79  0DFD               	rlf	___xxtofl@arg+3,f
  2710  0B7A  0BF4               	decfsz	??___xxtofl,f
  2711  0B7B  2B75               	goto	u2725
  2712  0B7C                     l2294:	
  2713  0B7C  1BFC               	btfsc	___xxtofl@arg+2,7
  2714  0B7D  2B7F               	goto	u2731
  2715  0B7E  2B80               	goto	u2730
  2716  0B7F                     u2731:	
  2717  0B7F  2B86               	goto	l738
  2718  0B80                     u2730:	
  2719  0B80                     l2296:	
  2720  0B80  3002               	movlw	2
  2721  0B81  0279               	subwf	___xxtofl@exp,w
  2722  0B82  1803               	skipnc
  2723  0B83  2B85               	goto	u2741
  2724  0B84  2B86               	goto	u2740
  2725  0B85                     u2741:	
  2726  0B85  2B71               	goto	l2292
  2727  0B86                     u2740:	
  2728  0B86                     l738:	
  2729  0B86  1879               	btfsc	___xxtofl@exp,0
  2730  0B87  2B89               	goto	u2751
  2731  0B88  2B8A               	goto	u2750
  2732  0B89                     u2751:	
  2733  0B89  2B92               	goto	l739
  2734  0B8A                     u2750:	
  2735  0B8A                     l2298:	
  2736  0B8A  30FF               	movlw	255
  2737  0B8B  05FA               	andwf	___xxtofl@arg,f
  2738  0B8C  30FF               	movlw	255
  2739  0B8D  05FB               	andwf	___xxtofl@arg+1,f
  2740  0B8E  307F               	movlw	127
  2741  0B8F  05FC               	andwf	___xxtofl@arg+2,f
  2742  0B90  30FF               	movlw	255
  2743  0B91  05FD               	andwf	___xxtofl@arg+3,f
  2744  0B92                     l739:	
  2745  0B92  1003               	clrc
  2746  0B93  0CF9               	rrf	___xxtofl@exp,f
  2747  0B94                     l2300:	
  2748  0B94  0879               	movf	___xxtofl@exp,w
  2749  0B95  00F4               	movwf	??___xxtofl
  2750  0B96  01F5               	clrf	??___xxtofl+1
  2751  0B97  01F6               	clrf	??___xxtofl+2
  2752  0B98  01F7               	clrf	??___xxtofl+3
  2753  0B99  3018               	movlw	24
  2754  0B9A                     u2765:	
  2755  0B9A  1003               	clrc
  2756  0B9B  0DF4               	rlf	??___xxtofl,f
  2757  0B9C  0DF5               	rlf	??___xxtofl+1,f
  2758  0B9D  0DF6               	rlf	??___xxtofl+2,f
  2759  0B9E  0DF7               	rlf	??___xxtofl+3,f
  2760  0B9F                     u2760:	
  2761  0B9F  3EFF               	addlw	-1
  2762  0BA0  1D03               	skipz
  2763  0BA1  2B9A               	goto	u2765
  2764  0BA2  0874               	movf	??___xxtofl,w
  2765  0BA3  04FA               	iorwf	___xxtofl@arg,f
  2766  0BA4  0875               	movf	??___xxtofl+1,w
  2767  0BA5  04FB               	iorwf	___xxtofl@arg+1,f
  2768  0BA6  0876               	movf	??___xxtofl+2,w
  2769  0BA7  04FC               	iorwf	___xxtofl@arg+2,f
  2770  0BA8  0877               	movf	??___xxtofl+3,w
  2771  0BA9  04FD               	iorwf	___xxtofl@arg+3,f
  2772  0BAA                     l2302:	
  2773  0BAA  0878               	movf	___xxtofl@sign,w
  2774  0BAB  1903               	btfsc	3,2
  2775  0BAC  2BAE               	goto	u2771
  2776  0BAD  2BAF               	goto	u2770
  2777  0BAE                     u2771:	
  2778  0BAE  2BB4               	goto	l2308
  2779  0BAF                     u2770:	
  2780  0BAF                     l2304:	
  2781  0BAF  1FF3               	btfss	___xxtofl@val+3,7
  2782  0BB0  2BB2               	goto	u2781
  2783  0BB1  2BB3               	goto	u2780
  2784  0BB2                     u2781:	
  2785  0BB2  2BB4               	goto	l2308
  2786  0BB3                     u2780:	
  2787  0BB3                     l2306:	
  2788  0BB3  17FD               	bsf	___xxtofl@arg+3,7
  2789  0BB4                     l2308:	
  2790  0BB4  087D               	movf	___xxtofl@arg+3,w
  2791  0BB5  00F3               	movwf	?___xxtofl+3
  2792  0BB6  087C               	movf	___xxtofl@arg+2,w
  2793  0BB7  00F2               	movwf	?___xxtofl+2
  2794  0BB8  087B               	movf	___xxtofl@arg+1,w
  2795  0BB9  00F1               	movwf	?___xxtofl+1
  2796  0BBA  087A               	movf	___xxtofl@arg,w
  2797  0BBB  00F0               	movwf	?___xxtofl
  2798  0BBC                     l727:	
  2799  0BBC  0008               	return
  2800  0BBD                     __end_of___xxtofl:	
  2801                           
  2802                           	psect	text7
  2803  0947                     __ptext7:	
  2804 ;; *************** function ___fltol *****************
  2805 ;; Defined at:
  2806 ;;		line 43 in file "C:\Program Files (x86)\Microchip\xc8\v2.10\pic\sources\c90\common\fltol.c"
  2807 ;; Parameters:    Size  Location     Type
  2808 ;;  f1              4   42[BANK0 ] unsigned char 
  2809 ;; Auto vars:     Size  Location     Type
  2810 ;;  exp1            1   52[BANK0 ] unsigned char 
  2811 ;;  sign1           1   51[BANK0 ] unsigned char 
  2812 ;; Return value:  Size  Location     Type
  2813 ;;                  4   42[BANK0 ] long 
  2814 ;; Registers used:
  2815 ;;		wreg, status,2, status,0
  2816 ;; Tracked objects:
  2817 ;;		On entry : 0/0
  2818 ;;		On exit  : 0/0
  2819 ;;		Unchanged: 0/0
  2820 ;; Data sizes:     COMMON   BANK0   BANK1   BANK3   BANK2
  2821 ;;      Params:         0       4       0       0       0
  2822 ;;      Locals:         0       2       0       0       0
  2823 ;;      Temps:          0       5       0       0       0
  2824 ;;      Totals:         0      11       0       0       0
  2825 ;;Total ram usage:       11 bytes
  2826 ;; Hardware stack levels used:    1
  2827 ;; This function calls:
  2828 ;;		Nothing
  2829 ;; This function is called by:
  2830 ;;		_int_stre
  2831 ;;		_int_strd
  2832 ;;		_int_strc
  2833 ;; This function uses a non-reentrant model
  2834 ;;
  2835                           
  2836                           
  2837                           ;psect for function ___fltol
  2838  0947                     ___fltol:	
  2839  0947                     l2086:	
  2840                           ;incstack = 0
  2841                           ; Regs used in ___fltol: [wreg+status,2+status,0]
  2842                           
  2843  0947  1003               	clrc
  2844  0948  1283               	bcf	3,5	;RP0=0, select bank0
  2845  0949  1303               	bcf	3,6	;RP1=0, select bank0
  2846  094A  0D4C               	rlf	___fltol@f1+2,w
  2847  094B  0D4D               	rlf	___fltol@f1+3,w
  2848  094C  00CE               	movwf	??___fltol
  2849  094D  084E               	movf	??___fltol,w
  2850  094E  00D4               	movwf	___fltol@exp1
  2851  094F  0854               	movf	___fltol@exp1,w
  2852  0950  1D03               	btfss	3,2
  2853  0951  2953               	goto	u2181
  2854  0952  2954               	goto	u2180
  2855  0953                     u2181:	
  2856  0953  295D               	goto	l2092
  2857  0954                     u2180:	
  2858  0954                     l2088:	
  2859  0954  3000               	movlw	0
  2860  0955  00CD               	movwf	?___fltol+3
  2861  0956  3000               	movlw	0
  2862  0957  00CC               	movwf	?___fltol+2
  2863  0958  3000               	movlw	0
  2864  0959  00CB               	movwf	?___fltol+1
  2865  095A  3000               	movlw	0
  2866  095B  00CA               	movwf	?___fltol
  2867  095C  29C2               	goto	l484
  2868  095D                     l2092:	
  2869  095D  084A               	movf	___fltol@f1,w
  2870  095E  00CE               	movwf	??___fltol
  2871  095F  084B               	movf	___fltol@f1+1,w
  2872  0960  00CF               	movwf	??___fltol+1
  2873  0961  084C               	movf	___fltol@f1+2,w
  2874  0962  00D0               	movwf	??___fltol+2
  2875  0963  084D               	movf	___fltol@f1+3,w
  2876  0964  00D1               	movwf	??___fltol+3
  2877  0965  301F               	movlw	31
  2878  0966                     u2195:	
  2879  0966  1003               	clrc
  2880  0967  0CD1               	rrf	??___fltol+3,f
  2881  0968  0CD0               	rrf	??___fltol+2,f
  2882  0969  0CCF               	rrf	??___fltol+1,f
  2883  096A  0CCE               	rrf	??___fltol,f
  2884  096B                     u2190:	
  2885  096B  3EFF               	addlw	-1
  2886  096C  1D03               	skipz
  2887  096D  2966               	goto	u2195
  2888  096E  084E               	movf	??___fltol,w
  2889  096F  00D2               	movwf	??___fltol+4
  2890  0970  0852               	movf	??___fltol+4,w
  2891  0971  00D3               	movwf	___fltol@sign1
  2892  0972                     l2094:	
  2893  0972  17CC               	bsf	___fltol@f1+2,7
  2894  0973                     l2096:	
  2895  0973  30FF               	movlw	255
  2896  0974  05CA               	andwf	___fltol@f1,f
  2897  0975  30FF               	movlw	255
  2898  0976  05CB               	andwf	___fltol@f1+1,f
  2899  0977  30FF               	movlw	255
  2900  0978  05CC               	andwf	___fltol@f1+2,f
  2901  0979  3000               	movlw	0
  2902  097A  05CD               	andwf	___fltol@f1+3,f
  2903  097B                     l2098:	
  2904  097B  3096               	movlw	150
  2905  097C  02D4               	subwf	___fltol@exp1,f
  2906  097D                     l2100:	
  2907  097D  1FD4               	btfss	___fltol@exp1,7
  2908  097E  2980               	goto	u2201
  2909  097F  2981               	goto	u2200
  2910  0980                     u2201:	
  2911  0980  299B               	goto	l2110
  2912  0981                     u2200:	
  2913  0981                     l2102:	
  2914  0981  0854               	movf	___fltol@exp1,w
  2915  0982  3A80               	xorlw	128
  2916  0983  3E97               	addlw	151
  2917  0984  1803               	skipnc
  2918  0985  2987               	goto	u2211
  2919  0986  2988               	goto	u2210
  2920  0987                     u2211:	
  2921  0987  2989               	goto	l2108
  2922  0988                     u2210:	
  2923  0988  2954               	goto	l2088
  2924  0989                     l2108:	
  2925  0989  3001               	movlw	1
  2926  098A                     u2225:	
  2927  098A  1003               	clrc
  2928  098B  0CCD               	rrf	___fltol@f1+3,f
  2929  098C  0CCC               	rrf	___fltol@f1+2,f
  2930  098D  0CCB               	rrf	___fltol@f1+1,f
  2931  098E  0CCA               	rrf	___fltol@f1,f
  2932  098F  3EFF               	addlw	-1
  2933  0990  1D03               	skipz
  2934  0991  298A               	goto	u2225
  2935  0992  3001               	movlw	1
  2936  0993  00CE               	movwf	??___fltol
  2937  0994  084E               	movf	??___fltol,w
  2938  0995  07D4               	addwf	___fltol@exp1,f
  2939  0996  1D03               	btfss	3,2
  2940  0997  2999               	goto	u2231
  2941  0998  299A               	goto	u2230
  2942  0999                     u2231:	
  2943  0999  2989               	goto	l2108
  2944  099A                     u2230:	
  2945  099A  29B2               	goto	l2118
  2946  099B                     l2110:	
  2947  099B  3020               	movlw	32
  2948  099C  0254               	subwf	___fltol@exp1,w
  2949  099D  1C03               	skipc
  2950  099E  29A0               	goto	u2241
  2951  099F  29A1               	goto	u2240
  2952  09A0                     u2241:	
  2953  09A0  29AD               	goto	l491
  2954  09A1                     u2240:	
  2955  09A1  2954               	goto	l2088
  2956  09A2                     l2116:	
  2957  09A2  3001               	movlw	1
  2958  09A3  00CE               	movwf	??___fltol
  2959  09A4                     u2255:	
  2960  09A4  1003               	clrc
  2961  09A5  0DCA               	rlf	___fltol@f1,f
  2962  09A6  0DCB               	rlf	___fltol@f1+1,f
  2963  09A7  0DCC               	rlf	___fltol@f1+2,f
  2964  09A8  0DCD               	rlf	___fltol@f1+3,f
  2965  09A9  0BCE               	decfsz	??___fltol,f
  2966  09AA  29A4               	goto	u2255
  2967  09AB  3001               	movlw	1
  2968  09AC  02D4               	subwf	___fltol@exp1,f
  2969  09AD                     l491:	
  2970  09AD  0854               	movf	___fltol@exp1,w
  2971  09AE  1D03               	btfss	3,2
  2972  09AF  29B1               	goto	u2261
  2973  09B0  29B2               	goto	u2260
  2974  09B1                     u2261:	
  2975  09B1  29A2               	goto	l2116
  2976  09B2                     u2260:	
  2977  09B2                     l2118:	
  2978  09B2  0853               	movf	___fltol@sign1,w
  2979  09B3  1903               	btfsc	3,2
  2980  09B4  29B6               	goto	u2271
  2981  09B5  29B7               	goto	u2270
  2982  09B6                     u2271:	
  2983  09B6  29C2               	goto	l494
  2984  09B7                     u2270:	
  2985  09B7                     l2120:	
  2986  09B7  09CA               	comf	___fltol@f1,f
  2987  09B8  09CB               	comf	___fltol@f1+1,f
  2988  09B9  09CC               	comf	___fltol@f1+2,f
  2989  09BA  09CD               	comf	___fltol@f1+3,f
  2990  09BB  0ACA               	incf	___fltol@f1,f
  2991  09BC  1903               	skipnz
  2992  09BD  0ACB               	incf	___fltol@f1+1,f
  2993  09BE  1903               	skipnz
  2994  09BF  0ACC               	incf	___fltol@f1+2,f
  2995  09C0  1903               	skipnz
  2996  09C1  0ACD               	incf	___fltol@f1+3,f
  2997  09C2                     l494:	
  2998  09C2                     l484:	
  2999  09C2  0008               	return
  3000  09C3                     __end_of___fltol:	
  3001                           
  3002                           	psect	text8
  3003  17B5                     __ptext8:	
  3004 ;; *************** function ___flsub *****************
  3005 ;; Defined at:
  3006 ;;		line 242 in file "C:\Program Files (x86)\Microchip\xc8\v2.10\pic\sources\c90\common\sprcadd.c"
  3007 ;; Parameters:    Size  Location     Type
  3008 ;;  a               4    8[BANK0 ] long 
  3009 ;;  b               4   12[BANK0 ] long 
  3010 ;; Auto vars:     Size  Location     Type
  3011 ;;		None
  3012 ;; Return value:  Size  Location     Type
  3013 ;;                  4    8[BANK0 ] long 
  3014 ;; Registers used:
  3015 ;;		wreg, status,2, status,0, btemp+1, pclath, cstack
  3016 ;; Tracked objects:
  3017 ;;		On entry : 0/0
  3018 ;;		On exit  : 0/0
  3019 ;;		Unchanged: 0/0
  3020 ;; Data sizes:     COMMON   BANK0   BANK1   BANK3   BANK2
  3021 ;;      Params:         0       8       0       0       0
  3022 ;;      Locals:         0       0       0       0       0
  3023 ;;      Temps:          0       0       0       0       0
  3024 ;;      Totals:         0       8       0       0       0
  3025 ;;Total ram usage:        8 bytes
  3026 ;; Hardware stack levels used:    1
  3027 ;; Hardware stack levels required when called:    1
  3028 ;; This function calls:
  3029 ;;		___fladd
  3030 ;; This function is called by:
  3031 ;;		_int_stre
  3032 ;;		_int_strd
  3033 ;;		_int_strc
  3034 ;; This function uses a non-reentrant model
  3035 ;;
  3036                           
  3037                           
  3038                           ;psect for function ___flsub
  3039  17B5                     ___flsub:	
  3040  17B5                     l2122:	
  3041                           ;incstack = 0
  3042                           ; Regs used in ___flsub: [wreg+status,2+status,0+btemp+1+pclath+cstack]
  3043                           
  3044  17B5  3080               	movlw	128
  3045  17B6  1283               	bcf	3,5	;RP0=0, select bank0
  3046  17B7  1303               	bcf	3,6	;RP1=0, select bank0
  3047  17B8  06AB               	xorwf	___flsub@a+3,f
  3048  17B9                     l2124:	
  3049  17B9  082F               	movf	___flsub@b+3,w
  3050  17BA  00F3               	movwf	___fladd@b+3
  3051  17BB  082E               	movf	___flsub@b+2,w
  3052  17BC  00F2               	movwf	___fladd@b+2
  3053  17BD  082D               	movf	___flsub@b+1,w
  3054  17BE  00F1               	movwf	___fladd@b+1
  3055  17BF  082C               	movf	___flsub@b,w
  3056  17C0  00F0               	movwf	___fladd@b
  3057  17C1  082B               	movf	___flsub@a+3,w
  3058  17C2  00F7               	movwf	___fladd@a+3
  3059  17C3  082A               	movf	___flsub@a+2,w
  3060  17C4  00F6               	movwf	___fladd@a+2
  3061  17C5  0829               	movf	___flsub@a+1,w
  3062  17C6  00F5               	movwf	___fladd@a+1
  3063  17C7  0828               	movf	___flsub@a,w
  3064  17C8  00F4               	movwf	___fladd@a
  3065  17C9  120A  118A  21F6  160A  118A  	fcall	___fladd
  3066  17CE  0873               	movf	?___fladd+3,w
  3067  17CF  1283               	bcf	3,5	;RP0=0, select bank0
  3068  17D0  1303               	bcf	3,6	;RP1=0, select bank0
  3069  17D1  00AB               	movwf	?___flsub+3
  3070  17D2  0872               	movf	?___fladd+2,w
  3071  17D3  00AA               	movwf	?___flsub+2
  3072  17D4  0871               	movf	?___fladd+1,w
  3073  17D5  00A9               	movwf	?___flsub+1
  3074  17D6  0870               	movf	?___fladd,w
  3075  17D7  00A8               	movwf	?___flsub
  3076  17D8                     l637:	
  3077  17D8  0008               	return
  3078  17D9                     __end_of___flsub:	
  3079                           
  3080                           	psect	text9
  3081  01F6                     __ptext9:	
  3082 ;; *************** function ___fladd *****************
  3083 ;; Defined at:
  3084 ;;		line 10 in file "C:\Program Files (x86)\Microchip\xc8\v2.10\pic\sources\c90\common\sprcadd.c"
  3085 ;; Parameters:    Size  Location     Type
  3086 ;;  b               4    0[COMMON] long 
  3087 ;;  a               4    4[COMMON] long 
  3088 ;; Auto vars:     Size  Location     Type
  3089 ;;  grs             1   11[COMMON] unsigned char 
  3090 ;;  bexp            1   10[COMMON] unsigned char 
  3091 ;;  aexp            1    9[COMMON] unsigned char 
  3092 ;;  signs           1    8[COMMON] unsigned char 
  3093 ;; Return value:  Size  Location     Type
  3094 ;;                  4    0[COMMON] unsigned char 
  3095 ;; Registers used:
  3096 ;;		wreg, status,2, status,0, btemp+1
  3097 ;; Tracked objects:
  3098 ;;		On entry : 0/0
  3099 ;;		On exit  : 0/0
  3100 ;;		Unchanged: 0/0
  3101 ;; Data sizes:     COMMON   BANK0   BANK1   BANK3   BANK2
  3102 ;;      Params:         8       0       0       0       0
  3103 ;;      Locals:         4       0       0       0       0
  3104 ;;      Temps:          0       8       0       0       0
  3105 ;;      Totals:        12       8       0       0       0
  3106 ;;Total ram usage:       20 bytes
  3107 ;; Hardware stack levels used:    1
  3108 ;; This function calls:
  3109 ;;		Nothing
  3110 ;; This function is called by:
  3111 ;;		___flsub
  3112 ;; This function uses a non-reentrant model
  3113 ;;
  3114                           
  3115                           
  3116                           ;psect for function ___fladd
  3117  01F6                     ___fladd:	
  3118  01F6                     l1808:	
  3119                           ;incstack = 0
  3120                           ; Regs used in ___fladd: [wreg+status,2+status,0+btemp+1]
  3121                           
  3122  01F6  0873               	movf	___fladd@b+3,w
  3123  01F7  3980               	andlw	128
  3124  01F8  1283               	bcf	3,5	;RP0=0, select bank0
  3125  01F9  1303               	bcf	3,6	;RP1=0, select bank0
  3126  01FA  00A0               	movwf	??___fladd
  3127  01FB  0820               	movf	??___fladd,w
  3128  01FC  00F8               	movwf	___fladd@signs
  3129  01FD                     l1810:	
  3130  01FD  0873               	movf	___fladd@b+3,w
  3131  01FE  00A0               	movwf	??___fladd
  3132  01FF  0720               	addwf	??___fladd,w
  3133  0200  00A1               	movwf	??___fladd+1
  3134  0201  0821               	movf	??___fladd+1,w
  3135  0202  00FA               	movwf	___fladd@bexp
  3136  0203                     l1812:	
  3137  0203  1FF2               	btfss	___fladd@b+2,7
  3138  0204  2A06               	goto	u1671
  3139  0205  2A07               	goto	u1670
  3140  0206                     u1671:	
  3141  0206  2A08               	goto	l1816
  3142  0207                     u1670:	
  3143  0207                     l1814:	
  3144  0207  147A               	bsf	___fladd@bexp,0
  3145  0208                     l1816:	
  3146  0208  087A               	movf	___fladd@bexp,w
  3147  0209  1903               	btfsc	3,2
  3148  020A  2A0C               	goto	u1681
  3149  020B  2A0D               	goto	u1680
  3150  020C                     u1681:	
  3151  020C  2A1D               	goto	l1826
  3152  020D                     u1680:	
  3153  020D                     l1818:	
  3154  020D  0A7A               	incf	___fladd@bexp,w
  3155  020E  1D03               	btfss	3,2
  3156  020F  2A11               	goto	u1691
  3157  0210  2A12               	goto	u1690
  3158  0211                     u1691:	
  3159  0211  2A1A               	goto	l1822
  3160  0212                     u1690:	
  3161  0212                     l1820:	
  3162  0212  3000               	movlw	0
  3163  0213  00F3               	movwf	___fladd@b+3
  3164  0214  3000               	movlw	0
  3165  0215  00F2               	movwf	___fladd@b+2
  3166  0216  3000               	movlw	0
  3167  0217  00F1               	movwf	___fladd@b+1
  3168  0218  3000               	movlw	0
  3169  0219  00F0               	movwf	___fladd@b
  3170  021A                     l1822:	
  3171  021A  17F2               	bsf	___fladd@b+2,7
  3172  021B                     l1824:	
  3173  021B  01F3               	clrf	___fladd@b+3
  3174  021C  2A25               	goto	l1828
  3175  021D                     l1826:	
  3176  021D  3000               	movlw	0
  3177  021E  00F3               	movwf	___fladd@b+3
  3178  021F  3000               	movlw	0
  3179  0220  00F2               	movwf	___fladd@b+2
  3180  0221  3000               	movlw	0
  3181  0222  00F1               	movwf	___fladd@b+1
  3182  0223  3000               	movlw	0
  3183  0224  00F0               	movwf	___fladd@b
  3184  0225                     l1828:	
  3185  0225  0877               	movf	___fladd@a+3,w
  3186  0226  3980               	andlw	128
  3187  0227  00A0               	movwf	??___fladd
  3188  0228  0820               	movf	??___fladd,w
  3189  0229  00F9               	movwf	___fladd@aexp
  3190  022A                     l1830:	
  3191  022A  0879               	movf	___fladd@aexp,w
  3192  022B  0678               	xorwf	___fladd@signs,w
  3193  022C  1903               	skipnz
  3194  022D  2A2F               	goto	u1701
  3195  022E  2A30               	goto	u1700
  3196  022F                     u1701:	
  3197  022F  2A31               	goto	l1834
  3198  0230                     u1700:	
  3199  0230                     l1832:	
  3200  0230  1778               	bsf	___fladd@signs,6
  3201  0231                     l1834:	
  3202  0231  0877               	movf	___fladd@a+3,w
  3203  0232  00A0               	movwf	??___fladd
  3204  0233  0720               	addwf	??___fladd,w
  3205  0234  00A1               	movwf	??___fladd+1
  3206  0235  0821               	movf	??___fladd+1,w
  3207  0236  00F9               	movwf	___fladd@aexp
  3208  0237                     l1836:	
  3209  0237  1FF6               	btfss	___fladd@a+2,7
  3210  0238  2A3A               	goto	u1711
  3211  0239  2A3B               	goto	u1710
  3212  023A                     u1711:	
  3213  023A  2A3C               	goto	l1840
  3214  023B                     u1710:	
  3215  023B                     l1838:	
  3216  023B  1479               	bsf	___fladd@aexp,0
  3217  023C                     l1840:	
  3218  023C  0879               	movf	___fladd@aexp,w
  3219  023D  1903               	btfsc	3,2
  3220  023E  2A40               	goto	u1721
  3221  023F  2A41               	goto	u1720
  3222  0240                     u1721:	
  3223  0240  2A51               	goto	l1850
  3224  0241                     u1720:	
  3225  0241                     l1842:	
  3226  0241  0A79               	incf	___fladd@aexp,w
  3227  0242  1D03               	btfss	3,2
  3228  0243  2A45               	goto	u1731
  3229  0244  2A46               	goto	u1730
  3230  0245                     u1731:	
  3231  0245  2A4E               	goto	l1846
  3232  0246                     u1730:	
  3233  0246                     l1844:	
  3234  0246  3000               	movlw	0
  3235  0247  00F7               	movwf	___fladd@a+3
  3236  0248  3000               	movlw	0
  3237  0249  00F6               	movwf	___fladd@a+2
  3238  024A  3000               	movlw	0
  3239  024B  00F5               	movwf	___fladd@a+1
  3240  024C  3000               	movlw	0
  3241  024D  00F4               	movwf	___fladd@a
  3242  024E                     l1846:	
  3243  024E  17F6               	bsf	___fladd@a+2,7
  3244  024F                     l1848:	
  3245  024F  01F7               	clrf	___fladd@a+3
  3246  0250  2A59               	goto	l591
  3247  0251                     l1850:	
  3248  0251  3000               	movlw	0
  3249  0252  00F7               	movwf	___fladd@a+3
  3250  0253  3000               	movlw	0
  3251  0254  00F6               	movwf	___fladd@a+2
  3252  0255  3000               	movlw	0
  3253  0256  00F5               	movwf	___fladd@a+1
  3254  0257  3000               	movlw	0
  3255  0258  00F4               	movwf	___fladd@a
  3256  0259                     l591:	
  3257  0259  087A               	movf	___fladd@bexp,w
  3258  025A  0279               	subwf	___fladd@aexp,w
  3259  025B  1803               	skipnc
  3260  025C  2A5E               	goto	u1741
  3261  025D  2A5F               	goto	u1740
  3262  025E                     u1741:	
  3263  025E  2AA3               	goto	l1886
  3264  025F                     u1740:	
  3265  025F                     l1852:	
  3266  025F  1F78               	btfss	___fladd@signs,6
  3267  0260  2A62               	goto	u1751
  3268  0261  2A63               	goto	u1750
  3269  0262                     u1751:	
  3270  0262  2A67               	goto	l1856
  3271  0263                     u1750:	
  3272  0263                     l1854:	
  3273  0263  3080               	movlw	128
  3274  0264  00A0               	movwf	??___fladd
  3275  0265  0820               	movf	??___fladd,w
  3276  0266  06F8               	xorwf	___fladd@signs,f
  3277  0267                     l1856:	
  3278  0267  087A               	movf	___fladd@bexp,w
  3279  0268  00A0               	movwf	??___fladd
  3280  0269  0820               	movf	??___fladd,w
  3281  026A  00FB               	movwf	___fladd@grs
  3282  026B                     l1858:	
  3283  026B  0879               	movf	___fladd@aexp,w
  3284  026C  00A0               	movwf	??___fladd
  3285  026D  0820               	movf	??___fladd,w
  3286  026E  00FA               	movwf	___fladd@bexp
  3287  026F                     l1860:	
  3288  026F  087B               	movf	___fladd@grs,w
  3289  0270  00A0               	movwf	??___fladd
  3290  0271  0820               	movf	??___fladd,w
  3291  0272  00F9               	movwf	___fladd@aexp
  3292  0273                     l1862:	
  3293  0273  0870               	movf	___fladd@b,w
  3294  0274  00A0               	movwf	??___fladd
  3295  0275  0820               	movf	??___fladd,w
  3296  0276  00FB               	movwf	___fladd@grs
  3297  0277                     l1864:	
  3298  0277  0874               	movf	___fladd@a,w
  3299  0278  00A0               	movwf	??___fladd
  3300  0279  0820               	movf	??___fladd,w
  3301  027A  00F0               	movwf	___fladd@b
  3302  027B                     l1866:	
  3303  027B  087B               	movf	___fladd@grs,w
  3304  027C  00A0               	movwf	??___fladd
  3305  027D  0820               	movf	??___fladd,w
  3306  027E  00F4               	movwf	___fladd@a
  3307  027F                     l1868:	
  3308  027F  0871               	movf	___fladd@b+1,w
  3309  0280  00A0               	movwf	??___fladd
  3310  0281  0820               	movf	??___fladd,w
  3311  0282  00FB               	movwf	___fladd@grs
  3312  0283                     l1870:	
  3313  0283  0875               	movf	___fladd@a+1,w
  3314  0284  00A0               	movwf	??___fladd
  3315  0285  0820               	movf	??___fladd,w
  3316  0286  00F1               	movwf	___fladd@b+1
  3317  0287                     l1872:	
  3318  0287  087B               	movf	___fladd@grs,w
  3319  0288  00A0               	movwf	??___fladd
  3320  0289  0820               	movf	??___fladd,w
  3321  028A  00F5               	movwf	___fladd@a+1
  3322  028B                     l1874:	
  3323  028B  0872               	movf	___fladd@b+2,w
  3324  028C  00A0               	movwf	??___fladd
  3325  028D  0820               	movf	??___fladd,w
  3326  028E  00FB               	movwf	___fladd@grs
  3327  028F                     l1876:	
  3328  028F  0876               	movf	___fladd@a+2,w
  3329  0290  00A0               	movwf	??___fladd
  3330  0291  0820               	movf	??___fladd,w
  3331  0292  00F2               	movwf	___fladd@b+2
  3332  0293                     l1878:	
  3333  0293  087B               	movf	___fladd@grs,w
  3334  0294  00A0               	movwf	??___fladd
  3335  0295  0820               	movf	??___fladd,w
  3336  0296  00F6               	movwf	___fladd@a+2
  3337  0297                     l1880:	
  3338  0297  0873               	movf	___fladd@b+3,w
  3339  0298  00A0               	movwf	??___fladd
  3340  0299  0820               	movf	??___fladd,w
  3341  029A  00FB               	movwf	___fladd@grs
  3342  029B                     l1882:	
  3343  029B  0877               	movf	___fladd@a+3,w
  3344  029C  00A0               	movwf	??___fladd
  3345  029D  0820               	movf	??___fladd,w
  3346  029E  00F3               	movwf	___fladd@b+3
  3347  029F                     l1884:	
  3348  029F  087B               	movf	___fladd@grs,w
  3349  02A0  00A0               	movwf	??___fladd
  3350  02A1  0820               	movf	??___fladd,w
  3351  02A2  00F7               	movwf	___fladd@a+3
  3352  02A3                     l1886:	
  3353  02A3  01FB               	clrf	___fladd@grs
  3354  02A4                     l1888:	
  3355  02A4  0879               	movf	___fladd@aexp,w
  3356  02A5  00A0               	movwf	??___fladd
  3357  02A6  01A1               	clrf	??___fladd+1
  3358  02A7  0821               	movf	??___fladd+1,w
  3359  02A8  00A3               	movwf	??___fladd+3
  3360  02A9  087A               	movf	___fladd@bexp,w
  3361  02AA  0220               	subwf	??___fladd,w
  3362  02AB  00A2               	movwf	??___fladd+2
  3363  02AC  1C03               	skipc
  3364  02AD  03A3               	decf	??___fladd+3,f
  3365  02AE  0823               	movf	??___fladd+3,w
  3366  02AF  3A80               	xorlw	128
  3367  02B0  00FF               	movwf	btemp+1
  3368  02B1  3080               	movlw	128
  3369  02B2  027F               	subwf	btemp+1,w
  3370  02B3  1D03               	skipz
  3371  02B4  2AB7               	goto	u1765
  3372  02B5  301A               	movlw	26
  3373  02B6  0222               	subwf	??___fladd+2,w
  3374  02B7                     u1765:	
  3375  02B7  1C03               	skipc
  3376  02B8  2ABA               	goto	u1761
  3377  02B9  2ABB               	goto	u1760
  3378  02BA                     u1761:	
  3379  02BA  2AFC               	goto	l1904
  3380  02BB                     u1760:	
  3381  02BB                     l1890:	
  3382  02BB  0873               	movf	___fladd@b+3,w
  3383  02BC  0472               	iorwf	___fladd@b+2,w
  3384  02BD  0471               	iorwf	___fladd@b+1,w
  3385  02BE  0470               	iorwf	___fladd@b,w
  3386  02BF  1D03               	skipz
  3387  02C0  2AC2               	goto	u1771
  3388  02C1  2AC4               	goto	u1770
  3389  02C2                     u1771:	
  3390  02C2  3001               	movlw	1
  3391  02C3  2AC5               	goto	u1780
  3392  02C4                     u1770:	
  3393  02C4  3000               	movlw	0
  3394  02C5                     u1780:	
  3395  02C5  1283               	bcf	3,5	;RP0=0, select bank0
  3396  02C6  1303               	bcf	3,6	;RP1=0, select bank0
  3397  02C7  00A0               	movwf	??___fladd
  3398  02C8  0820               	movf	??___fladd,w
  3399  02C9  00FB               	movwf	___fladd@grs
  3400  02CA  3000               	movlw	0
  3401  02CB  00F3               	movwf	___fladd@b+3
  3402  02CC  3000               	movlw	0
  3403  02CD  00F2               	movwf	___fladd@b+2
  3404  02CE  3000               	movlw	0
  3405  02CF  00F1               	movwf	___fladd@b+1
  3406  02D0  3000               	movlw	0
  3407  02D1  00F0               	movwf	___fladd@b
  3408  02D2  0879               	movf	___fladd@aexp,w
  3409  02D3  00A0               	movwf	??___fladd
  3410  02D4  0820               	movf	??___fladd,w
  3411  02D5  00FA               	movwf	___fladd@bexp
  3412  02D6  2B02               	goto	l595
  3413  02D7                     l597:	
  3414  02D7  1C7B               	btfss	___fladd@grs,0
  3415  02D8  2ADA               	goto	u1791
  3416  02D9  2ADB               	goto	u1790
  3417  02DA                     u1791:	
  3418  02DA  2AE6               	goto	l1894
  3419  02DB                     u1790:	
  3420  02DB                     l1892:	
  3421  02DB  087B               	movf	___fladd@grs,w
  3422  02DC  1283               	bcf	3,5	;RP0=0, select bank0
  3423  02DD  1303               	bcf	3,6	;RP1=0, select bank0
  3424  02DE  00A0               	movwf	??___fladd
  3425  02DF  1003               	clrc
  3426  02E0  0C20               	rrf	??___fladd,w
  3427  02E1  3801               	iorlw	1
  3428  02E2  00A1               	movwf	??___fladd+1
  3429  02E3  0821               	movf	??___fladd+1,w
  3430  02E4  00FB               	movwf	___fladd@grs
  3431  02E5  2AE8               	goto	l1896
  3432  02E6                     l1894:	
  3433  02E6  1003               	clrc
  3434  02E7  0CFB               	rrf	___fladd@grs,f
  3435  02E8                     l1896:	
  3436  02E8  1C70               	btfss	___fladd@b,0
  3437  02E9  2AEB               	goto	u1801
  3438  02EA  2AEC               	goto	u1800
  3439  02EB                     u1801:	
  3440  02EB  2AED               	goto	l1900
  3441  02EC                     u1800:	
  3442  02EC                     l1898:	
  3443  02EC  17FB               	bsf	___fladd@grs,7
  3444  02ED                     l1900:	
  3445  02ED  3001               	movlw	1
  3446  02EE  1283               	bcf	3,5	;RP0=0, select bank0
  3447  02EF  1303               	bcf	3,6	;RP1=0, select bank0
  3448  02F0  00A0               	movwf	??___fladd
  3449  02F1                     u1815:	
  3450  02F1  0D73               	rlf	___fladd@b+3,w
  3451  02F2  0CF3               	rrf	___fladd@b+3,f
  3452  02F3  0CF2               	rrf	___fladd@b+2,f
  3453  02F4  0CF1               	rrf	___fladd@b+1,f
  3454  02F5  0CF0               	rrf	___fladd@b,f
  3455  02F6  0BA0               	decfsz	??___fladd& (0+127),f
  3456  02F7  2AF1               	goto	u1815
  3457  02F8                     l1902:	
  3458  02F8  3001               	movlw	1
  3459  02F9  00A0               	movwf	??___fladd
  3460  02FA  0820               	movf	??___fladd,w
  3461  02FB  07FA               	addwf	___fladd@bexp,f
  3462  02FC                     l1904:	
  3463  02FC  0879               	movf	___fladd@aexp,w
  3464  02FD  027A               	subwf	___fladd@bexp,w
  3465  02FE  1C03               	skipc
  3466  02FF  2B01               	goto	u1821
  3467  0300  2B02               	goto	u1820
  3468  0301                     u1821:	
  3469  0301  2AD7               	goto	l597
  3470  0302                     u1820:	
  3471  0302                     l595:	
  3472  0302  1B78               	btfsc	___fladd@signs,6
  3473  0303  2B05               	goto	u1831
  3474  0304  2B06               	goto	u1830
  3475  0305                     u1831:	
  3476  0305  2B55               	goto	l1930
  3477  0306                     u1830:	
  3478  0306                     l1906:	
  3479  0306  087A               	movf	___fladd@bexp,w
  3480  0307  1D03               	btfss	3,2
  3481  0308  2B0A               	goto	u1841
  3482  0309  2B0B               	goto	u1840
  3483  030A                     u1841:	
  3484  030A  2B14               	goto	l1912
  3485  030B                     u1840:	
  3486  030B                     l1908:	
  3487  030B  3000               	movlw	0
  3488  030C  00F3               	movwf	?___fladd+3
  3489  030D  3000               	movlw	0
  3490  030E  00F2               	movwf	?___fladd+2
  3491  030F  3000               	movlw	0
  3492  0310  00F1               	movwf	?___fladd+1
  3493  0311  3000               	movlw	0
  3494  0312  00F0               	movwf	?___fladd
  3495  0313  2C8D               	goto	l604
  3496  0314                     l1912:	
  3497  0314  0874               	movf	___fladd@a,w
  3498  0315  07F0               	addwf	___fladd@b,f
  3499  0316  0875               	movf	___fladd@a+1,w
  3500  0317  1103               	clrz
  3501  0318  1803               	skipnc
  3502  0319  3E01               	addlw	1
  3503  031A  1903               	skipnz
  3504  031B  2B1D               	goto	u1851
  3505  031C  07F1               	addwf	___fladd@b+1,f
  3506  031D                     u1851:	
  3507  031D  0876               	movf	___fladd@a+2,w
  3508  031E  1103               	clrz
  3509  031F  1803               	skipnc
  3510  0320  3E01               	addlw	1
  3511  0321  1903               	skipnz
  3512  0322  2B24               	goto	u1852
  3513  0323  07F2               	addwf	___fladd@b+2,f
  3514  0324                     u1852:	
  3515  0324  0877               	movf	___fladd@a+3,w
  3516  0325  1103               	clrz
  3517  0326  1803               	skipnc
  3518  0327  3E01               	addlw	1
  3519  0328  1903               	skipnz
  3520  0329  2B2B               	goto	u1853
  3521  032A  07F3               	addwf	___fladd@b+3,f
  3522  032B                     u1853:	
  3523  032B                     l1914:	
  3524  032B  1C73               	btfss	___fladd@b+3,0
  3525  032C  2B2E               	goto	u1861
  3526  032D  2B2F               	goto	u1860
  3527  032E                     u1861:	
  3528  032E  2C0D               	goto	l1964
  3529  032F                     u1860:	
  3530  032F                     l1916:	
  3531  032F  1C7B               	btfss	___fladd@grs,0
  3532  0330  2B32               	goto	u1871
  3533  0331  2B33               	goto	u1870
  3534  0332                     u1871:	
  3535  0332  2B3E               	goto	l1920
  3536  0333                     u1870:	
  3537  0333                     l1918:	
  3538  0333  087B               	movf	___fladd@grs,w
  3539  0334  1283               	bcf	3,5	;RP0=0, select bank0
  3540  0335  1303               	bcf	3,6	;RP1=0, select bank0
  3541  0336  00A0               	movwf	??___fladd
  3542  0337  1003               	clrc
  3543  0338  0C20               	rrf	??___fladd,w
  3544  0339  3801               	iorlw	1
  3545  033A  00A1               	movwf	??___fladd+1
  3546  033B  0821               	movf	??___fladd+1,w
  3547  033C  00FB               	movwf	___fladd@grs
  3548  033D  2B40               	goto	l1922
  3549  033E                     l1920:	
  3550  033E  1003               	clrc
  3551  033F  0CFB               	rrf	___fladd@grs,f
  3552  0340                     l1922:	
  3553  0340  1C70               	btfss	___fladd@b,0
  3554  0341  2B43               	goto	u1881
  3555  0342  2B44               	goto	u1880
  3556  0343                     u1881:	
  3557  0343  2B45               	goto	l1926
  3558  0344                     u1880:	
  3559  0344                     l1924:	
  3560  0344  17FB               	bsf	___fladd@grs,7
  3561  0345                     l1926:	
  3562  0345  3001               	movlw	1
  3563  0346  1283               	bcf	3,5	;RP0=0, select bank0
  3564  0347  1303               	bcf	3,6	;RP1=0, select bank0
  3565  0348  00A0               	movwf	??___fladd
  3566  0349                     u1895:	
  3567  0349  0D73               	rlf	___fladd@b+3,w
  3568  034A  0CF3               	rrf	___fladd@b+3,f
  3569  034B  0CF2               	rrf	___fladd@b+2,f
  3570  034C  0CF1               	rrf	___fladd@b+1,f
  3571  034D  0CF0               	rrf	___fladd@b,f
  3572  034E  0BA0               	decfsz	??___fladd& (0+127),f
  3573  034F  2B49               	goto	u1895
  3574  0350                     l1928:	
  3575  0350  3001               	movlw	1
  3576  0351  00A0               	movwf	??___fladd
  3577  0352  0820               	movf	??___fladd,w
  3578  0353  07FA               	addwf	___fladd@bexp,f
  3579  0354  2C0D               	goto	l1964
  3580  0355                     l1930:	
  3581  0355  0873               	movf	___fladd@b+3,w
  3582  0356  3A80               	xorlw	128
  3583  0357  00FF               	movwf	btemp+1
  3584  0358  0877               	movf	___fladd@a+3,w
  3585  0359  3A80               	xorlw	128
  3586  035A  027F               	subwf	btemp+1,w
  3587  035B  1D03               	skipz
  3588  035C  2B67               	goto	u1903
  3589  035D  0876               	movf	___fladd@a+2,w
  3590  035E  0272               	subwf	___fladd@b+2,w
  3591  035F  1D03               	skipz
  3592  0360  2B67               	goto	u1903
  3593  0361  0875               	movf	___fladd@a+1,w
  3594  0362  0271               	subwf	___fladd@b+1,w
  3595  0363  1D03               	skipz
  3596  0364  2B67               	goto	u1903
  3597  0365  0874               	movf	___fladd@a,w
  3598  0366  0270               	subwf	___fladd@b,w
  3599  0367                     u1903:	
  3600  0367  1803               	skipnc
  3601  0368  2B6A               	goto	u1901
  3602  0369  2B6B               	goto	u1900
  3603  036A                     u1901:	
  3604  036A  2BC5               	goto	l1940
  3605  036B                     u1900:	
  3606  036B                     l1932:	
  3607  036B  30FF               	movlw	255
  3608  036C  1283               	bcf	3,5	;RP0=0, select bank0
  3609  036D  1303               	bcf	3,6	;RP1=0, select bank0
  3610  036E  00A0               	movwf	??___fladd
  3611  036F  30FF               	movlw	255
  3612  0370  00A1               	movwf	??___fladd+1
  3613  0371  30FF               	movlw	255
  3614  0372  00A2               	movwf	??___fladd+2
  3615  0373  30FF               	movlw	255
  3616  0374  00A3               	movwf	??___fladd+3
  3617  0375  0874               	movf	___fladd@a,w
  3618  0376  00A4               	movwf	??___fladd+4
  3619  0377  0875               	movf	___fladd@a+1,w
  3620  0378  00A5               	movwf	??___fladd+5
  3621  0379  0876               	movf	___fladd@a+2,w
  3622  037A  00A6               	movwf	??___fladd+6
  3623  037B  0877               	movf	___fladd@a+3,w
  3624  037C  00A7               	movwf	??___fladd+7
  3625  037D  0870               	movf	___fladd@b,w
  3626  037E  02A4               	subwf	??___fladd+4,f
  3627  037F  0871               	movf	___fladd@b+1,w
  3628  0380  1C03               	skipc
  3629  0381  0F71               	incfsz	___fladd@b+1,w
  3630  0382  2B84               	goto	u1911
  3631  0383  2B85               	goto	u1912
  3632  0384                     u1911:	
  3633  0384  02A5               	subwf	??___fladd+5,f
  3634  0385                     u1912:	
  3635  0385  0872               	movf	___fladd@b+2,w
  3636  0386  1C03               	skipc
  3637  0387  0F72               	incfsz	___fladd@b+2,w
  3638  0388  2B8A               	goto	u1913
  3639  0389  2B8B               	goto	u1914
  3640  038A                     u1913:	
  3641  038A  02A6               	subwf	??___fladd+6,f
  3642  038B                     u1914:	
  3643  038B  0873               	movf	___fladd@b+3,w
  3644  038C  1C03               	skipc
  3645  038D  0F73               	incfsz	___fladd@b+3,w
  3646  038E  2B90               	goto	u1915
  3647  038F  2B91               	goto	u1916
  3648  0390                     u1915:	
  3649  0390  02A7               	subwf	??___fladd+7,f
  3650  0391                     u1916:	
  3651  0391  0824               	movf	??___fladd+4,w
  3652  0392  07A0               	addwf	??___fladd,f
  3653  0393  0825               	movf	??___fladd+5,w
  3654  0394  1803               	skipnc
  3655  0395  0F25               	incfsz	??___fladd+5,w
  3656  0396  2B98               	goto	u1920
  3657  0397  2B99               	goto	u1921
  3658  0398                     u1920:	
  3659  0398  07A1               	addwf	??___fladd+1,f
  3660  0399                     u1921:	
  3661  0399  0826               	movf	??___fladd+6,w
  3662  039A  1803               	skipnc
  3663  039B  0F26               	incfsz	??___fladd+6,w
  3664  039C  2B9E               	goto	u1922
  3665  039D  2B9F               	goto	u1923
  3666  039E                     u1922:	
  3667  039E  07A2               	addwf	??___fladd+2,f
  3668  039F                     u1923:	
  3669  039F  0827               	movf	??___fladd+7,w
  3670  03A0  1803               	skipnc
  3671  03A1  0A27               	incf	??___fladd+7,w
  3672  03A2  07A3               	addwf	??___fladd+3,f
  3673  03A3  0823               	movf	??___fladd+3,w
  3674  03A4  00F3               	movwf	___fladd@b+3
  3675  03A5  0822               	movf	??___fladd+2,w
  3676  03A6  00F2               	movwf	___fladd@b+2
  3677  03A7  0821               	movf	??___fladd+1,w
  3678  03A8  00F1               	movwf	___fladd@b+1
  3679  03A9  0820               	movf	??___fladd,w
  3680  03AA  00F0               	movwf	___fladd@b
  3681  03AB                     l1934:	
  3682  03AB  3080               	movlw	128
  3683  03AC  00A0               	movwf	??___fladd
  3684  03AD  0820               	movf	??___fladd,w
  3685  03AE  06F8               	xorwf	___fladd@signs,f
  3686  03AF  09FB               	comf	___fladd@grs,f
  3687  03B0  0AFB               	incf	___fladd@grs,f
  3688  03B1                     l1936:	
  3689  03B1  087B               	movf	___fladd@grs,w
  3690  03B2  1D03               	btfss	3,2
  3691  03B3  2BB5               	goto	u1931
  3692  03B4  2BB6               	goto	u1930
  3693  03B5                     u1931:	
  3694  03B5  2BD3               	goto	l612
  3695  03B6                     u1930:	
  3696  03B6                     l1938:	
  3697  03B6  3001               	movlw	1
  3698  03B7  07F0               	addwf	___fladd@b,f
  3699  03B8  3000               	movlw	0
  3700  03B9  1803               	skipnc
  3701  03BA  3001               	movlw	1
  3702  03BB  07F1               	addwf	___fladd@b+1,f
  3703  03BC  3000               	movlw	0
  3704  03BD  1803               	skipnc
  3705  03BE  3001               	movlw	1
  3706  03BF  07F2               	addwf	___fladd@b+2,f
  3707  03C0  3000               	movlw	0
  3708  03C1  1803               	skipnc
  3709  03C2  3001               	movlw	1
  3710  03C3  07F3               	addwf	___fladd@b+3,f
  3711  03C4  2BD3               	goto	l612
  3712  03C5                     l1940:	
  3713  03C5  0874               	movf	___fladd@a,w
  3714  03C6  02F0               	subwf	___fladd@b,f
  3715  03C7  0875               	movf	___fladd@a+1,w
  3716  03C8  1C03               	skipc
  3717  03C9  0F75               	incfsz	___fladd@a+1,w
  3718  03CA  02F1               	subwf	___fladd@b+1,f
  3719  03CB  0876               	movf	___fladd@a+2,w
  3720  03CC  1C03               	skipc
  3721  03CD  0F76               	incfsz	___fladd@a+2,w
  3722  03CE  02F2               	subwf	___fladd@b+2,f
  3723  03CF  0877               	movf	___fladd@a+3,w
  3724  03D0  1C03               	skipc
  3725  03D1  0F77               	incfsz	___fladd@a+3,w
  3726  03D2  02F3               	subwf	___fladd@b+3,f
  3727  03D3                     l612:	
  3728  03D3  0873               	movf	___fladd@b+3,w
  3729  03D4  0472               	iorwf	___fladd@b+2,w
  3730  03D5  0471               	iorwf	___fladd@b+1,w
  3731  03D6  0470               	iorwf	___fladd@b,w
  3732  03D7  1D03               	skipz
  3733  03D8  2BDA               	goto	u1941
  3734  03D9  2BDB               	goto	u1940
  3735  03DA                     u1941:	
  3736  03DA  2C09               	goto	l1962
  3737  03DB                     u1940:	
  3738  03DB                     l1942:	
  3739  03DB  087B               	movf	___fladd@grs,w
  3740  03DC  1D03               	btfss	3,2
  3741  03DD  2BDF               	goto	u1951
  3742  03DE  2BE0               	goto	u1950
  3743  03DF                     u1951:	
  3744  03DF  2C09               	goto	l1962
  3745  03E0                     u1950:	
  3746  03E0                     l1944:	
  3747  03E0  3000               	movlw	0
  3748  03E1  00F3               	movwf	?___fladd+3
  3749  03E2  3000               	movlw	0
  3750  03E3  00F2               	movwf	?___fladd+2
  3751  03E4  3000               	movlw	0
  3752  03E5  00F1               	movwf	?___fladd+1
  3753  03E6  3000               	movlw	0
  3754  03E7  00F0               	movwf	?___fladd
  3755  03E8  2C8D               	goto	l604
  3756  03E9                     l1948:	
  3757  03E9  3001               	movlw	1
  3758  03EA  1283               	bcf	3,5	;RP0=0, select bank0
  3759  03EB  1303               	bcf	3,6	;RP1=0, select bank0
  3760  03EC  00A0               	movwf	??___fladd
  3761  03ED                     u1965:	
  3762  03ED  1003               	clrc
  3763  03EE  0DF0               	rlf	___fladd@b,f
  3764  03EF  0DF1               	rlf	___fladd@b+1,f
  3765  03F0  0DF2               	rlf	___fladd@b+2,f
  3766  03F1  0DF3               	rlf	___fladd@b+3,f
  3767  03F2  0BA0               	decfsz	??___fladd,f
  3768  03F3  2BED               	goto	u1965
  3769  03F4                     l1950:	
  3770  03F4  1FFB               	btfss	___fladd@grs,7
  3771  03F5  2BF7               	goto	u1971
  3772  03F6  2BF8               	goto	u1970
  3773  03F7                     u1971:	
  3774  03F7  2BF9               	goto	l616
  3775  03F8                     u1970:	
  3776  03F8                     l1952:	
  3777  03F8  1470               	bsf	___fladd@b,0
  3778  03F9                     l616:	
  3779  03F9  1C7B               	btfss	___fladd@grs,0
  3780  03FA  2BFC               	goto	u1981
  3781  03FB  2BFD               	goto	u1980
  3782  03FC                     u1981:	
  3783  03FC  2C00               	goto	l1956
  3784  03FD                     u1980:	
  3785  03FD                     l1954:	
  3786  03FD  1403               	setc
  3787  03FE  0DFB               	rlf	___fladd@grs,f
  3788  03FF  2C02               	goto	l1958
  3789  0400                     l1956:	
  3790  0400  1003               	clrc
  3791  0401  0DFB               	rlf	___fladd@grs,f
  3792  0402                     l1958:	
  3793  0402  087A               	movf	___fladd@bexp,w
  3794  0403  1903               	btfsc	3,2
  3795  0404  2C06               	goto	u1991
  3796  0405  2C07               	goto	u1990
  3797  0406                     u1991:	
  3798  0406  2C09               	goto	l1962
  3799  0407                     u1990:	
  3800  0407                     l1960:	
  3801  0407  3001               	movlw	1
  3802  0408  02FA               	subwf	___fladd@bexp,f
  3803  0409                     l1962:	
  3804  0409  1FF2               	btfss	___fladd@b+2,7
  3805  040A  2C0C               	goto	u2001
  3806  040B  2C0D               	goto	u2000
  3807  040C                     u2001:	
  3808  040C  2BE9               	goto	l1948
  3809  040D                     u2000:	
  3810  040D                     l1964:	
  3811  040D  01F9               	clrf	___fladd@aexp
  3812  040E                     l1966:	
  3813  040E  1FFB               	btfss	___fladd@grs,7
  3814  040F  2C11               	goto	u2011
  3815  0410  2C12               	goto	u2010
  3816  0411                     u2011:	
  3817  0411  2C20               	goto	l1974
  3818  0412                     u2010:	
  3819  0412                     l1968:	
  3820  0412  087B               	movf	___fladd@grs,w
  3821  0413  397F               	andlw	127
  3822  0414  1903               	btfsc	3,2
  3823  0415  2C17               	goto	u2021
  3824  0416  2C18               	goto	u2020
  3825  0417                     u2021:	
  3826  0417  2C1B               	goto	l622
  3827  0418                     u2020:	
  3828  0418                     l1970:	
  3829  0418  01F9               	clrf	___fladd@aexp
  3830  0419  0AF9               	incf	___fladd@aexp,f
  3831  041A  2C20               	goto	l1974
  3832  041B                     l622:	
  3833  041B  1C70               	btfss	___fladd@b,0
  3834  041C  2C1E               	goto	u2031
  3835  041D  2C1F               	goto	u2030
  3836  041E                     u2031:	
  3837  041E  2C20               	goto	l1974
  3838  041F                     u2030:	
  3839  041F  2C18               	goto	l1970
  3840  0420                     l1974:	
  3841  0420  0879               	movf	___fladd@aexp,w
  3842  0421  1903               	btfsc	3,2
  3843  0422  2C24               	goto	u2041
  3844  0423  2C25               	goto	u2040
  3845  0424                     u2041:	
  3846  0424  2C5B               	goto	l625
  3847  0425                     u2040:	
  3848  0425                     l1976:	
  3849  0425  3001               	movlw	1
  3850  0426  07F0               	addwf	___fladd@b,f
  3851  0427  3000               	movlw	0
  3852  0428  1803               	skipnc
  3853  0429  3001               	movlw	1
  3854  042A  07F1               	addwf	___fladd@b+1,f
  3855  042B  3000               	movlw	0
  3856  042C  1803               	skipnc
  3857  042D  3001               	movlw	1
  3858  042E  07F2               	addwf	___fladd@b+2,f
  3859  042F  3000               	movlw	0
  3860  0430  1803               	skipnc
  3861  0431  3001               	movlw	1
  3862  0432  07F3               	addwf	___fladd@b+3,f
  3863  0433                     l1978:	
  3864  0433  1C73               	btfss	___fladd@b+3,0
  3865  0434  2C36               	goto	u2051
  3866  0435  2C37               	goto	u2050
  3867  0436                     u2051:	
  3868  0436  2C5B               	goto	l625
  3869  0437                     u2050:	
  3870  0437                     l1980:	
  3871  0437  0870               	movf	___fladd@b,w
  3872  0438  1283               	bcf	3,5	;RP0=0, select bank0
  3873  0439  1303               	bcf	3,6	;RP1=0, select bank0
  3874  043A  00A0               	movwf	??___fladd
  3875  043B  0871               	movf	___fladd@b+1,w
  3876  043C  00A1               	movwf	??___fladd+1
  3877  043D  0872               	movf	___fladd@b+2,w
  3878  043E  00A2               	movwf	??___fladd+2
  3879  043F  0873               	movf	___fladd@b+3,w
  3880  0440  00A3               	movwf	??___fladd+3
  3881  0441  3001               	movlw	1
  3882  0442  00A4               	movwf	??___fladd+4
  3883  0443                     u2065:	
  3884  0443  0D23               	rlf	??___fladd+3,w
  3885  0444  0CA3               	rrf	??___fladd+3,f
  3886  0445  0CA2               	rrf	??___fladd+2,f
  3887  0446  0CA1               	rrf	??___fladd+1,f
  3888  0447  0CA0               	rrf	??___fladd,f
  3889  0448                     u2060:	
  3890  0448  0BA4               	decfsz	??___fladd+4,f
  3891  0449  2C43               	goto	u2065
  3892  044A  0823               	movf	??___fladd+3,w
  3893  044B  00F3               	movwf	___fladd@b+3
  3894  044C  0822               	movf	??___fladd+2,w
  3895  044D  00F2               	movwf	___fladd@b+2
  3896  044E  0821               	movf	??___fladd+1,w
  3897  044F  00F1               	movwf	___fladd@b+1
  3898  0450  0820               	movf	??___fladd,w
  3899  0451  00F0               	movwf	___fladd@b
  3900  0452  0A7A               	incf	___fladd@bexp,w
  3901  0453  1903               	btfsc	3,2
  3902  0454  2C56               	goto	u2071
  3903  0455  2C57               	goto	u2070
  3904  0456                     u2071:	
  3905  0456  2C5B               	goto	l625
  3906  0457                     u2070:	
  3907  0457                     l1982:	
  3908  0457  3001               	movlw	1
  3909  0458  00A0               	movwf	??___fladd
  3910  0459  0820               	movf	??___fladd,w
  3911  045A  07FA               	addwf	___fladd@bexp,f
  3912  045B                     l625:	
  3913  045B  0A7A               	incf	___fladd@bexp,w
  3914  045C  1903               	btfsc	3,2
  3915  045D  2C5F               	goto	u2081
  3916  045E  2C60               	goto	u2080
  3917  045F                     u2081:	
  3918  045F  2C65               	goto	l1986
  3919  0460                     u2080:	
  3920  0460                     l1984:	
  3921  0460  087A               	movf	___fladd@bexp,w
  3922  0461  1D03               	btfss	3,2
  3923  0462  2C64               	goto	u2091
  3924  0463  2C65               	goto	u2090
  3925  0464                     u2091:	
  3926  0464  2C73               	goto	l1992
  3927  0465                     u2090:	
  3928  0465                     l1986:	
  3929  0465  3000               	movlw	0
  3930  0466  00F3               	movwf	___fladd@b+3
  3931  0467  3000               	movlw	0
  3932  0468  00F2               	movwf	___fladd@b+2
  3933  0469  3000               	movlw	0
  3934  046A  00F1               	movwf	___fladd@b+1
  3935  046B  3000               	movlw	0
  3936  046C  00F0               	movwf	___fladd@b
  3937  046D                     l1988:	
  3938  046D  087A               	movf	___fladd@bexp,w
  3939  046E  1D03               	btfss	3,2
  3940  046F  2C71               	goto	u2101
  3941  0470  2C72               	goto	u2100
  3942  0471                     u2101:	
  3943  0471  2C73               	goto	l1992
  3944  0472                     u2100:	
  3945  0472                     l1990:	
  3946  0472  01F8               	clrf	___fladd@signs
  3947  0473                     l1992:	
  3948  0473  1C7A               	btfss	___fladd@bexp,0
  3949  0474  2C76               	goto	u2111
  3950  0475  2C77               	goto	u2110
  3951  0476                     u2111:	
  3952  0476  2C79               	goto	l1996
  3953  0477                     u2110:	
  3954  0477                     l1994:	
  3955  0477  17F2               	bsf	___fladd@b+2,7
  3956  0478  2C7F               	goto	l633
  3957  0479                     l1996:	
  3958  0479  307F               	movlw	127
  3959  047A  1283               	bcf	3,5	;RP0=0, select bank0
  3960  047B  1303               	bcf	3,6	;RP1=0, select bank0
  3961  047C  00A0               	movwf	??___fladd
  3962  047D  0820               	movf	??___fladd,w
  3963  047E  05F2               	andwf	___fladd@b+2,f
  3964  047F                     l633:	
  3965  047F  087A               	movf	___fladd@bexp,w
  3966  0480  1283               	bcf	3,5	;RP0=0, select bank0
  3967  0481  1303               	bcf	3,6	;RP1=0, select bank0
  3968  0482  00A0               	movwf	??___fladd
  3969  0483  1003               	clrc
  3970  0484  0C20               	rrf	??___fladd,w
  3971  0485  00A1               	movwf	??___fladd+1
  3972  0486  0821               	movf	??___fladd+1,w
  3973  0487  00F3               	movwf	___fladd@b+3
  3974  0488                     l1998:	
  3975  0488  1FF8               	btfss	___fladd@signs,7
  3976  0489  2C8B               	goto	u2121
  3977  048A  2C8C               	goto	u2120
  3978  048B                     u2121:	
  3979  048B  2C8D               	goto	l634
  3980  048C                     u2120:	
  3981  048C                     l2000:	
  3982  048C  17F3               	bsf	___fladd@b+3,7
  3983  048D                     l634:	
  3984  048D                     l604:	
  3985  048D  0008               	return
  3986  048E                     __end_of___fladd:	
  3987                           
  3988                           	psect	text10
  3989  048E                     __ptext10:	
  3990 ;; *************** function ___flmul *****************
  3991 ;; Defined at:
  3992 ;;		line 8 in file "C:\Program Files (x86)\Microchip\xc8\v2.10\pic\sources\c90\common\sprcmul.c"
  3993 ;; Parameters:    Size  Location     Type
  3994 ;;  b               4   16[BANK0 ] unsigned char 
  3995 ;;  a               4   20[BANK0 ] unsigned char 
  3996 ;; Auto vars:     Size  Location     Type
  3997 ;;  prod            4   36[BANK0 ] struct .
  3998 ;;  grs             4   30[BANK0 ] unsigned long 
  3999 ;;  temp            2   40[BANK0 ] struct .
  4000 ;;  bexp            1   35[BANK0 ] unsigned char 
  4001 ;;  aexp            1   34[BANK0 ] unsigned char 
  4002 ;;  sign            1   29[BANK0 ] unsigned char 
  4003 ;; Return value:  Size  Location     Type
  4004 ;;                  4   16[BANK0 ] unsigned char 
  4005 ;; Registers used:
  4006 ;;		wreg, status,2, status,0, btemp+1, pclath, cstack
  4007 ;; Tracked objects:
  4008 ;;		On entry : 0/0
  4009 ;;		On exit  : 0/0
  4010 ;;		Unchanged: 0/0
  4011 ;; Data sizes:     COMMON   BANK0   BANK1   BANK3   BANK2
  4012 ;;      Params:         0       8       0       0       0
  4013 ;;      Locals:         0      13       0       0       0
  4014 ;;      Temps:          0       5       0       0       0
  4015 ;;      Totals:         0      26       0       0       0
  4016 ;;Total ram usage:       26 bytes
  4017 ;; Hardware stack levels used:    1
  4018 ;; Hardware stack levels required when called:    1
  4019 ;; This function calls:
  4020 ;;		__Umul8_16
  4021 ;; This function is called by:
  4022 ;;		_int_stre
  4023 ;;		_int_strd
  4024 ;;		_int_strc
  4025 ;; This function uses a non-reentrant model
  4026 ;;
  4027                           
  4028                           
  4029                           ;psect for function ___flmul
  4030  048E                     ___flmul:	
  4031  048E                     l2128:	
  4032                           ;incstack = 0
  4033                           ; Regs used in ___flmul: [wreg+status,2+status,0+btemp+1+pclath+cstack]
  4034                           
  4035  048E  1283               	bcf	3,5	;RP0=0, select bank0
  4036  048F  1303               	bcf	3,6	;RP1=0, select bank0
  4037  0490  0833               	movf	___flmul@b+3,w
  4038  0491  3980               	andlw	128
  4039  0492  00B8               	movwf	??___flmul
  4040  0493  0838               	movf	??___flmul,w
  4041  0494  00BD               	movwf	___flmul@sign
  4042  0495                     l2130:	
  4043  0495  0833               	movf	___flmul@b+3,w
  4044  0496  00B8               	movwf	??___flmul
  4045  0497  0738               	addwf	??___flmul,w
  4046  0498  00B9               	movwf	??___flmul+1
  4047  0499  0839               	movf	??___flmul+1,w
  4048  049A  00C3               	movwf	___flmul@bexp
  4049  049B                     l2132:	
  4050  049B  1FB2               	btfss	___flmul@b+2,7
  4051  049C  2C9E               	goto	u2281
  4052  049D  2C9F               	goto	u2280
  4053  049E                     u2281:	
  4054  049E  2CA0               	goto	l2136
  4055  049F                     u2280:	
  4056  049F                     l2134:	
  4057  049F  1443               	bsf	___flmul@bexp,0
  4058  04A0                     l2136:	
  4059  04A0  0843               	movf	___flmul@bexp,w
  4060  04A1  1903               	btfsc	3,2
  4061  04A2  2CA4               	goto	u2291
  4062  04A3  2CA5               	goto	u2290
  4063  04A4                     u2291:	
  4064  04A4  2CB4               	goto	l2144
  4065  04A5                     u2290:	
  4066  04A5                     l2138:	
  4067  04A5  0A43               	incf	___flmul@bexp,w
  4068  04A6  1D03               	btfss	3,2
  4069  04A7  2CA9               	goto	u2301
  4070  04A8  2CAA               	goto	u2300
  4071  04A9                     u2301:	
  4072  04A9  2CB2               	goto	l2142
  4073  04AA                     u2300:	
  4074  04AA                     l2140:	
  4075  04AA  3000               	movlw	0
  4076  04AB  00B3               	movwf	___flmul@b+3
  4077  04AC  3000               	movlw	0
  4078  04AD  00B2               	movwf	___flmul@b+2
  4079  04AE  3000               	movlw	0
  4080  04AF  00B1               	movwf	___flmul@b+1
  4081  04B0  3000               	movlw	0
  4082  04B1  00B0               	movwf	___flmul@b
  4083  04B2                     l2142:	
  4084  04B2  17B2               	bsf	___flmul@b+2,7
  4085  04B3  2CBC               	goto	l2146
  4086  04B4                     l2144:	
  4087  04B4  3000               	movlw	0
  4088  04B5  00B3               	movwf	___flmul@b+3
  4089  04B6  3000               	movlw	0
  4090  04B7  00B2               	movwf	___flmul@b+2
  4091  04B8  3000               	movlw	0
  4092  04B9  00B1               	movwf	___flmul@b+1
  4093  04BA  3000               	movlw	0
  4094  04BB  00B0               	movwf	___flmul@b
  4095  04BC                     l2146:	
  4096  04BC  0837               	movf	___flmul@a+3,w
  4097  04BD  3980               	andlw	128
  4098  04BE  00B8               	movwf	??___flmul
  4099  04BF  0838               	movf	??___flmul,w
  4100  04C0  06BD               	xorwf	___flmul@sign,f
  4101  04C1                     l2148:	
  4102  04C1  0837               	movf	___flmul@a+3,w
  4103  04C2  00B8               	movwf	??___flmul
  4104  04C3  0738               	addwf	??___flmul,w
  4105  04C4  00B9               	movwf	??___flmul+1
  4106  04C5  0839               	movf	??___flmul+1,w
  4107  04C6  00C2               	movwf	___flmul@aexp
  4108  04C7                     l2150:	
  4109  04C7  1FB6               	btfss	___flmul@a+2,7
  4110  04C8  2CCA               	goto	u2311
  4111  04C9  2CCB               	goto	u2310
  4112  04CA                     u2311:	
  4113  04CA  2CCC               	goto	l2154
  4114  04CB                     u2310:	
  4115  04CB                     l2152:	
  4116  04CB  1442               	bsf	___flmul@aexp,0
  4117  04CC                     l2154:	
  4118  04CC  0842               	movf	___flmul@aexp,w
  4119  04CD  1903               	btfsc	3,2
  4120  04CE  2CD0               	goto	u2321
  4121  04CF  2CD1               	goto	u2320
  4122  04D0                     u2321:	
  4123  04D0  2CE0               	goto	l2162
  4124  04D1                     u2320:	
  4125  04D1                     l2156:	
  4126  04D1  0A42               	incf	___flmul@aexp,w
  4127  04D2  1D03               	btfss	3,2
  4128  04D3  2CD5               	goto	u2331
  4129  04D4  2CD6               	goto	u2330
  4130  04D5                     u2331:	
  4131  04D5  2CDE               	goto	l2160
  4132  04D6                     u2330:	
  4133  04D6                     l2158:	
  4134  04D6  3000               	movlw	0
  4135  04D7  00B7               	movwf	___flmul@a+3
  4136  04D8  3000               	movlw	0
  4137  04D9  00B6               	movwf	___flmul@a+2
  4138  04DA  3000               	movlw	0
  4139  04DB  00B5               	movwf	___flmul@a+1
  4140  04DC  3000               	movlw	0
  4141  04DD  00B4               	movwf	___flmul@a
  4142  04DE                     l2160:	
  4143  04DE  17B6               	bsf	___flmul@a+2,7
  4144  04DF  2CE8               	goto	l2164
  4145  04E0                     l2162:	
  4146  04E0  3000               	movlw	0
  4147  04E1  00B7               	movwf	___flmul@a+3
  4148  04E2  3000               	movlw	0
  4149  04E3  00B6               	movwf	___flmul@a+2
  4150  04E4  3000               	movlw	0
  4151  04E5  00B5               	movwf	___flmul@a+1
  4152  04E6  3000               	movlw	0
  4153  04E7  00B4               	movwf	___flmul@a
  4154  04E8                     l2164:	
  4155  04E8  0842               	movf	___flmul@aexp,w
  4156  04E9  1903               	btfsc	3,2
  4157  04EA  2CEC               	goto	u2341
  4158  04EB  2CED               	goto	u2340
  4159  04EC                     u2341:	
  4160  04EC  2CF2               	goto	l2168
  4161  04ED                     u2340:	
  4162  04ED                     l2166:	
  4163  04ED  0843               	movf	___flmul@bexp,w
  4164  04EE  1D03               	btfss	3,2
  4165  04EF  2CF1               	goto	u2351
  4166  04F0  2CF2               	goto	u2350
  4167  04F1                     u2351:	
  4168  04F1  2CFB               	goto	l2172
  4169  04F2                     u2350:	
  4170  04F2                     l2168:	
  4171  04F2  3000               	movlw	0
  4172  04F3  00B3               	movwf	?___flmul+3
  4173  04F4  3000               	movlw	0
  4174  04F5  00B2               	movwf	?___flmul+2
  4175  04F6  3000               	movlw	0
  4176  04F7  00B1               	movwf	?___flmul+1
  4177  04F8  3000               	movlw	0
  4178  04F9  00B0               	movwf	?___flmul
  4179  04FA  2FEE               	goto	l687
  4180  04FB                     l2172:	
  4181  04FB  0830               	movf	___flmul@b,w
  4182  04FC  00B8               	movwf	??___flmul
  4183  04FD  0838               	movf	??___flmul,w
  4184  04FE  00F0               	movwf	__Umul8_16@multiplicand
  4185  04FF  0836               	movf	___flmul@a+2,w
  4186  0500  160A  118A  27D9  120A  118A  	fcall	__Umul8_16
  4187  0505  0871               	movf	?__Umul8_16+1,w
  4188  0506  1283               	bcf	3,5	;RP0=0, select bank0
  4189  0507  1303               	bcf	3,6	;RP1=0, select bank0
  4190  0508  00C9               	movwf	___flmul@temp+1
  4191  0509  0870               	movf	?__Umul8_16,w
  4192  050A  00C8               	movwf	___flmul@temp
  4193  050B                     l2174:	
  4194  050B  0848               	movf	___flmul@temp,w
  4195  050C  00B8               	movwf	??___flmul
  4196  050D  01B9               	clrf	??___flmul+1
  4197  050E  01BA               	clrf	??___flmul+2
  4198  050F  01BB               	clrf	??___flmul+3
  4199  0510  083B               	movf	??___flmul+3,w
  4200  0511  00C1               	movwf	___flmul@grs+3
  4201  0512  083A               	movf	??___flmul+2,w
  4202  0513  00C0               	movwf	___flmul@grs+2
  4203  0514  0839               	movf	??___flmul+1,w
  4204  0515  00BF               	movwf	___flmul@grs+1
  4205  0516  0838               	movf	??___flmul,w
  4206  0517  00BE               	movwf	___flmul@grs
  4207  0518                     l2176:	
  4208  0518  0849               	movf	___flmul@temp+1,w
  4209  0519  00B8               	movwf	??___flmul
  4210  051A  01B9               	clrf	??___flmul+1
  4211  051B  01BA               	clrf	??___flmul+2
  4212  051C  01BB               	clrf	??___flmul+3
  4213  051D  083B               	movf	??___flmul+3,w
  4214  051E  00C7               	movwf	___flmul@prod+3
  4215  051F  083A               	movf	??___flmul+2,w
  4216  0520  00C6               	movwf	___flmul@prod+2
  4217  0521  0839               	movf	??___flmul+1,w
  4218  0522  00C5               	movwf	___flmul@prod+1
  4219  0523  0838               	movf	??___flmul,w
  4220  0524  00C4               	movwf	___flmul@prod
  4221  0525  0831               	movf	___flmul@b+1,w
  4222  0526  00B8               	movwf	??___flmul
  4223  0527  0838               	movf	??___flmul,w
  4224  0528  00F0               	movwf	__Umul8_16@multiplicand
  4225  0529  0835               	movf	___flmul@a+1,w
  4226  052A  160A  118A  27D9  120A  118A  	fcall	__Umul8_16
  4227  052F  0871               	movf	?__Umul8_16+1,w
  4228  0530  1283               	bcf	3,5	;RP0=0, select bank0
  4229  0531  1303               	bcf	3,6	;RP1=0, select bank0
  4230  0532  00C9               	movwf	___flmul@temp+1
  4231  0533  0870               	movf	?__Umul8_16,w
  4232  0534  00C8               	movwf	___flmul@temp
  4233  0535                     l2178:	
  4234  0535  0848               	movf	___flmul@temp,w
  4235  0536  00B8               	movwf	??___flmul
  4236  0537  01B9               	clrf	??___flmul+1
  4237  0538  01BA               	clrf	??___flmul+2
  4238  0539  01BB               	clrf	??___flmul+3
  4239  053A  0838               	movf	??___flmul,w
  4240  053B  07BE               	addwf	___flmul@grs,f
  4241  053C  0839               	movf	??___flmul+1,w
  4242  053D  1103               	clrz
  4243  053E  1803               	skipnc
  4244  053F  3E01               	addlw	1
  4245  0540  1903               	skipnz
  4246  0541  2D43               	goto	u2361
  4247  0542  07BF               	addwf	___flmul@grs+1,f
  4248  0543                     u2361:	
  4249  0543  083A               	movf	??___flmul+2,w
  4250  0544  1103               	clrz
  4251  0545  1803               	skipnc
  4252  0546  3E01               	addlw	1
  4253  0547  1903               	skipnz
  4254  0548  2D4A               	goto	u2362
  4255  0549  07C0               	addwf	___flmul@grs+2,f
  4256  054A                     u2362:	
  4257  054A  083B               	movf	??___flmul+3,w
  4258  054B  1103               	clrz
  4259  054C  1803               	skipnc
  4260  054D  3E01               	addlw	1
  4261  054E  1903               	skipnz
  4262  054F  2D51               	goto	u2363
  4263  0550  07C1               	addwf	___flmul@grs+3,f
  4264  0551                     u2363:	
  4265  0551                     l2180:	
  4266  0551  0849               	movf	___flmul@temp+1,w
  4267  0552  00B8               	movwf	??___flmul
  4268  0553  01B9               	clrf	??___flmul+1
  4269  0554  01BA               	clrf	??___flmul+2
  4270  0555  01BB               	clrf	??___flmul+3
  4271  0556  0838               	movf	??___flmul,w
  4272  0557  07C4               	addwf	___flmul@prod,f
  4273  0558  0839               	movf	??___flmul+1,w
  4274  0559  1103               	clrz
  4275  055A  1803               	skipnc
  4276  055B  3E01               	addlw	1
  4277  055C  1903               	skipnz
  4278  055D  2D5F               	goto	u2371
  4279  055E  07C5               	addwf	___flmul@prod+1,f
  4280  055F                     u2371:	
  4281  055F  083A               	movf	??___flmul+2,w
  4282  0560  1103               	clrz
  4283  0561  1803               	skipnc
  4284  0562  3E01               	addlw	1
  4285  0563  1903               	skipnz
  4286  0564  2D66               	goto	u2372
  4287  0565  07C6               	addwf	___flmul@prod+2,f
  4288  0566                     u2372:	
  4289  0566  083B               	movf	??___flmul+3,w
  4290  0567  1103               	clrz
  4291  0568  1803               	skipnc
  4292  0569  3E01               	addlw	1
  4293  056A  1903               	skipnz
  4294  056B  2D6D               	goto	u2373
  4295  056C  07C7               	addwf	___flmul@prod+3,f
  4296  056D                     u2373:	
  4297  056D  0832               	movf	___flmul@b+2,w
  4298  056E  00B8               	movwf	??___flmul
  4299  056F  0838               	movf	??___flmul,w
  4300  0570  00F0               	movwf	__Umul8_16@multiplicand
  4301  0571  0834               	movf	___flmul@a,w
  4302  0572  160A  118A  27D9  120A  118A  	fcall	__Umul8_16
  4303  0577  0871               	movf	?__Umul8_16+1,w
  4304  0578  1283               	bcf	3,5	;RP0=0, select bank0
  4305  0579  1303               	bcf	3,6	;RP1=0, select bank0
  4306  057A  00C9               	movwf	___flmul@temp+1
  4307  057B  0870               	movf	?__Umul8_16,w
  4308  057C  00C8               	movwf	___flmul@temp
  4309  057D                     l2182:	
  4310  057D  0848               	movf	___flmul@temp,w
  4311  057E  00B8               	movwf	??___flmul
  4312  057F  01B9               	clrf	??___flmul+1
  4313  0580  01BA               	clrf	??___flmul+2
  4314  0581  01BB               	clrf	??___flmul+3
  4315  0582  0838               	movf	??___flmul,w
  4316  0583  07BE               	addwf	___flmul@grs,f
  4317  0584  0839               	movf	??___flmul+1,w
  4318  0585  1103               	clrz
  4319  0586  1803               	skipnc
  4320  0587  3E01               	addlw	1
  4321  0588  1903               	skipnz
  4322  0589  2D8B               	goto	u2381
  4323  058A  07BF               	addwf	___flmul@grs+1,f
  4324  058B                     u2381:	
  4325  058B  083A               	movf	??___flmul+2,w
  4326  058C  1103               	clrz
  4327  058D  1803               	skipnc
  4328  058E  3E01               	addlw	1
  4329  058F  1903               	skipnz
  4330  0590  2D92               	goto	u2382
  4331  0591  07C0               	addwf	___flmul@grs+2,f
  4332  0592                     u2382:	
  4333  0592  083B               	movf	??___flmul+3,w
  4334  0593  1103               	clrz
  4335  0594  1803               	skipnc
  4336  0595  3E01               	addlw	1
  4337  0596  1903               	skipnz
  4338  0597  2D99               	goto	u2383
  4339  0598  07C1               	addwf	___flmul@grs+3,f
  4340  0599                     u2383:	
  4341  0599                     l2184:	
  4342  0599  0849               	movf	___flmul@temp+1,w
  4343  059A  00B8               	movwf	??___flmul
  4344  059B  01B9               	clrf	??___flmul+1
  4345  059C  01BA               	clrf	??___flmul+2
  4346  059D  01BB               	clrf	??___flmul+3
  4347  059E  0838               	movf	??___flmul,w
  4348  059F  07C4               	addwf	___flmul@prod,f
  4349  05A0  0839               	movf	??___flmul+1,w
  4350  05A1  1103               	clrz
  4351  05A2  1803               	skipnc
  4352  05A3  3E01               	addlw	1
  4353  05A4  1903               	skipnz
  4354  05A5  2DA7               	goto	u2391
  4355  05A6  07C5               	addwf	___flmul@prod+1,f
  4356  05A7                     u2391:	
  4357  05A7  083A               	movf	??___flmul+2,w
  4358  05A8  1103               	clrz
  4359  05A9  1803               	skipnc
  4360  05AA  3E01               	addlw	1
  4361  05AB  1903               	skipnz
  4362  05AC  2DAE               	goto	u2392
  4363  05AD  07C6               	addwf	___flmul@prod+2,f
  4364  05AE                     u2392:	
  4365  05AE  083B               	movf	??___flmul+3,w
  4366  05AF  1103               	clrz
  4367  05B0  1803               	skipnc
  4368  05B1  3E01               	addlw	1
  4369  05B2  1903               	skipnz
  4370  05B3  2DB5               	goto	u2393
  4371  05B4  07C7               	addwf	___flmul@prod+3,f
  4372  05B5                     u2393:	
  4373  05B5                     l2186:	
  4374  05B5  3008               	movlw	8
  4375  05B6  00B8               	movwf	??___flmul
  4376  05B7                     u2405:	
  4377  05B7  1003               	clrc
  4378  05B8  0DBE               	rlf	___flmul@grs,f
  4379  05B9  0DBF               	rlf	___flmul@grs+1,f
  4380  05BA  0DC0               	rlf	___flmul@grs+2,f
  4381  05BB  0DC1               	rlf	___flmul@grs+3,f
  4382  05BC  0BB8               	decfsz	??___flmul,f
  4383  05BD  2DB7               	goto	u2405
  4384  05BE                     l2188:	
  4385  05BE  0831               	movf	___flmul@b+1,w
  4386  05BF  00B8               	movwf	??___flmul
  4387  05C0  0838               	movf	??___flmul,w
  4388  05C1  00F0               	movwf	__Umul8_16@multiplicand
  4389  05C2  0834               	movf	___flmul@a,w
  4390  05C3  160A  118A  27D9  120A  118A  	fcall	__Umul8_16
  4391  05C8  0871               	movf	?__Umul8_16+1,w
  4392  05C9  1283               	bcf	3,5	;RP0=0, select bank0
  4393  05CA  1303               	bcf	3,6	;RP1=0, select bank0
  4394  05CB  00C9               	movwf	___flmul@temp+1
  4395  05CC  0870               	movf	?__Umul8_16,w
  4396  05CD  00C8               	movwf	___flmul@temp
  4397  05CE                     l2190:	
  4398  05CE  0848               	movf	___flmul@temp,w
  4399  05CF  00B8               	movwf	??___flmul
  4400  05D0  0849               	movf	___flmul@temp+1,w
  4401  05D1  00B9               	movwf	??___flmul+1
  4402  05D2  01BA               	clrf	??___flmul+2
  4403  05D3  01BB               	clrf	??___flmul+3
  4404  05D4  0838               	movf	??___flmul,w
  4405  05D5  07BE               	addwf	___flmul@grs,f
  4406  05D6  0839               	movf	??___flmul+1,w
  4407  05D7  1103               	clrz
  4408  05D8  1803               	skipnc
  4409  05D9  3E01               	addlw	1
  4410  05DA  1903               	skipnz
  4411  05DB  2DDD               	goto	u2411
  4412  05DC  07BF               	addwf	___flmul@grs+1,f
  4413  05DD                     u2411:	
  4414  05DD  083A               	movf	??___flmul+2,w
  4415  05DE  1103               	clrz
  4416  05DF  1803               	skipnc
  4417  05E0  3E01               	addlw	1
  4418  05E1  1903               	skipnz
  4419  05E2  2DE4               	goto	u2412
  4420  05E3  07C0               	addwf	___flmul@grs+2,f
  4421  05E4                     u2412:	
  4422  05E4  083B               	movf	??___flmul+3,w
  4423  05E5  1103               	clrz
  4424  05E6  1803               	skipnc
  4425  05E7  3E01               	addlw	1
  4426  05E8  1903               	skipnz
  4427  05E9  2DEB               	goto	u2413
  4428  05EA  07C1               	addwf	___flmul@grs+3,f
  4429  05EB                     u2413:	
  4430  05EB                     l2192:	
  4431  05EB  0830               	movf	___flmul@b,w
  4432  05EC  00B8               	movwf	??___flmul
  4433  05ED  0838               	movf	??___flmul,w
  4434  05EE  00F0               	movwf	__Umul8_16@multiplicand
  4435  05EF  0835               	movf	___flmul@a+1,w
  4436  05F0  160A  118A  27D9  120A  118A  	fcall	__Umul8_16
  4437  05F5  0871               	movf	?__Umul8_16+1,w
  4438  05F6  1283               	bcf	3,5	;RP0=0, select bank0
  4439  05F7  1303               	bcf	3,6	;RP1=0, select bank0
  4440  05F8  00C9               	movwf	___flmul@temp+1
  4441  05F9  0870               	movf	?__Umul8_16,w
  4442  05FA  00C8               	movwf	___flmul@temp
  4443  05FB                     l2194:	
  4444  05FB  0848               	movf	___flmul@temp,w
  4445  05FC  00B8               	movwf	??___flmul
  4446  05FD  0849               	movf	___flmul@temp+1,w
  4447  05FE  00B9               	movwf	??___flmul+1
  4448  05FF  01BA               	clrf	??___flmul+2
  4449  0600  01BB               	clrf	??___flmul+3
  4450  0601  0838               	movf	??___flmul,w
  4451  0602  07BE               	addwf	___flmul@grs,f
  4452  0603  0839               	movf	??___flmul+1,w
  4453  0604  1103               	clrz
  4454  0605  1803               	skipnc
  4455  0606  3E01               	addlw	1
  4456  0607  1903               	skipnz
  4457  0608  2E0A               	goto	u2421
  4458  0609  07BF               	addwf	___flmul@grs+1,f
  4459  060A                     u2421:	
  4460  060A  083A               	movf	??___flmul+2,w
  4461  060B  1103               	clrz
  4462  060C  1803               	skipnc
  4463  060D  3E01               	addlw	1
  4464  060E  1903               	skipnz
  4465  060F  2E11               	goto	u2422
  4466  0610  07C0               	addwf	___flmul@grs+2,f
  4467  0611                     u2422:	
  4468  0611  083B               	movf	??___flmul+3,w
  4469  0612  1103               	clrz
  4470  0613  1803               	skipnc
  4471  0614  3E01               	addlw	1
  4472  0615  1903               	skipnz
  4473  0616  2E18               	goto	u2423
  4474  0617  07C1               	addwf	___flmul@grs+3,f
  4475  0618                     u2423:	
  4476  0618                     l2196:	
  4477  0618  3008               	movlw	8
  4478  0619  00B8               	movwf	??___flmul
  4479  061A                     u2435:	
  4480  061A  1003               	clrc
  4481  061B  0DBE               	rlf	___flmul@grs,f
  4482  061C  0DBF               	rlf	___flmul@grs+1,f
  4483  061D  0DC0               	rlf	___flmul@grs+2,f
  4484  061E  0DC1               	rlf	___flmul@grs+3,f
  4485  061F  0BB8               	decfsz	??___flmul,f
  4486  0620  2E1A               	goto	u2435
  4487  0621  0830               	movf	___flmul@b,w
  4488  0622  00B8               	movwf	??___flmul
  4489  0623  0838               	movf	??___flmul,w
  4490  0624  00F0               	movwf	__Umul8_16@multiplicand
  4491  0625  0834               	movf	___flmul@a,w
  4492  0626  160A  118A  27D9  120A  118A  	fcall	__Umul8_16
  4493  062B  0871               	movf	?__Umul8_16+1,w
  4494  062C  1283               	bcf	3,5	;RP0=0, select bank0
  4495  062D  1303               	bcf	3,6	;RP1=0, select bank0
  4496  062E  00C9               	movwf	___flmul@temp+1
  4497  062F  0870               	movf	?__Umul8_16,w
  4498  0630  00C8               	movwf	___flmul@temp
  4499  0631                     l2198:	
  4500  0631  0848               	movf	___flmul@temp,w
  4501  0632  00B8               	movwf	??___flmul
  4502  0633  0849               	movf	___flmul@temp+1,w
  4503  0634  00B9               	movwf	??___flmul+1
  4504  0635  01BA               	clrf	??___flmul+2
  4505  0636  01BB               	clrf	??___flmul+3
  4506  0637  0838               	movf	??___flmul,w
  4507  0638  07BE               	addwf	___flmul@grs,f
  4508  0639  0839               	movf	??___flmul+1,w
  4509  063A  1103               	clrz
  4510  063B  1803               	skipnc
  4511  063C  3E01               	addlw	1
  4512  063D  1903               	skipnz
  4513  063E  2E40               	goto	u2441
  4514  063F  07BF               	addwf	___flmul@grs+1,f
  4515  0640                     u2441:	
  4516  0640  083A               	movf	??___flmul+2,w
  4517  0641  1103               	clrz
  4518  0642  1803               	skipnc
  4519  0643  3E01               	addlw	1
  4520  0644  1903               	skipnz
  4521  0645  2E47               	goto	u2442
  4522  0646  07C0               	addwf	___flmul@grs+2,f
  4523  0647                     u2442:	
  4524  0647  083B               	movf	??___flmul+3,w
  4525  0648  1103               	clrz
  4526  0649  1803               	skipnc
  4527  064A  3E01               	addlw	1
  4528  064B  1903               	skipnz
  4529  064C  2E4E               	goto	u2443
  4530  064D  07C1               	addwf	___flmul@grs+3,f
  4531  064E                     u2443:	
  4532  064E                     l2200:	
  4533  064E  0831               	movf	___flmul@b+1,w
  4534  064F  00B8               	movwf	??___flmul
  4535  0650  0838               	movf	??___flmul,w
  4536  0651  00F0               	movwf	__Umul8_16@multiplicand
  4537  0652  0836               	movf	___flmul@a+2,w
  4538  0653  160A  118A  27D9  120A  118A  	fcall	__Umul8_16
  4539  0658  0871               	movf	?__Umul8_16+1,w
  4540  0659  1283               	bcf	3,5	;RP0=0, select bank0
  4541  065A  1303               	bcf	3,6	;RP1=0, select bank0
  4542  065B  00C9               	movwf	___flmul@temp+1
  4543  065C  0870               	movf	?__Umul8_16,w
  4544  065D  00C8               	movwf	___flmul@temp
  4545  065E  0848               	movf	___flmul@temp,w
  4546  065F  00B8               	movwf	??___flmul
  4547  0660  0849               	movf	___flmul@temp+1,w
  4548  0661  00B9               	movwf	??___flmul+1
  4549  0662  01BA               	clrf	??___flmul+2
  4550  0663  01BB               	clrf	??___flmul+3
  4551  0664  0838               	movf	??___flmul,w
  4552  0665  07C4               	addwf	___flmul@prod,f
  4553  0666  0839               	movf	??___flmul+1,w
  4554  0667  1103               	clrz
  4555  0668  1803               	skipnc
  4556  0669  3E01               	addlw	1
  4557  066A  1903               	skipnz
  4558  066B  2E6D               	goto	u2451
  4559  066C  07C5               	addwf	___flmul@prod+1,f
  4560  066D                     u2451:	
  4561  066D  083A               	movf	??___flmul+2,w
  4562  066E  1103               	clrz
  4563  066F  1803               	skipnc
  4564  0670  3E01               	addlw	1
  4565  0671  1903               	skipnz
  4566  0672  2E74               	goto	u2452
  4567  0673  07C6               	addwf	___flmul@prod+2,f
  4568  0674                     u2452:	
  4569  0674  083B               	movf	??___flmul+3,w
  4570  0675  1103               	clrz
  4571  0676  1803               	skipnc
  4572  0677  3E01               	addlw	1
  4573  0678  1903               	skipnz
  4574  0679  2E7B               	goto	u2453
  4575  067A  07C7               	addwf	___flmul@prod+3,f
  4576  067B                     u2453:	
  4577  067B                     l2202:	
  4578  067B  0832               	movf	___flmul@b+2,w
  4579  067C  00B8               	movwf	??___flmul
  4580  067D  0838               	movf	??___flmul,w
  4581  067E  00F0               	movwf	__Umul8_16@multiplicand
  4582  067F  0835               	movf	___flmul@a+1,w
  4583  0680  160A  118A  27D9  120A  118A  	fcall	__Umul8_16
  4584  0685  0871               	movf	?__Umul8_16+1,w
  4585  0686  1283               	bcf	3,5	;RP0=0, select bank0
  4586  0687  1303               	bcf	3,6	;RP1=0, select bank0
  4587  0688  00C9               	movwf	___flmul@temp+1
  4588  0689  0870               	movf	?__Umul8_16,w
  4589  068A  00C8               	movwf	___flmul@temp
  4590  068B                     l2204:	
  4591  068B  0848               	movf	___flmul@temp,w
  4592  068C  00B8               	movwf	??___flmul
  4593  068D  0849               	movf	___flmul@temp+1,w
  4594  068E  00B9               	movwf	??___flmul+1
  4595  068F  01BA               	clrf	??___flmul+2
  4596  0690  01BB               	clrf	??___flmul+3
  4597  0691  0838               	movf	??___flmul,w
  4598  0692  07C4               	addwf	___flmul@prod,f
  4599  0693  0839               	movf	??___flmul+1,w
  4600  0694  1103               	clrz
  4601  0695  1803               	skipnc
  4602  0696  3E01               	addlw	1
  4603  0697  1903               	skipnz
  4604  0698  2E9A               	goto	u2461
  4605  0699  07C5               	addwf	___flmul@prod+1,f
  4606  069A                     u2461:	
  4607  069A  083A               	movf	??___flmul+2,w
  4608  069B  1103               	clrz
  4609  069C  1803               	skipnc
  4610  069D  3E01               	addlw	1
  4611  069E  1903               	skipnz
  4612  069F  2EA1               	goto	u2462
  4613  06A0  07C6               	addwf	___flmul@prod+2,f
  4614  06A1                     u2462:	
  4615  06A1  083B               	movf	??___flmul+3,w
  4616  06A2  1103               	clrz
  4617  06A3  1803               	skipnc
  4618  06A4  3E01               	addlw	1
  4619  06A5  1903               	skipnz
  4620  06A6  2EA8               	goto	u2463
  4621  06A7  07C7               	addwf	___flmul@prod+3,f
  4622  06A8                     u2463:	
  4623  06A8  0832               	movf	___flmul@b+2,w
  4624  06A9  00B8               	movwf	??___flmul
  4625  06AA  0838               	movf	??___flmul,w
  4626  06AB  00F0               	movwf	__Umul8_16@multiplicand
  4627  06AC  0836               	movf	___flmul@a+2,w
  4628  06AD  160A  118A  27D9  120A  118A  	fcall	__Umul8_16
  4629  06B2  0871               	movf	?__Umul8_16+1,w
  4630  06B3  1283               	bcf	3,5	;RP0=0, select bank0
  4631  06B4  1303               	bcf	3,6	;RP1=0, select bank0
  4632  06B5  00C9               	movwf	___flmul@temp+1
  4633  06B6  0870               	movf	?__Umul8_16,w
  4634  06B7  00C8               	movwf	___flmul@temp
  4635  06B8                     l2206:	
  4636  06B8  0848               	movf	___flmul@temp,w
  4637  06B9  00B8               	movwf	??___flmul
  4638  06BA  0849               	movf	___flmul@temp+1,w
  4639  06BB  00B9               	movwf	??___flmul+1
  4640  06BC  01BA               	clrf	??___flmul+2
  4641  06BD  01BB               	clrf	??___flmul+3
  4642  06BE  3008               	movlw	8
  4643  06BF                     u2475:	
  4644  06BF  1003               	clrc
  4645  06C0  0DB8               	rlf	??___flmul,f
  4646  06C1  0DB9               	rlf	??___flmul+1,f
  4647  06C2  0DBA               	rlf	??___flmul+2,f
  4648  06C3  0DBB               	rlf	??___flmul+3,f
  4649  06C4                     u2470:	
  4650  06C4  3EFF               	addlw	-1
  4651  06C5  1D03               	skipz
  4652  06C6  2EBF               	goto	u2475
  4653  06C7  0838               	movf	??___flmul,w
  4654  06C8  07C4               	addwf	___flmul@prod,f
  4655  06C9  0839               	movf	??___flmul+1,w
  4656  06CA  1103               	clrz
  4657  06CB  1803               	skipnc
  4658  06CC  3E01               	addlw	1
  4659  06CD  1903               	skipnz
  4660  06CE  2ED0               	goto	u2481
  4661  06CF  07C5               	addwf	___flmul@prod+1,f
  4662  06D0                     u2481:	
  4663  06D0  083A               	movf	??___flmul+2,w
  4664  06D1  1103               	clrz
  4665  06D2  1803               	skipnc
  4666  06D3  3E01               	addlw	1
  4667  06D4  1903               	skipnz
  4668  06D5  2ED7               	goto	u2482
  4669  06D6  07C6               	addwf	___flmul@prod+2,f
  4670  06D7                     u2482:	
  4671  06D7  083B               	movf	??___flmul+3,w
  4672  06D8  1103               	clrz
  4673  06D9  1803               	skipnc
  4674  06DA  3E01               	addlw	1
  4675  06DB  1903               	skipnz
  4676  06DC  2EDE               	goto	u2483
  4677  06DD  07C7               	addwf	___flmul@prod+3,f
  4678  06DE                     u2483:	
  4679  06DE                     l2208:	
  4680  06DE  083E               	movf	___flmul@grs,w
  4681  06DF  00B8               	movwf	??___flmul
  4682  06E0  083F               	movf	___flmul@grs+1,w
  4683  06E1  00B9               	movwf	??___flmul+1
  4684  06E2  0840               	movf	___flmul@grs+2,w
  4685  06E3  00BA               	movwf	??___flmul+2
  4686  06E4  0841               	movf	___flmul@grs+3,w
  4687  06E5  00BB               	movwf	??___flmul+3
  4688  06E6  3018               	movlw	24
  4689  06E7                     u2495:	
  4690  06E7  1003               	clrc
  4691  06E8  0CBB               	rrf	??___flmul+3,f
  4692  06E9  0CBA               	rrf	??___flmul+2,f
  4693  06EA  0CB9               	rrf	??___flmul+1,f
  4694  06EB  0CB8               	rrf	??___flmul,f
  4695  06EC                     u2490:	
  4696  06EC  3EFF               	addlw	-1
  4697  06ED  1D03               	skipz
  4698  06EE  2EE7               	goto	u2495
  4699  06EF  0838               	movf	??___flmul,w
  4700  06F0  07C4               	addwf	___flmul@prod,f
  4701  06F1  0839               	movf	??___flmul+1,w
  4702  06F2  1103               	clrz
  4703  06F3  1803               	skipnc
  4704  06F4  3E01               	addlw	1
  4705  06F5  1903               	skipnz
  4706  06F6  2EF8               	goto	u2501
  4707  06F7  07C5               	addwf	___flmul@prod+1,f
  4708  06F8                     u2501:	
  4709  06F8  083A               	movf	??___flmul+2,w
  4710  06F9  1103               	clrz
  4711  06FA  1803               	skipnc
  4712  06FB  3E01               	addlw	1
  4713  06FC  1903               	skipnz
  4714  06FD  2EFF               	goto	u2502
  4715  06FE  07C6               	addwf	___flmul@prod+2,f
  4716  06FF                     u2502:	
  4717  06FF  083B               	movf	??___flmul+3,w
  4718  0700  1103               	clrz
  4719  0701  1803               	skipnc
  4720  0702  3E01               	addlw	1
  4721  0703  1903               	skipnz
  4722  0704  2F06               	goto	u2503
  4723  0705  07C7               	addwf	___flmul@prod+3,f
  4724  0706                     u2503:	
  4725  0706                     l2210:	
  4726  0706  3008               	movlw	8
  4727  0707  00B8               	movwf	??___flmul
  4728  0708                     u2515:	
  4729  0708  1003               	clrc
  4730  0709  0DBE               	rlf	___flmul@grs,f
  4731  070A  0DBF               	rlf	___flmul@grs+1,f
  4732  070B  0DC0               	rlf	___flmul@grs+2,f
  4733  070C  0DC1               	rlf	___flmul@grs+3,f
  4734  070D  0BB8               	decfsz	??___flmul,f
  4735  070E  2F08               	goto	u2515
  4736  070F                     l2212:	
  4737  070F  0843               	movf	___flmul@bexp,w
  4738  0710  0742               	addwf	___flmul@aexp,w
  4739  0711  00B8               	movwf	??___flmul
  4740  0712  01B9               	clrf	??___flmul+1
  4741  0713  0DB9               	rlf	??___flmul+1,f
  4742  0714  0838               	movf	??___flmul,w
  4743  0715  3E82               	addlw	130
  4744  0716  00C8               	movwf	___flmul@temp
  4745  0717  0839               	movf	??___flmul+1,w
  4746  0718  1803               	skipnc
  4747  0719  3E01               	addlw	1
  4748  071A  3EFF               	addlw	255
  4749  071B  00C9               	movwf	___flmul@temp+1
  4750  071C  2F3A               	goto	l2224
  4751  071D                     l2214:	
  4752  071D  3001               	movlw	1
  4753  071E  00B8               	movwf	??___flmul
  4754  071F                     u2525:	
  4755  071F  1003               	clrc
  4756  0720  0DC4               	rlf	___flmul@prod,f
  4757  0721  0DC5               	rlf	___flmul@prod+1,f
  4758  0722  0DC6               	rlf	___flmul@prod+2,f
  4759  0723  0DC7               	rlf	___flmul@prod+3,f
  4760  0724  0BB8               	decfsz	??___flmul,f
  4761  0725  2F1F               	goto	u2525
  4762  0726                     l2216:	
  4763  0726  1FC1               	btfss	___flmul@grs+3,7
  4764  0727  2F29               	goto	u2531
  4765  0728  2F2A               	goto	u2530
  4766  0729                     u2531:	
  4767  0729  2F2B               	goto	l2220
  4768  072A                     u2530:	
  4769  072A                     l2218:	
  4770  072A  1444               	bsf	___flmul@prod,0
  4771  072B                     l2220:	
  4772  072B  3001               	movlw	1
  4773  072C  00B8               	movwf	??___flmul
  4774  072D                     u2545:	
  4775  072D  1003               	clrc
  4776  072E  0DBE               	rlf	___flmul@grs,f
  4777  072F  0DBF               	rlf	___flmul@grs+1,f
  4778  0730  0DC0               	rlf	___flmul@grs+2,f
  4779  0731  0DC1               	rlf	___flmul@grs+3,f
  4780  0732  0BB8               	decfsz	??___flmul,f
  4781  0733  2F2D               	goto	u2545
  4782  0734                     l2222:	
  4783  0734  30FF               	movlw	255
  4784  0735  07C8               	addwf	___flmul@temp,f
  4785  0736  1803               	skipnc
  4786  0737  0AC9               	incf	___flmul@temp+1,f
  4787  0738  30FF               	movlw	255
  4788  0739  07C9               	addwf	___flmul@temp+1,f
  4789  073A                     l2224:	
  4790  073A  1FC6               	btfss	___flmul@prod+2,7
  4791  073B  2F3D               	goto	u2551
  4792  073C  2F3E               	goto	u2550
  4793  073D                     u2551:	
  4794  073D  2F1D               	goto	l2214
  4795  073E                     u2550:	
  4796  073E                     l2226:	
  4797  073E  01C2               	clrf	___flmul@aexp
  4798  073F                     l2228:	
  4799  073F  1FC1               	btfss	___flmul@grs+3,7
  4800  0740  2F42               	goto	u2561
  4801  0741  2F43               	goto	u2560
  4802  0742                     u2561:	
  4803  0742  2F5F               	goto	l2236
  4804  0743                     u2560:	
  4805  0743                     l2230:	
  4806  0743  30FF               	movlw	255
  4807  0744  053E               	andwf	___flmul@grs,w
  4808  0745  00B8               	movwf	??___flmul
  4809  0746  30FF               	movlw	255
  4810  0747  053F               	andwf	___flmul@grs+1,w
  4811  0748  00B9               	movwf	??___flmul+1
  4812  0749  30FF               	movlw	255
  4813  074A  0540               	andwf	___flmul@grs+2,w
  4814  074B  00BA               	movwf	??___flmul+2
  4815  074C  307F               	movlw	127
  4816  074D  0541               	andwf	___flmul@grs+3,w
  4817  074E  00BB               	movwf	??___flmul+3
  4818  074F  083B               	movf	??___flmul+3,w
  4819  0750  043A               	iorwf	??___flmul+2,w
  4820  0751  0439               	iorwf	??___flmul+1,w
  4821  0752  0438               	iorwf	??___flmul,w
  4822  0753  1903               	skipnz
  4823  0754  2F56               	goto	u2571
  4824  0755  2F57               	goto	u2570
  4825  0756                     u2571:	
  4826  0756  2F5A               	goto	l693
  4827  0757                     u2570:	
  4828  0757                     l2232:	
  4829  0757  01C2               	clrf	___flmul@aexp
  4830  0758  0AC2               	incf	___flmul@aexp,f
  4831  0759  2F5F               	goto	l2236
  4832  075A                     l693:	
  4833  075A  1C44               	btfss	___flmul@prod,0
  4834  075B  2F5D               	goto	u2581
  4835  075C  2F5E               	goto	u2580
  4836  075D                     u2581:	
  4837  075D  2F5F               	goto	l2236
  4838  075E                     u2580:	
  4839  075E  2F57               	goto	l2232
  4840  075F                     l2236:	
  4841  075F  0842               	movf	___flmul@aexp,w
  4842  0760  1903               	btfsc	3,2
  4843  0761  2F63               	goto	u2591
  4844  0762  2F64               	goto	u2590
  4845  0763                     u2591:	
  4846  0763  2F95               	goto	l2246
  4847  0764                     u2590:	
  4848  0764                     l2238:	
  4849  0764  3001               	movlw	1
  4850  0765  07C4               	addwf	___flmul@prod,f
  4851  0766  3000               	movlw	0
  4852  0767  1803               	skipnc
  4853  0768  3001               	movlw	1
  4854  0769  07C5               	addwf	___flmul@prod+1,f
  4855  076A  3000               	movlw	0
  4856  076B  1803               	skipnc
  4857  076C  3001               	movlw	1
  4858  076D  07C6               	addwf	___flmul@prod+2,f
  4859  076E  3000               	movlw	0
  4860  076F  1803               	skipnc
  4861  0770  3001               	movlw	1
  4862  0771  07C7               	addwf	___flmul@prod+3,f
  4863  0772                     l2240:	
  4864  0772  1C47               	btfss	___flmul@prod+3,0
  4865  0773  2F75               	goto	u2601
  4866  0774  2F76               	goto	u2600
  4867  0775                     u2601:	
  4868  0775  2F95               	goto	l2246
  4869  0776                     u2600:	
  4870  0776                     l2242:	
  4871  0776  0844               	movf	___flmul@prod,w
  4872  0777  00B8               	movwf	??___flmul
  4873  0778  0845               	movf	___flmul@prod+1,w
  4874  0779  00B9               	movwf	??___flmul+1
  4875  077A  0846               	movf	___flmul@prod+2,w
  4876  077B  00BA               	movwf	??___flmul+2
  4877  077C  0847               	movf	___flmul@prod+3,w
  4878  077D  00BB               	movwf	??___flmul+3
  4879  077E  3001               	movlw	1
  4880  077F  00BC               	movwf	??___flmul+4
  4881  0780                     u2615:	
  4882  0780  0D3B               	rlf	??___flmul+3,w
  4883  0781  0CBB               	rrf	??___flmul+3,f
  4884  0782  0CBA               	rrf	??___flmul+2,f
  4885  0783  0CB9               	rrf	??___flmul+1,f
  4886  0784  0CB8               	rrf	??___flmul,f
  4887  0785                     u2610:	
  4888  0785  0BBC               	decfsz	??___flmul+4,f
  4889  0786  2F80               	goto	u2615
  4890  0787  083B               	movf	??___flmul+3,w
  4891  0788  00C7               	movwf	___flmul@prod+3
  4892  0789  083A               	movf	??___flmul+2,w
  4893  078A  00C6               	movwf	___flmul@prod+2
  4894  078B  0839               	movf	??___flmul+1,w
  4895  078C  00C5               	movwf	___flmul@prod+1
  4896  078D  0838               	movf	??___flmul,w
  4897  078E  00C4               	movwf	___flmul@prod
  4898  078F                     l2244:	
  4899  078F  3001               	movlw	1
  4900  0790  07C8               	addwf	___flmul@temp,f
  4901  0791  1803               	skipnc
  4902  0792  0AC9               	incf	___flmul@temp+1,f
  4903  0793  3000               	movlw	0
  4904  0794  07C9               	addwf	___flmul@temp+1,f
  4905  0795                     l2246:	
  4906  0795  0849               	movf	___flmul@temp+1,w
  4907  0796  3A80               	xorlw	128
  4908  0797  00FF               	movwf	btemp+1
  4909  0798  3080               	movlw	128
  4910  0799  027F               	subwf	btemp+1,w
  4911  079A  1D03               	skipz
  4912  079B  2F9E               	goto	u2625
  4913  079C  30FF               	movlw	255
  4914  079D  0248               	subwf	___flmul@temp,w
  4915  079E                     u2625:	
  4916  079E  1C03               	skipc
  4917  079F  2FA1               	goto	u2621
  4918  07A0  2FA2               	goto	u2620
  4919  07A1                     u2621:	
  4920  07A1  2FAD               	goto	l2250
  4921  07A2                     u2620:	
  4922  07A2                     l2248:	
  4923  07A2  307F               	movlw	127
  4924  07A3  1283               	bcf	3,5	;RP0=0, select bank0
  4925  07A4  1303               	bcf	3,6	;RP1=0, select bank0
  4926  07A5  00C7               	movwf	___flmul@prod+3
  4927  07A6  3080               	movlw	128
  4928  07A7  00C6               	movwf	___flmul@prod+2
  4929  07A8  3000               	movlw	0
  4930  07A9  00C5               	movwf	___flmul@prod+1
  4931  07AA  3000               	movlw	0
  4932  07AB  00C4               	movwf	___flmul@prod
  4933  07AC  2FE2               	goto	l699
  4934  07AD                     l2250:	
  4935  07AD  1283               	bcf	3,5	;RP0=0, select bank0
  4936  07AE  1303               	bcf	3,6	;RP1=0, select bank0
  4937  07AF  0849               	movf	___flmul@temp+1,w
  4938  07B0  3A80               	xorlw	128
  4939  07B1  00FF               	movwf	btemp+1
  4940  07B2  3080               	movlw	128
  4941  07B3  027F               	subwf	btemp+1,w
  4942  07B4  1D03               	skipz
  4943  07B5  2FB8               	goto	u2635
  4944  07B6  3001               	movlw	1
  4945  07B7  0248               	subwf	___flmul@temp,w
  4946  07B8                     u2635:	
  4947  07B8  1803               	skipnc
  4948  07B9  2FBB               	goto	u2631
  4949  07BA  2FBC               	goto	u2630
  4950  07BB                     u2631:	
  4951  07BB  2FC8               	goto	l2256
  4952  07BC                     u2630:	
  4953  07BC                     l2252:	
  4954  07BC  3000               	movlw	0
  4955  07BD  1283               	bcf	3,5	;RP0=0, select bank0
  4956  07BE  1303               	bcf	3,6	;RP1=0, select bank0
  4957  07BF  00C7               	movwf	___flmul@prod+3
  4958  07C0  3000               	movlw	0
  4959  07C1  00C6               	movwf	___flmul@prod+2
  4960  07C2  3000               	movlw	0
  4961  07C3  00C5               	movwf	___flmul@prod+1
  4962  07C4  3000               	movlw	0
  4963  07C5  00C4               	movwf	___flmul@prod
  4964  07C6                     l2254:	
  4965  07C6  01BD               	clrf	___flmul@sign
  4966  07C7  2FE2               	goto	l699
  4967  07C8                     l2256:	
  4968  07C8  1283               	bcf	3,5	;RP0=0, select bank0
  4969  07C9  1303               	bcf	3,6	;RP1=0, select bank0
  4970  07CA  0848               	movf	___flmul@temp,w
  4971  07CB  00B8               	movwf	??___flmul
  4972  07CC  0838               	movf	??___flmul,w
  4973  07CD  00C3               	movwf	___flmul@bexp
  4974  07CE  30FF               	movlw	255
  4975  07CF  05C4               	andwf	___flmul@prod,f
  4976  07D0  30FF               	movlw	255
  4977  07D1  05C5               	andwf	___flmul@prod+1,f
  4978  07D2  307F               	movlw	127
  4979  07D3  05C6               	andwf	___flmul@prod+2,f
  4980  07D4  3000               	movlw	0
  4981  07D5  05C7               	andwf	___flmul@prod+3,f
  4982  07D6                     l2258:	
  4983  07D6  1C43               	btfss	___flmul@bexp,0
  4984  07D7  2FD9               	goto	u2641
  4985  07D8  2FDA               	goto	u2640
  4986  07D9                     u2641:	
  4987  07D9  2FDB               	goto	l2262
  4988  07DA                     u2640:	
  4989  07DA                     l2260:	
  4990  07DA  17C6               	bsf	___flmul@prod+2,7
  4991  07DB                     l2262:	
  4992  07DB  0843               	movf	___flmul@bexp,w
  4993  07DC  00B8               	movwf	??___flmul
  4994  07DD  1003               	clrc
  4995  07DE  0C38               	rrf	??___flmul,w
  4996  07DF  00B9               	movwf	??___flmul+1
  4997  07E0  0839               	movf	??___flmul+1,w
  4998  07E1  00C7               	movwf	___flmul@prod+3
  4999  07E2                     l699:	
  5000  07E2  083D               	movf	___flmul@sign,w
  5001  07E3  00B8               	movwf	??___flmul
  5002  07E4  0838               	movf	??___flmul,w
  5003  07E5  04C7               	iorwf	___flmul@prod+3,f
  5004  07E6                     l2264:	
  5005  07E6  0847               	movf	___flmul@prod+3,w
  5006  07E7  00B3               	movwf	?___flmul+3
  5007  07E8  0846               	movf	___flmul@prod+2,w
  5008  07E9  00B2               	movwf	?___flmul+2
  5009  07EA  0845               	movf	___flmul@prod+1,w
  5010  07EB  00B1               	movwf	?___flmul+1
  5011  07EC  0844               	movf	___flmul@prod,w
  5012  07ED  00B0               	movwf	?___flmul
  5013  07EE                     l687:	
  5014  07EE  0008               	return
  5015  07EF                     __end_of___flmul:	
  5016                           
  5017                           	psect	text11
  5018  17D9                     __ptext11:	
  5019 ;; *************** function __Umul8_16 *****************
  5020 ;; Defined at:
  5021 ;;		line 4 in file "C:\Program Files (x86)\Microchip\xc8\v2.10\pic\sources\c90\common\Umul8_16.c"
  5022 ;; Parameters:    Size  Location     Type
  5023 ;;  multiplier      1    wreg     unsigned char 
  5024 ;;  multiplicand    1    0[COMMON] unsigned char 
  5025 ;; Auto vars:     Size  Location     Type
  5026 ;;  multiplier      1    8[COMMON] unsigned char 
  5027 ;;  word_mpld       2    6[COMMON] unsigned int 
  5028 ;;  product         2    4[COMMON] unsigned int 
  5029 ;; Return value:  Size  Location     Type
  5030 ;;                  2    0[COMMON] unsigned int 
  5031 ;; Registers used:
  5032 ;;		wreg, status,2, status,0
  5033 ;; Tracked objects:
  5034 ;;		On entry : 0/0
  5035 ;;		On exit  : 0/0
  5036 ;;		Unchanged: 0/0
  5037 ;; Data sizes:     COMMON   BANK0   BANK1   BANK3   BANK2
  5038 ;;      Params:         2       0       0       0       0
  5039 ;;      Locals:         5       0       0       0       0
  5040 ;;      Temps:          2       0       0       0       0
  5041 ;;      Totals:         9       0       0       0       0
  5042 ;;Total ram usage:        9 bytes
  5043 ;; Hardware stack levels used:    1
  5044 ;; This function calls:
  5045 ;;		Nothing
  5046 ;; This function is called by:
  5047 ;;		___flmul
  5048 ;; This function uses a non-reentrant model
  5049 ;;
  5050                           
  5051                           
  5052                           ;psect for function __Umul8_16
  5053  17D9                     __Umul8_16:	
  5054                           
  5055                           ;incstack = 0
  5056                           ; Regs used in __Umul8_16: [wreg+status,2+status,0]
  5057                           ;__Umul8_16@multiplier stored from wreg
  5058  17D9  00F8               	movwf	__Umul8_16@multiplier
  5059  17DA                     l2002:	
  5060  17DA  01F4               	clrf	__Umul8_16@product
  5061  17DB  01F5               	clrf	__Umul8_16@product+1
  5062  17DC                     l2004:	
  5063  17DC  0870               	movf	__Umul8_16@multiplicand,w
  5064  17DD  00F2               	movwf	??__Umul8_16
  5065  17DE  01F3               	clrf	??__Umul8_16+1
  5066  17DF  0872               	movf	??__Umul8_16,w
  5067  17E0  00F6               	movwf	__Umul8_16@word_mpld
  5068  17E1  0873               	movf	??__Umul8_16+1,w
  5069  17E2  00F7               	movwf	__Umul8_16@word_mpld+1
  5070  17E3                     l2006:	
  5071  17E3  1C78               	btfss	__Umul8_16@multiplier,0
  5072  17E4  2FE6               	goto	u2131
  5073  17E5  2FE7               	goto	u2130
  5074  17E6                     u2131:	
  5075  17E6  2FED               	goto	l744
  5076  17E7                     u2130:	
  5077  17E7                     l2008:	
  5078  17E7  0876               	movf	__Umul8_16@word_mpld,w
  5079  17E8  07F4               	addwf	__Umul8_16@product,f
  5080  17E9  1803               	skipnc
  5081  17EA  0AF5               	incf	__Umul8_16@product+1,f
  5082  17EB  0877               	movf	__Umul8_16@word_mpld+1,w
  5083  17EC  07F5               	addwf	__Umul8_16@product+1,f
  5084  17ED                     l744:	
  5085  17ED  3001               	movlw	1
  5086  17EE                     u2145:	
  5087  17EE  1003               	clrc
  5088  17EF  0DF6               	rlf	__Umul8_16@word_mpld,f
  5089  17F0  0DF7               	rlf	__Umul8_16@word_mpld+1,f
  5090  17F1  3EFF               	addlw	-1
  5091  17F2  1D03               	skipz
  5092  17F3  2FEE               	goto	u2145
  5093  17F4  1003               	clrc
  5094  17F5  0CF8               	rrf	__Umul8_16@multiplier,f
  5095  17F6                     l2010:	
  5096  17F6  0878               	movf	__Umul8_16@multiplier,w
  5097  17F7  1D03               	btfss	3,2
  5098  17F8  2FFA               	goto	u2151
  5099  17F9  2FFB               	goto	u2150
  5100  17FA                     u2151:	
  5101  17FA  2FE3               	goto	l2006
  5102  17FB                     u2150:	
  5103  17FB                     l2012:	
  5104  17FB  0875               	movf	__Umul8_16@product+1,w
  5105  17FC  00F1               	movwf	?__Umul8_16+1
  5106  17FD  0874               	movf	__Umul8_16@product,w
  5107  17FE  00F0               	movwf	?__Umul8_16
  5108  17FF                     l746:	
  5109  17FF  0008               	return
  5110  1800                     __end_of__Umul8_16:	
  5111                           
  5112                           	psect	text12
  5113  0019                     __ptext12:	
  5114 ;; *************** function ___fldiv *****************
  5115 ;; Defined at:
  5116 ;;		line 8 in file "C:\Program Files (x86)\Microchip\xc8\v2.10\pic\sources\c90\common\sprcdiv.c"
  5117 ;; Parameters:    Size  Location     Type
  5118 ;;  a               4    0[BANK0 ] unsigned int 
  5119 ;;  b               4    4[BANK0 ] unsigned int 
  5120 ;; Auto vars:     Size  Location     Type
  5121 ;;  grs             4   20[BANK0 ] unsigned long 
  5122 ;;  rem             4   13[BANK0 ] unsigned long 
  5123 ;;  new_exp         2   18[BANK0 ] int 
  5124 ;;  aexp            1   25[BANK0 ] unsigned char 
  5125 ;;  bexp            1   24[BANK0 ] unsigned char 
  5126 ;;  sign            1   17[BANK0 ] unsigned char 
  5127 ;; Return value:  Size  Location     Type
  5128 ;;                  4    0[BANK0 ] unsigned char 
  5129 ;; Registers used:
  5130 ;;		wreg, status,2, status,0, btemp+1
  5131 ;; Tracked objects:
  5132 ;;		On entry : 0/0
  5133 ;;		On exit  : 0/0
  5134 ;;		Unchanged: 0/0
  5135 ;; Data sizes:     COMMON   BANK0   BANK1   BANK3   BANK2
  5136 ;;      Params:         0       8       0       0       0
  5137 ;;      Locals:         0      13       0       0       0
  5138 ;;      Temps:          0       5       0       0       0
  5139 ;;      Totals:         0      26       0       0       0
  5140 ;;Total ram usage:       26 bytes
  5141 ;; Hardware stack levels used:    1
  5142 ;; This function calls:
  5143 ;;		Nothing
  5144 ;; This function is called by:
  5145 ;;		_main
  5146 ;; This function uses a non-reentrant model
  5147 ;;
  5148                           
  5149                           
  5150                           ;psect for function ___fldiv
  5151  0019                     ___fldiv:	
  5152  0019                     l2486:	
  5153                           ;incstack = 0
  5154                           ; Regs used in ___fldiv: [wreg+status,2+status,0+btemp+1]
  5155                           
  5156  0019  1283               	bcf	3,5	;RP0=0, select bank0
  5157  001A  1303               	bcf	3,6	;RP1=0, select bank0
  5158  001B  0827               	movf	___fldiv@b+3,w
  5159  001C  3980               	andlw	128
  5160  001D  00A8               	movwf	??___fldiv
  5161  001E  0828               	movf	??___fldiv,w
  5162  001F  00B1               	movwf	___fldiv@sign
  5163  0020                     l2488:	
  5164  0020  0827               	movf	___fldiv@b+3,w
  5165  0021  00A8               	movwf	??___fldiv
  5166  0022  0728               	addwf	??___fldiv,w
  5167  0023  00A9               	movwf	??___fldiv+1
  5168  0024  0829               	movf	??___fldiv+1,w
  5169  0025  00B8               	movwf	___fldiv@bexp
  5170  0026                     l2490:	
  5171  0026  1FA6               	btfss	___fldiv@b+2,7
  5172  0027  2829               	goto	u2841
  5173  0028  282A               	goto	u2840
  5174  0029                     u2841:	
  5175  0029  282B               	goto	l2494
  5176  002A                     u2840:	
  5177  002A                     l2492:	
  5178  002A  1438               	bsf	___fldiv@bexp,0
  5179  002B                     l2494:	
  5180  002B  0838               	movf	___fldiv@bexp,w
  5181  002C  1903               	btfsc	3,2
  5182  002D  282F               	goto	u2851
  5183  002E  2830               	goto	u2850
  5184  002F                     u2851:	
  5185  002F  2840               	goto	l2504
  5186  0030                     u2850:	
  5187  0030                     l2496:	
  5188  0030  0A38               	incf	___fldiv@bexp,w
  5189  0031  1D03               	btfss	3,2
  5190  0032  2834               	goto	u2861
  5191  0033  2835               	goto	u2860
  5192  0034                     u2861:	
  5193  0034  283D               	goto	l2500
  5194  0035                     u2860:	
  5195  0035                     l2498:	
  5196  0035  3000               	movlw	0
  5197  0036  00A7               	movwf	___fldiv@b+3
  5198  0037  3000               	movlw	0
  5199  0038  00A6               	movwf	___fldiv@b+2
  5200  0039  3000               	movlw	0
  5201  003A  00A5               	movwf	___fldiv@b+1
  5202  003B  3000               	movlw	0
  5203  003C  00A4               	movwf	___fldiv@b
  5204  003D                     l2500:	
  5205  003D  17A6               	bsf	___fldiv@b+2,7
  5206  003E                     l2502:	
  5207  003E  01A7               	clrf	___fldiv@b+3
  5208  003F  2848               	goto	l2506
  5209  0040                     l2504:	
  5210  0040  3000               	movlw	0
  5211  0041  00A7               	movwf	___fldiv@b+3
  5212  0042  3000               	movlw	0
  5213  0043  00A6               	movwf	___fldiv@b+2
  5214  0044  3000               	movlw	0
  5215  0045  00A5               	movwf	___fldiv@b+1
  5216  0046  3000               	movlw	0
  5217  0047  00A4               	movwf	___fldiv@b
  5218  0048                     l2506:	
  5219  0048  0823               	movf	___fldiv@a+3,w
  5220  0049  3980               	andlw	128
  5221  004A  00A8               	movwf	??___fldiv
  5222  004B  0828               	movf	??___fldiv,w
  5223  004C  06B1               	xorwf	___fldiv@sign,f
  5224  004D                     l2508:	
  5225  004D  0823               	movf	___fldiv@a+3,w
  5226  004E  00A8               	movwf	??___fldiv
  5227  004F  0728               	addwf	??___fldiv,w
  5228  0050  00A9               	movwf	??___fldiv+1
  5229  0051  0829               	movf	??___fldiv+1,w
  5230  0052  00B9               	movwf	___fldiv@aexp
  5231  0053                     l2510:	
  5232  0053  1FA2               	btfss	___fldiv@a+2,7
  5233  0054  2856               	goto	u2871
  5234  0055  2857               	goto	u2870
  5235  0056                     u2871:	
  5236  0056  2858               	goto	l2514
  5237  0057                     u2870:	
  5238  0057                     l2512:	
  5239  0057  1439               	bsf	___fldiv@aexp,0
  5240  0058                     l2514:	
  5241  0058  0839               	movf	___fldiv@aexp,w
  5242  0059  1903               	btfsc	3,2
  5243  005A  285C               	goto	u2881
  5244  005B  285D               	goto	u2880
  5245  005C                     u2881:	
  5246  005C  286D               	goto	l2524
  5247  005D                     u2880:	
  5248  005D                     l2516:	
  5249  005D  0A39               	incf	___fldiv@aexp,w
  5250  005E  1D03               	btfss	3,2
  5251  005F  2861               	goto	u2891
  5252  0060  2862               	goto	u2890
  5253  0061                     u2891:	
  5254  0061  286A               	goto	l2520
  5255  0062                     u2890:	
  5256  0062                     l2518:	
  5257  0062  3000               	movlw	0
  5258  0063  00A3               	movwf	___fldiv@a+3
  5259  0064  3000               	movlw	0
  5260  0065  00A2               	movwf	___fldiv@a+2
  5261  0066  3000               	movlw	0
  5262  0067  00A1               	movwf	___fldiv@a+1
  5263  0068  3000               	movlw	0
  5264  0069  00A0               	movwf	___fldiv@a
  5265  006A                     l2520:	
  5266  006A  17A2               	bsf	___fldiv@a+2,7
  5267  006B                     l2522:	
  5268  006B  01A3               	clrf	___fldiv@a+3
  5269  006C  2875               	goto	l647
  5270  006D                     l2524:	
  5271  006D  3000               	movlw	0
  5272  006E  00A3               	movwf	___fldiv@a+3
  5273  006F  3000               	movlw	0
  5274  0070  00A2               	movwf	___fldiv@a+2
  5275  0071  3000               	movlw	0
  5276  0072  00A1               	movwf	___fldiv@a+1
  5277  0073  3000               	movlw	0
  5278  0074  00A0               	movwf	___fldiv@a
  5279  0075                     l647:	
  5280  0075  0823               	movf	___fldiv@a+3,w
  5281  0076  0422               	iorwf	___fldiv@a+2,w
  5282  0077  0421               	iorwf	___fldiv@a+1,w
  5283  0078  0420               	iorwf	___fldiv@a,w
  5284  0079  1D03               	skipz
  5285  007A  287C               	goto	u2901
  5286  007B  287D               	goto	u2900
  5287  007C                     u2901:	
  5288  007C  2896               	goto	l2534
  5289  007D                     u2900:	
  5290  007D                     l2526:	
  5291  007D  3000               	movlw	0
  5292  007E  00A7               	movwf	___fldiv@b+3
  5293  007F  3000               	movlw	0
  5294  0080  00A6               	movwf	___fldiv@b+2
  5295  0081  3000               	movlw	0
  5296  0082  00A5               	movwf	___fldiv@b+1
  5297  0083  3000               	movlw	0
  5298  0084  00A4               	movwf	___fldiv@b
  5299  0085  3080               	movlw	128
  5300  0086  04A6               	iorwf	___fldiv@b+2,f
  5301  0087  307F               	movlw	127
  5302  0088  04A7               	iorwf	___fldiv@b+3,f
  5303  0089                     l2528:	
  5304  0089  0831               	movf	___fldiv@sign,w
  5305  008A  00A8               	movwf	??___fldiv
  5306  008B  0828               	movf	??___fldiv,w
  5307  008C  04A7               	iorwf	___fldiv@b+3,f
  5308  008D                     l2530:	
  5309  008D  0827               	movf	___fldiv@b+3,w
  5310  008E  00A3               	movwf	?___fldiv+3
  5311  008F  0826               	movf	___fldiv@b+2,w
  5312  0090  00A2               	movwf	?___fldiv+2
  5313  0091  0825               	movf	___fldiv@b+1,w
  5314  0092  00A1               	movwf	?___fldiv+1
  5315  0093  0824               	movf	___fldiv@b,w
  5316  0094  00A0               	movwf	?___fldiv
  5317  0095  29F5               	goto	l649
  5318  0096                     l2534:	
  5319  0096  0838               	movf	___fldiv@bexp,w
  5320  0097  1D03               	btfss	3,2
  5321  0098  289A               	goto	u2911
  5322  0099  289B               	goto	u2910
  5323  009A                     u2911:	
  5324  009A  28A4               	goto	l2540
  5325  009B                     u2910:	
  5326  009B                     l2536:	
  5327  009B  3000               	movlw	0
  5328  009C  00A3               	movwf	?___fldiv+3
  5329  009D  3000               	movlw	0
  5330  009E  00A2               	movwf	?___fldiv+2
  5331  009F  3000               	movlw	0
  5332  00A0  00A1               	movwf	?___fldiv+1
  5333  00A1  3000               	movlw	0
  5334  00A2  00A0               	movwf	?___fldiv
  5335  00A3  29F5               	goto	l649
  5336  00A4                     l2540:	
  5337  00A4  0838               	movf	___fldiv@bexp,w
  5338  00A5  00A8               	movwf	??___fldiv
  5339  00A6  01A9               	clrf	??___fldiv+1
  5340  00A7  0829               	movf	??___fldiv+1,w
  5341  00A8  00AB               	movwf	??___fldiv+3
  5342  00A9  0839               	movf	___fldiv@aexp,w
  5343  00AA  0228               	subwf	??___fldiv,w
  5344  00AB  00AA               	movwf	??___fldiv+2
  5345  00AC  1C03               	skipc
  5346  00AD  03AB               	decf	??___fldiv+3,f
  5347  00AE  082A               	movf	??___fldiv+2,w
  5348  00AF  3E7F               	addlw	127
  5349  00B0  00B2               	movwf	___fldiv@new_exp
  5350  00B1  082B               	movf	??___fldiv+3,w
  5351  00B2  1803               	skipnc
  5352  00B3  3E01               	addlw	1
  5353  00B4  3E00               	addlw	0
  5354  00B5  00B3               	movwf	___fldiv@new_exp+1
  5355  00B6                     l2542:	
  5356  00B6  0827               	movf	___fldiv@b+3,w
  5357  00B7  00B0               	movwf	___fldiv@rem+3
  5358  00B8  0826               	movf	___fldiv@b+2,w
  5359  00B9  00AF               	movwf	___fldiv@rem+2
  5360  00BA  0825               	movf	___fldiv@b+1,w
  5361  00BB  00AE               	movwf	___fldiv@rem+1
  5362  00BC  0824               	movf	___fldiv@b,w
  5363  00BD  00AD               	movwf	___fldiv@rem
  5364  00BE                     l2544:	
  5365  00BE  3000               	movlw	0
  5366  00BF  00A7               	movwf	___fldiv@b+3
  5367  00C0  3000               	movlw	0
  5368  00C1  00A6               	movwf	___fldiv@b+2
  5369  00C2  3000               	movlw	0
  5370  00C3  00A5               	movwf	___fldiv@b+1
  5371  00C4  3000               	movlw	0
  5372  00C5  00A4               	movwf	___fldiv@b
  5373  00C6                     l2546:	
  5374  00C6  3000               	movlw	0
  5375  00C7  00B7               	movwf	___fldiv@grs+3
  5376  00C8  3000               	movlw	0
  5377  00C9  00B6               	movwf	___fldiv@grs+2
  5378  00CA  3000               	movlw	0
  5379  00CB  00B5               	movwf	___fldiv@grs+1
  5380  00CC  3000               	movlw	0
  5381  00CD  00B4               	movwf	___fldiv@grs
  5382  00CE                     l2548:	
  5383  00CE  01B9               	clrf	___fldiv@aexp
  5384  00CF  291A               	goto	l2568
  5385  00D0                     l2550:	
  5386  00D0  0839               	movf	___fldiv@aexp,w
  5387  00D1  1903               	btfsc	3,2
  5388  00D2  28D4               	goto	u2921
  5389  00D3  28D5               	goto	u2920
  5390  00D4                     u2921:	
  5391  00D4  28F5               	goto	l2560
  5392  00D5                     u2920:	
  5393  00D5                     l2552:	
  5394  00D5  3001               	movlw	1
  5395  00D6  00A8               	movwf	??___fldiv
  5396  00D7                     u2935:	
  5397  00D7  1003               	clrc
  5398  00D8  0DAD               	rlf	___fldiv@rem,f
  5399  00D9  0DAE               	rlf	___fldiv@rem+1,f
  5400  00DA  0DAF               	rlf	___fldiv@rem+2,f
  5401  00DB  0DB0               	rlf	___fldiv@rem+3,f
  5402  00DC  0BA8               	decfsz	??___fldiv,f
  5403  00DD  28D7               	goto	u2935
  5404  00DE  3001               	movlw	1
  5405  00DF  00A8               	movwf	??___fldiv
  5406  00E0                     u2945:	
  5407  00E0  1003               	clrc
  5408  00E1  0DA4               	rlf	___fldiv@b,f
  5409  00E2  0DA5               	rlf	___fldiv@b+1,f
  5410  00E3  0DA6               	rlf	___fldiv@b+2,f
  5411  00E4  0DA7               	rlf	___fldiv@b+3,f
  5412  00E5  0BA8               	decfsz	??___fldiv,f
  5413  00E6  28E0               	goto	u2945
  5414  00E7                     l2554:	
  5415  00E7  1FB7               	btfss	___fldiv@grs+3,7
  5416  00E8  28EA               	goto	u2951
  5417  00E9  28EB               	goto	u2950
  5418  00EA                     u2951:	
  5419  00EA  28EC               	goto	l2558
  5420  00EB                     u2950:	
  5421  00EB                     l2556:	
  5422  00EB  1424               	bsf	___fldiv@b,0
  5423  00EC                     l2558:	
  5424  00EC  3001               	movlw	1
  5425  00ED  00A8               	movwf	??___fldiv
  5426  00EE                     u2965:	
  5427  00EE  1003               	clrc
  5428  00EF  0DB4               	rlf	___fldiv@grs,f
  5429  00F0  0DB5               	rlf	___fldiv@grs+1,f
  5430  00F1  0DB6               	rlf	___fldiv@grs+2,f
  5431  00F2  0DB7               	rlf	___fldiv@grs+3,f
  5432  00F3  0BA8               	decfsz	??___fldiv,f
  5433  00F4  28EE               	goto	u2965
  5434  00F5                     l2560:	
  5435  00F5  0823               	movf	___fldiv@a+3,w
  5436  00F6  0230               	subwf	___fldiv@rem+3,w
  5437  00F7  1D03               	skipz
  5438  00F8  2903               	goto	u2975
  5439  00F9  0822               	movf	___fldiv@a+2,w
  5440  00FA  022F               	subwf	___fldiv@rem+2,w
  5441  00FB  1D03               	skipz
  5442  00FC  2903               	goto	u2975
  5443  00FD  0821               	movf	___fldiv@a+1,w
  5444  00FE  022E               	subwf	___fldiv@rem+1,w
  5445  00FF  1D03               	skipz
  5446  0100  2903               	goto	u2975
  5447  0101  0820               	movf	___fldiv@a,w
  5448  0102  022D               	subwf	___fldiv@rem,w
  5449  0103                     u2975:	
  5450  0103  1C03               	skipc
  5451  0104  2906               	goto	u2971
  5452  0105  2907               	goto	u2970
  5453  0106                     u2971:	
  5454  0106  2916               	goto	l2566
  5455  0107                     u2970:	
  5456  0107                     l2562:	
  5457  0107  1737               	bsf	___fldiv@grs+3,6
  5458  0108                     l2564:	
  5459  0108  0820               	movf	___fldiv@a,w
  5460  0109  02AD               	subwf	___fldiv@rem,f
  5461  010A  0821               	movf	___fldiv@a+1,w
  5462  010B  1C03               	skipc
  5463  010C  0F21               	incfsz	___fldiv@a+1,w
  5464  010D  02AE               	subwf	___fldiv@rem+1,f
  5465  010E  0822               	movf	___fldiv@a+2,w
  5466  010F  1C03               	skipc
  5467  0110  0F22               	incfsz	___fldiv@a+2,w
  5468  0111  02AF               	subwf	___fldiv@rem+2,f
  5469  0112  0823               	movf	___fldiv@a+3,w
  5470  0113  1C03               	skipc
  5471  0114  0F23               	incfsz	___fldiv@a+3,w
  5472  0115  02B0               	subwf	___fldiv@rem+3,f
  5473  0116                     l2566:	
  5474  0116  3001               	movlw	1
  5475  0117  00A8               	movwf	??___fldiv
  5476  0118  0828               	movf	??___fldiv,w
  5477  0119  07B9               	addwf	___fldiv@aexp,f
  5478  011A                     l2568:	
  5479  011A  301A               	movlw	26
  5480  011B  0239               	subwf	___fldiv@aexp,w
  5481  011C  1C03               	skipc
  5482  011D  291F               	goto	u2981
  5483  011E  2920               	goto	u2980
  5484  011F                     u2981:	
  5485  011F  28D0               	goto	l2550
  5486  0120                     u2980:	
  5487  0120                     l2570:	
  5488  0120  0830               	movf	___fldiv@rem+3,w
  5489  0121  042F               	iorwf	___fldiv@rem+2,w
  5490  0122  042E               	iorwf	___fldiv@rem+1,w
  5491  0123  042D               	iorwf	___fldiv@rem,w
  5492  0124  1903               	skipnz
  5493  0125  2927               	goto	u2991
  5494  0126  2928               	goto	u2990
  5495  0127                     u2991:	
  5496  0127  2947               	goto	l2584
  5497  0128                     u2990:	
  5498  0128                     l2572:	
  5499  0128  1434               	bsf	___fldiv@grs,0
  5500  0129  2947               	goto	l2584
  5501  012A                     l2574:	
  5502  012A  3001               	movlw	1
  5503  012B  00A8               	movwf	??___fldiv
  5504  012C                     u3005:	
  5505  012C  1003               	clrc
  5506  012D  0DA4               	rlf	___fldiv@b,f
  5507  012E  0DA5               	rlf	___fldiv@b+1,f
  5508  012F  0DA6               	rlf	___fldiv@b+2,f
  5509  0130  0DA7               	rlf	___fldiv@b+3,f
  5510  0131  0BA8               	decfsz	??___fldiv,f
  5511  0132  292C               	goto	u3005
  5512  0133                     l2576:	
  5513  0133  1FB7               	btfss	___fldiv@grs+3,7
  5514  0134  2936               	goto	u3011
  5515  0135  2937               	goto	u3010
  5516  0136                     u3011:	
  5517  0136  2938               	goto	l2580
  5518  0137                     u3010:	
  5519  0137                     l2578:	
  5520  0137  1424               	bsf	___fldiv@b,0
  5521  0138                     l2580:	
  5522  0138  3001               	movlw	1
  5523  0139  00A8               	movwf	??___fldiv
  5524  013A                     u3025:	
  5525  013A  1003               	clrc
  5526  013B  0DB4               	rlf	___fldiv@grs,f
  5527  013C  0DB5               	rlf	___fldiv@grs+1,f
  5528  013D  0DB6               	rlf	___fldiv@grs+2,f
  5529  013E  0DB7               	rlf	___fldiv@grs+3,f
  5530  013F  0BA8               	decfsz	??___fldiv,f
  5531  0140  293A               	goto	u3025
  5532  0141                     l2582:	
  5533  0141  30FF               	movlw	255
  5534  0142  07B2               	addwf	___fldiv@new_exp,f
  5535  0143  1803               	skipnc
  5536  0144  0AB3               	incf	___fldiv@new_exp+1,f
  5537  0145  30FF               	movlw	255
  5538  0146  07B3               	addwf	___fldiv@new_exp+1,f
  5539  0147                     l2584:	
  5540  0147  1FA6               	btfss	___fldiv@b+2,7
  5541  0148  294A               	goto	u3031
  5542  0149  294B               	goto	u3030
  5543  014A                     u3031:	
  5544  014A  292A               	goto	l2574
  5545  014B                     u3030:	
  5546  014B                     l2586:	
  5547  014B  01B9               	clrf	___fldiv@aexp
  5548  014C                     l2588:	
  5549  014C  1FB7               	btfss	___fldiv@grs+3,7
  5550  014D  294F               	goto	u3041
  5551  014E  2950               	goto	u3040
  5552  014F                     u3041:	
  5553  014F  296C               	goto	l2596
  5554  0150                     u3040:	
  5555  0150                     l2590:	
  5556  0150  30FF               	movlw	255
  5557  0151  0534               	andwf	___fldiv@grs,w
  5558  0152  00A8               	movwf	??___fldiv
  5559  0153  30FF               	movlw	255
  5560  0154  0535               	andwf	___fldiv@grs+1,w
  5561  0155  00A9               	movwf	??___fldiv+1
  5562  0156  30FF               	movlw	255
  5563  0157  0536               	andwf	___fldiv@grs+2,w
  5564  0158  00AA               	movwf	??___fldiv+2
  5565  0159  307F               	movlw	127
  5566  015A  0537               	andwf	___fldiv@grs+3,w
  5567  015B  00AB               	movwf	??___fldiv+3
  5568  015C  082B               	movf	??___fldiv+3,w
  5569  015D  042A               	iorwf	??___fldiv+2,w
  5570  015E  0429               	iorwf	??___fldiv+1,w
  5571  015F  0428               	iorwf	??___fldiv,w
  5572  0160  1903               	skipnz
  5573  0161  2963               	goto	u3051
  5574  0162  2964               	goto	u3050
  5575  0163                     u3051:	
  5576  0163  2967               	goto	l663
  5577  0164                     u3050:	
  5578  0164                     l2592:	
  5579  0164  01B9               	clrf	___fldiv@aexp
  5580  0165  0AB9               	incf	___fldiv@aexp,f
  5581  0166  296C               	goto	l2596
  5582  0167                     l663:	
  5583  0167  1C24               	btfss	___fldiv@b,0
  5584  0168  296A               	goto	u3061
  5585  0169  296B               	goto	u3060
  5586  016A                     u3061:	
  5587  016A  296C               	goto	l2596
  5588  016B                     u3060:	
  5589  016B  2964               	goto	l2592
  5590  016C                     l2596:	
  5591  016C  0839               	movf	___fldiv@aexp,w
  5592  016D  1903               	btfsc	3,2
  5593  016E  2970               	goto	u3071
  5594  016F  2971               	goto	u3070
  5595  0170                     u3071:	
  5596  0170  29A2               	goto	l2606
  5597  0171                     u3070:	
  5598  0171                     l2598:	
  5599  0171  3001               	movlw	1
  5600  0172  07A4               	addwf	___fldiv@b,f
  5601  0173  3000               	movlw	0
  5602  0174  1803               	skipnc
  5603  0175  3001               	movlw	1
  5604  0176  07A5               	addwf	___fldiv@b+1,f
  5605  0177  3000               	movlw	0
  5606  0178  1803               	skipnc
  5607  0179  3001               	movlw	1
  5608  017A  07A6               	addwf	___fldiv@b+2,f
  5609  017B  3000               	movlw	0
  5610  017C  1803               	skipnc
  5611  017D  3001               	movlw	1
  5612  017E  07A7               	addwf	___fldiv@b+3,f
  5613  017F                     l2600:	
  5614  017F  1C27               	btfss	___fldiv@b+3,0
  5615  0180  2982               	goto	u3081
  5616  0181  2983               	goto	u3080
  5617  0182                     u3081:	
  5618  0182  29A2               	goto	l2606
  5619  0183                     u3080:	
  5620  0183                     l2602:	
  5621  0183  0824               	movf	___fldiv@b,w
  5622  0184  00A8               	movwf	??___fldiv
  5623  0185  0825               	movf	___fldiv@b+1,w
  5624  0186  00A9               	movwf	??___fldiv+1
  5625  0187  0826               	movf	___fldiv@b+2,w
  5626  0188  00AA               	movwf	??___fldiv+2
  5627  0189  0827               	movf	___fldiv@b+3,w
  5628  018A  00AB               	movwf	??___fldiv+3
  5629  018B  3001               	movlw	1
  5630  018C  00AC               	movwf	??___fldiv+4
  5631  018D                     u3095:	
  5632  018D  0D2B               	rlf	??___fldiv+3,w
  5633  018E  0CAB               	rrf	??___fldiv+3,f
  5634  018F  0CAA               	rrf	??___fldiv+2,f
  5635  0190  0CA9               	rrf	??___fldiv+1,f
  5636  0191  0CA8               	rrf	??___fldiv,f
  5637  0192                     u3090:	
  5638  0192  0BAC               	decfsz	??___fldiv+4,f
  5639  0193  298D               	goto	u3095
  5640  0194  082B               	movf	??___fldiv+3,w
  5641  0195  00A7               	movwf	___fldiv@b+3
  5642  0196  082A               	movf	??___fldiv+2,w
  5643  0197  00A6               	movwf	___fldiv@b+2
  5644  0198  0829               	movf	??___fldiv+1,w
  5645  0199  00A5               	movwf	___fldiv@b+1
  5646  019A  0828               	movf	??___fldiv,w
  5647  019B  00A4               	movwf	___fldiv@b
  5648  019C                     l2604:	
  5649  019C  3001               	movlw	1
  5650  019D  07B2               	addwf	___fldiv@new_exp,f
  5651  019E  1803               	skipnc
  5652  019F  0AB3               	incf	___fldiv@new_exp+1,f
  5653  01A0  3000               	movlw	0
  5654  01A1  07B3               	addwf	___fldiv@new_exp+1,f
  5655  01A2                     l2606:	
  5656  01A2  0833               	movf	___fldiv@new_exp+1,w
  5657  01A3  3A80               	xorlw	128
  5658  01A4  00FF               	movwf	btemp+1
  5659  01A5  3080               	movlw	128
  5660  01A6  027F               	subwf	btemp+1,w
  5661  01A7  1D03               	skipz
  5662  01A8  29AB               	goto	u3105
  5663  01A9  30FF               	movlw	255
  5664  01AA  0232               	subwf	___fldiv@new_exp,w
  5665  01AB                     u3105:	
  5666  01AB  1C03               	skipc
  5667  01AC  29AE               	goto	u3101
  5668  01AD  29AF               	goto	u3100
  5669  01AE                     u3101:	
  5670  01AE  29BD               	goto	l2610
  5671  01AF                     u3100:	
  5672  01AF                     l2608:	
  5673  01AF  30FF               	movlw	255
  5674  01B0  1283               	bcf	3,5	;RP0=0, select bank0
  5675  01B1  1303               	bcf	3,6	;RP1=0, select bank0
  5676  01B2  00B2               	movwf	___fldiv@new_exp
  5677  01B3  3000               	movlw	0
  5678  01B4  00B3               	movwf	___fldiv@new_exp+1
  5679  01B5  3000               	movlw	0
  5680  01B6  00A7               	movwf	___fldiv@b+3
  5681  01B7  3000               	movlw	0
  5682  01B8  00A6               	movwf	___fldiv@b+2
  5683  01B9  3000               	movlw	0
  5684  01BA  00A5               	movwf	___fldiv@b+1
  5685  01BB  3000               	movlw	0
  5686  01BC  00A4               	movwf	___fldiv@b
  5687  01BD                     l2610:	
  5688  01BD  1283               	bcf	3,5	;RP0=0, select bank0
  5689  01BE  1303               	bcf	3,6	;RP1=0, select bank0
  5690  01BF  0833               	movf	___fldiv@new_exp+1,w
  5691  01C0  3A80               	xorlw	128
  5692  01C1  00FF               	movwf	btemp+1
  5693  01C2  3080               	movlw	128
  5694  01C3  027F               	subwf	btemp+1,w
  5695  01C4  1D03               	skipz
  5696  01C5  29C8               	goto	u3115
  5697  01C6  3001               	movlw	1
  5698  01C7  0232               	subwf	___fldiv@new_exp,w
  5699  01C8                     u3115:	
  5700  01C8  1803               	skipnc
  5701  01C9  29CB               	goto	u3111
  5702  01CA  29CC               	goto	u3110
  5703  01CB                     u3111:	
  5704  01CB  29D9               	goto	l669
  5705  01CC                     u3110:	
  5706  01CC                     l2612:	
  5707  01CC  1283               	bcf	3,5	;RP0=0, select bank0
  5708  01CD  1303               	bcf	3,6	;RP1=0, select bank0
  5709  01CE  01B2               	clrf	___fldiv@new_exp
  5710  01CF  01B3               	clrf	___fldiv@new_exp+1
  5711  01D0                     l2614:	
  5712  01D0  3000               	movlw	0
  5713  01D1  00A7               	movwf	___fldiv@b+3
  5714  01D2  3000               	movlw	0
  5715  01D3  00A6               	movwf	___fldiv@b+2
  5716  01D4  3000               	movlw	0
  5717  01D5  00A5               	movwf	___fldiv@b+1
  5718  01D6  3000               	movlw	0
  5719  01D7  00A4               	movwf	___fldiv@b
  5720  01D8                     l2616:	
  5721  01D8  01B1               	clrf	___fldiv@sign
  5722  01D9                     l669:	
  5723  01D9  1283               	bcf	3,5	;RP0=0, select bank0
  5724  01DA  1303               	bcf	3,6	;RP1=0, select bank0
  5725  01DB  0832               	movf	___fldiv@new_exp,w
  5726  01DC  00A8               	movwf	??___fldiv
  5727  01DD  0828               	movf	??___fldiv,w
  5728  01DE  00B8               	movwf	___fldiv@bexp
  5729  01DF                     l2618:	
  5730  01DF  1C38               	btfss	___fldiv@bexp,0
  5731  01E0  29E2               	goto	u3121
  5732  01E1  29E3               	goto	u3120
  5733  01E2                     u3121:	
  5734  01E2  29E5               	goto	l2622
  5735  01E3                     u3120:	
  5736  01E3                     l2620:	
  5737  01E3  17A6               	bsf	___fldiv@b+2,7
  5738  01E4  29E9               	goto	l671
  5739  01E5                     l2622:	
  5740  01E5  307F               	movlw	127
  5741  01E6  00A8               	movwf	??___fldiv
  5742  01E7  0828               	movf	??___fldiv,w
  5743  01E8  05A6               	andwf	___fldiv@b+2,f
  5744  01E9                     l671:	
  5745  01E9  0838               	movf	___fldiv@bexp,w
  5746  01EA  00A8               	movwf	??___fldiv
  5747  01EB  1003               	clrc
  5748  01EC  0C28               	rrf	??___fldiv,w
  5749  01ED  00A9               	movwf	??___fldiv+1
  5750  01EE  0829               	movf	??___fldiv+1,w
  5751  01EF  00A7               	movwf	___fldiv@b+3
  5752  01F0  0831               	movf	___fldiv@sign,w
  5753  01F1  00A8               	movwf	??___fldiv
  5754  01F2  0828               	movf	??___fldiv,w
  5755  01F3  04A7               	iorwf	___fldiv@b+3,f
  5756  01F4  288D               	goto	l2530
  5757  01F5                     l649:	
  5758  01F5  0008               	return
  5759  01F6                     __end_of___fldiv:	
  5760                           
  5761                           	psect	text13
  5762  0861                     __ptext13:	
  5763 ;; *************** function _Lcd_Write_String *****************
  5764 ;; Defined at:
  5765 ;;		line 125 in file "LCD.c"
  5766 ;; Parameters:    Size  Location     Type
  5767 ;;  a               2    3[COMMON] PTR unsigned char 
  5768 ;;		 -> STR_3(4), STR_2(4), STR_1(4), main@s2(5), 
  5769 ;;		 -> main@s1(5), 
  5770 ;; Auto vars:     Size  Location     Type
  5771 ;;  i               2    8[COMMON] int 
  5772 ;; Return value:  Size  Location     Type
  5773 ;;                  1    wreg      void 
  5774 ;; Registers used:
  5775 ;;		wreg, fsr0l, fsr0h, status,2, status,0, btemp+1, pclath, cstack
  5776 ;; Tracked objects:
  5777 ;;		On entry : 0/0
  5778 ;;		On exit  : 0/0
  5779 ;;		Unchanged: 0/0
  5780 ;; Data sizes:     COMMON   BANK0   BANK1   BANK3   BANK2
  5781 ;;      Params:         2       0       0       0       0
  5782 ;;      Locals:         2       0       0       0       0
  5783 ;;      Temps:          3       0       0       0       0
  5784 ;;      Totals:         7       0       0       0       0
  5785 ;;Total ram usage:        7 bytes
  5786 ;; Hardware stack levels used:    1
  5787 ;; Hardware stack levels required when called:    2
  5788 ;; This function calls:
  5789 ;;		_Lcd_Write_Char
  5790 ;; This function is called by:
  5791 ;;		_main
  5792 ;; This function uses a non-reentrant model
  5793 ;;
  5794                           
  5795                           
  5796                           ;psect for function _Lcd_Write_String
  5797  0861                     _Lcd_Write_String:	
  5798  0861                     l2340:	
  5799                           ;incstack = 0
  5800                           ; Regs used in _Lcd_Write_String: [wreg-fsr0h+status,2+status,0+btemp+1+pclath+cstack]
  5801                           
  5802                           
  5803                           ;LCD.c: 125: void Lcd_Write_String(char *a);LCD.c: 126: {;LCD.c: 127:  int i;;LCD.c: 128
      +                          :  for(i=0;a[i]!='\0';i++)
  5804  0861  01F8               	clrf	Lcd_Write_String@i
  5805  0862  01F9               	clrf	Lcd_Write_String@i+1
  5806  0863  2886               	goto	l2346
  5807  0864                     l2342:	
  5808                           
  5809                           ;LCD.c: 129:     Lcd_Write_Char(a[i]);
  5810  0864  0878               	movf	Lcd_Write_String@i,w
  5811  0865  0773               	addwf	Lcd_Write_String@a,w
  5812  0866  00F6               	movwf	??_Lcd_Write_String+1
  5813  0867  0874               	movf	Lcd_Write_String@a+1,w
  5814  0868  00F5               	movwf	??_Lcd_Write_String
  5815  0869  1803               	skipnc
  5816  086A  0AF5               	incf	??_Lcd_Write_String,f
  5817  086B  1FF8               	btfss	Lcd_Write_String@i,7
  5818  086C  286E               	goto	u2810
  5819  086D  03F5               	decf	??_Lcd_Write_String,f
  5820  086E                     u2810:	
  5821  086E  0875               	movf	??_Lcd_Write_String,w
  5822  086F  00F7               	movwf	??_Lcd_Write_String+2
  5823  0870  0877               	movf	??_Lcd_Write_String+2,w
  5824  0871  1283               	bcf	3,5	;RP0=0, select bank0
  5825  0872  1303               	bcf	3,6	;RP1=0, select bank0
  5826  0873  00FF               	movwf	btemp+1
  5827  0874  0876               	movf	??_Lcd_Write_String+1,w
  5828  0875  0084               	movwf	4
  5829  0876  160A  118A  2000  120A  158A  	fcall	stringtab
  5830  087B  160A  118A  2784  120A  158A  	fcall	_Lcd_Write_Char
  5831  0880                     l2344:	
  5832  0880  3001               	movlw	1
  5833  0881  07F8               	addwf	Lcd_Write_String@i,f
  5834  0882  1803               	skipnc
  5835  0883  0AF9               	incf	Lcd_Write_String@i+1,f
  5836  0884  3000               	movlw	0
  5837  0885  07F9               	addwf	Lcd_Write_String@i+1,f
  5838  0886                     l2346:	
  5839  0886  0878               	movf	Lcd_Write_String@i,w
  5840  0887  0773               	addwf	Lcd_Write_String@a,w
  5841  0888  00F6               	movwf	??_Lcd_Write_String+1
  5842  0889  0874               	movf	Lcd_Write_String@a+1,w
  5843  088A  00F5               	movwf	??_Lcd_Write_String
  5844  088B  1803               	skipnc
  5845  088C  0AF5               	incf	??_Lcd_Write_String,f
  5846  088D  1FF8               	btfss	Lcd_Write_String@i,7
  5847  088E  2890               	goto	u2820
  5848  088F  03F5               	decf	??_Lcd_Write_String,f
  5849  0890                     u2820:	
  5850  0890  0875               	movf	??_Lcd_Write_String,w
  5851  0891  00F7               	movwf	??_Lcd_Write_String+2
  5852  0892  0877               	movf	??_Lcd_Write_String+2,w
  5853  0893  1283               	bcf	3,5	;RP0=0, select bank0
  5854  0894  1303               	bcf	3,6	;RP1=0, select bank0
  5855  0895  00FF               	movwf	btemp+1
  5856  0896  0876               	movf	??_Lcd_Write_String+1,w
  5857  0897  0084               	movwf	4
  5858  0898  160A  118A  2000  120A  158A  	fcall	stringtab
  5859  089D  3A00               	xorlw	0
  5860  089E  1D03               	skipz
  5861  089F  28A1               	goto	u2831
  5862  08A0  28A2               	goto	u2830
  5863  08A1                     u2831:	
  5864  08A1  2864               	goto	l2342
  5865  08A2                     u2830:	
  5866  08A2                     l65:	
  5867  08A2  0008               	return
  5868  08A3                     __end_of_Lcd_Write_String:	
  5869                           
  5870                           	psect	text14
  5871  1784                     __ptext14:	
  5872 ;; *************** function _Lcd_Write_Char *****************
  5873 ;; Defined at:
  5874 ;;		line 115 in file "LCD.c"
  5875 ;; Parameters:    Size  Location     Type
  5876 ;;  a               1    wreg     unsigned char 
  5877 ;; Auto vars:     Size  Location     Type
  5878 ;;  a               1    2[COMMON] unsigned char 
  5879 ;; Return value:  Size  Location     Type
  5880 ;;                  1    wreg      void 
  5881 ;; Registers used:
  5882 ;;		wreg, status,2, status,0, pclath, cstack
  5883 ;; Tracked objects:
  5884 ;;		On entry : 0/0
  5885 ;;		On exit  : 0/0
  5886 ;;		Unchanged: 0/0
  5887 ;; Data sizes:     COMMON   BANK0   BANK1   BANK3   BANK2
  5888 ;;      Params:         0       0       0       0       0
  5889 ;;      Locals:         1       0       0       0       0
  5890 ;;      Temps:          1       0       0       0       0
  5891 ;;      Totals:         2       0       0       0       0
  5892 ;;Total ram usage:        2 bytes
  5893 ;; Hardware stack levels used:    1
  5894 ;; Hardware stack levels required when called:    1
  5895 ;; This function calls:
  5896 ;;		_Lcd_Port
  5897 ;; This function is called by:
  5898 ;;		_Lcd_Write_String
  5899 ;; This function uses a non-reentrant model
  5900 ;;
  5901                           
  5902                           
  5903                           ;psect for function _Lcd_Write_Char
  5904  1784                     _Lcd_Write_Char:	
  5905                           
  5906                           ;incstack = 0
  5907                           ; Regs used in _Lcd_Write_Char: [wreg+status,2+status,0+pclath+cstack]
  5908                           ;Lcd_Write_Char@a stored from wreg
  5909  1784  00F2               	movwf	Lcd_Write_Char@a
  5910  1785                     l2028:	
  5911                           
  5912                           ;LCD.c: 115: void Lcd_Write_Char(char a);LCD.c: 116: {;LCD.c: 118:    RC1 = 1;
  5913  1785  1283               	bcf	3,5	;RP0=0, select bank0
  5914  1786  1303               	bcf	3,6	;RP1=0, select bank0
  5915  1787  1487               	bsf	7,1	;volatile
  5916  1788                     l2030:	
  5917                           
  5918                           ;LCD.c: 119:    Lcd_Port(a);
  5919  1788  0872               	movf	Lcd_Write_Char@a,w
  5920  1789  120A  158A  2023  160A  118A  	fcall	_Lcd_Port
  5921  178E                     l2032:	
  5922                           
  5923                           ;LCD.c: 120:    RC0 = 1;
  5924  178E  1283               	bcf	3,5	;RP0=0, select bank0
  5925  178F  1303               	bcf	3,6	;RP1=0, select bank0
  5926  1790  1407               	bsf	7,0	;volatile
  5927  1791                     l2034:	
  5928                           
  5929                           ;LCD.c: 121:    _delay((unsigned long)((40)*(4000000/4000000.0)));
  5930  1791  300D               	movlw	13
  5931  1792  00F1               	movwf	??_Lcd_Write_Char
  5932  1793                     u3207:	
  5933  1793  0BF1               	decfsz	??_Lcd_Write_Char,f
  5934  1794  2F93               	goto	u3207
  5935  1795                     l2036:	
  5936                           
  5937                           ;LCD.c: 122:    RC0 = 0;
  5938  1795  1283               	bcf	3,5	;RP0=0, select bank0
  5939  1796  1303               	bcf	3,6	;RP1=0, select bank0
  5940  1797  1007               	bcf	7,0	;volatile
  5941  1798                     l59:	
  5942  1798  0008               	return
  5943  1799                     __end_of_Lcd_Write_Char:	
  5944                           
  5945                           	psect	text15
  5946  1799                     __ptext15:	
  5947 ;; *************** function _Lcd_Set_Cursor *****************
  5948 ;; Defined at:
  5949 ;;		line 85 in file "LCD.c"
  5950 ;; Parameters:    Size  Location     Type
  5951 ;;  a               1    wreg     unsigned char 
  5952 ;;  b               1    4[COMMON] unsigned char 
  5953 ;; Auto vars:     Size  Location     Type
  5954 ;;  a               1    5[COMMON] unsigned char 
  5955 ;; Return value:  Size  Location     Type
  5956 ;;                  1    wreg      void 
  5957 ;; Registers used:
  5958 ;;		wreg, status,2, status,0, pclath, cstack
  5959 ;; Tracked objects:
  5960 ;;		On entry : 0/0
  5961 ;;		On exit  : 0/0
  5962 ;;		Unchanged: 0/0
  5963 ;; Data sizes:     COMMON   BANK0   BANK1   BANK3   BANK2
  5964 ;;      Params:         1       0       0       0       0
  5965 ;;      Locals:         1       0       0       0       0
  5966 ;;      Temps:          0       0       0       0       0
  5967 ;;      Totals:         2       0       0       0       0
  5968 ;;Total ram usage:        2 bytes
  5969 ;; Hardware stack levels used:    1
  5970 ;; Hardware stack levels required when called:    2
  5971 ;; This function calls:
  5972 ;;		_Lcd_Cmd
  5973 ;; This function is called by:
  5974 ;;		_main
  5975 ;; This function uses a non-reentrant model
  5976 ;;
  5977                           
  5978                           
  5979                           ;psect for function _Lcd_Set_Cursor
  5980  1799                     _Lcd_Set_Cursor:	
  5981                           
  5982                           ;incstack = 0
  5983                           ; Regs used in _Lcd_Set_Cursor: [wreg+status,2+status,0+pclath+cstack]
  5984                           ;Lcd_Set_Cursor@a stored from wreg
  5985  1799  00F5               	movwf	Lcd_Set_Cursor@a
  5986  179A                     l2312:	
  5987                           
  5988                           ;LCD.c: 85: void Lcd_Set_Cursor(char a, char b);LCD.c: 86: {;LCD.c: 87:  if(a == 1)
  5989  179A  0375               	decf	Lcd_Set_Cursor@a,w
  5990  179B  1D03               	btfss	3,2
  5991  179C  2F9E               	goto	u2791
  5992  179D  2F9F               	goto	u2790
  5993  179E                     u2791:	
  5994  179E  2FA7               	goto	l2316
  5995  179F                     u2790:	
  5996  179F                     l2314:	
  5997                           
  5998                           ;LCD.c: 88:  {;LCD.c: 89:   Lcd_Cmd(0x80 + b - 1);
  5999  179F  0874               	movf	Lcd_Set_Cursor@b,w
  6000  17A0  3E7F               	addlw	127
  6001  17A1  120A  158A  2003  160A  118A  	fcall	_Lcd_Cmd
  6002                           
  6003                           ;LCD.c: 90:  }
  6004  17A6  2FB4               	goto	l53
  6005  17A7                     l2316:	
  6006  17A7  3002               	movlw	2
  6007  17A8  0675               	xorwf	Lcd_Set_Cursor@a,w
  6008  17A9  1D03               	btfss	3,2
  6009  17AA  2FAC               	goto	u2801
  6010  17AB  2FAD               	goto	u2800
  6011  17AC                     u2801:	
  6012  17AC  2FB4               	goto	l53
  6013  17AD                     u2800:	
  6014  17AD                     l2318:	
  6015                           
  6016                           ;LCD.c: 92:  {;LCD.c: 93:   Lcd_Cmd(0xC0 + b - 1);
  6017  17AD  0874               	movf	Lcd_Set_Cursor@b,w
  6018  17AE  3EBF               	addlw	191
  6019  17AF  120A  158A  2003  160A  118A  	fcall	_Lcd_Cmd
  6020  17B4                     l53:	
  6021  17B4  0008               	return
  6022  17B5                     __end_of_Lcd_Set_Cursor:	
  6023                           
  6024                           	psect	text16
  6025  08A3                     __ptext16:	
  6026 ;; *************** function _Lcd_Init *****************
  6027 ;; Defined at:
  6028 ;;		line 97 in file "LCD.c"
  6029 ;; Parameters:    Size  Location     Type
  6030 ;;		None
  6031 ;; Auto vars:     Size  Location     Type
  6032 ;;		None
  6033 ;; Return value:  Size  Location     Type
  6034 ;;                  1    wreg      void 
  6035 ;; Registers used:
  6036 ;;		wreg, status,2, status,0, pclath, cstack
  6037 ;; Tracked objects:
  6038 ;;		On entry : 0/0
  6039 ;;		On exit  : 0/0
  6040 ;;		Unchanged: 0/0
  6041 ;; Data sizes:     COMMON   BANK0   BANK1   BANK3   BANK2
  6042 ;;      Params:         0       0       0       0       0
  6043 ;;      Locals:         0       0       0       0       0
  6044 ;;      Temps:          2       0       0       0       0
  6045 ;;      Totals:         2       0       0       0       0
  6046 ;;Total ram usage:        2 bytes
  6047 ;; Hardware stack levels used:    1
  6048 ;; Hardware stack levels required when called:    2
  6049 ;; This function calls:
  6050 ;;		_Lcd_Cmd
  6051 ;; This function is called by:
  6052 ;;		_main
  6053 ;; This function uses a non-reentrant model
  6054 ;;
  6055                           
  6056                           
  6057                           ;psect for function _Lcd_Init
  6058  08A3                     _Lcd_Init:	
  6059  08A3                     l2320:	
  6060                           ;incstack = 0
  6061                           ; Regs used in _Lcd_Init: [wreg+status,2+status,0+pclath+cstack]
  6062                           
  6063                           
  6064                           ;LCD.c: 100:    _delay((unsigned long)((15)*(4000000/4000.0)));
  6065  08A3  3014               	movlw	20
  6066  08A4  00F5               	movwf	??_Lcd_Init+1
  6067  08A5  3079               	movlw	121
  6068  08A6  00F4               	movwf	??_Lcd_Init
  6069  08A7                     u3217:	
  6070  08A7  0BF4               	decfsz	??_Lcd_Init,f
  6071  08A8  28A7               	goto	u3217
  6072  08A9  0BF5               	decfsz	??_Lcd_Init+1,f
  6073  08AA  28A7               	goto	u3217
  6074  08AB  28AC               	nop2
  6075  08AC                     l2322:	
  6076                           
  6077                           ;LCD.c: 101:   Lcd_Cmd(0x030);
  6078  08AC  3030               	movlw	48
  6079  08AD  120A  158A  2003  120A  158A  	fcall	_Lcd_Cmd
  6080  08B2                     l2324:	
  6081                           
  6082                           ;LCD.c: 102:   _delay((unsigned long)((5)*(4000000/4000.0)));
  6083  08B2  3007               	movlw	7
  6084  08B3  00F5               	movwf	??_Lcd_Init+1
  6085  08B4  307D               	movlw	125
  6086  08B5  00F4               	movwf	??_Lcd_Init
  6087  08B6                     u3227:	
  6088  08B6  0BF4               	decfsz	??_Lcd_Init,f
  6089  08B7  28B6               	goto	u3227
  6090  08B8  0BF5               	decfsz	??_Lcd_Init+1,f
  6091  08B9  28B6               	goto	u3227
  6092                           
  6093                           ;LCD.c: 103:   Lcd_Cmd(0x030);
  6094  08BA  3030               	movlw	48
  6095  08BB  120A  158A  2003  120A  158A  	fcall	_Lcd_Cmd
  6096  08C0                     l2326:	
  6097                           
  6098                           ;LCD.c: 104:   _delay((unsigned long)((160)*(4000000/4000000.0)));
  6099  08C0  3035               	movlw	53
  6100  08C1  00F4               	movwf	??_Lcd_Init
  6101  08C2                     u3237:	
  6102  08C2  0BF4               	decfsz	??_Lcd_Init,f
  6103  08C3  28C2               	goto	u3237
  6104  08C4                     l2328:	
  6105                           
  6106                           ;LCD.c: 105:   Lcd_Cmd(0x030);
  6107  08C4  3030               	movlw	48
  6108  08C5  120A  158A  2003  120A  158A  	fcall	_Lcd_Cmd
  6109  08CA                     l2330:	
  6110                           
  6111                           ;LCD.c: 107:   Lcd_Cmd(0x38);
  6112  08CA  3038               	movlw	56
  6113  08CB  120A  158A  2003  120A  158A  	fcall	_Lcd_Cmd
  6114  08D0                     l2332:	
  6115                           
  6116                           ;LCD.c: 108:   Lcd_Cmd(0x10);
  6117  08D0  3010               	movlw	16
  6118  08D1  120A  158A  2003  120A  158A  	fcall	_Lcd_Cmd
  6119  08D6                     l2334:	
  6120                           
  6121                           ;LCD.c: 109:   Lcd_Cmd(0x01);
  6122  08D6  3001               	movlw	1
  6123  08D7  120A  158A  2003  120A  158A  	fcall	_Lcd_Cmd
  6124  08DC                     l2336:	
  6125                           
  6126                           ;LCD.c: 110:   Lcd_Cmd(0x06);
  6127  08DC  3006               	movlw	6
  6128  08DD  120A  158A  2003  120A  158A  	fcall	_Lcd_Cmd
  6129  08E2                     l2338:	
  6130                           
  6131                           ;LCD.c: 111:   Lcd_Cmd(0x0F);
  6132  08E2  300F               	movlw	15
  6133  08E3  120A  158A  2003  120A  158A  	fcall	_Lcd_Cmd
  6134  08E8                     l56:	
  6135  08E8  0008               	return
  6136  08E9                     __end_of_Lcd_Init:	
  6137                           
  6138                           	psect	text17
  6139  0803                     __ptext17:	
  6140 ;; *************** function _Lcd_Cmd *****************
  6141 ;; Defined at:
  6142 ;;		line 70 in file "LCD.c"
  6143 ;; Parameters:    Size  Location     Type
  6144 ;;  a               1    wreg     unsigned char 
  6145 ;; Auto vars:     Size  Location     Type
  6146 ;;  a               1    3[COMMON] unsigned char 
  6147 ;; Return value:  Size  Location     Type
  6148 ;;                  1    wreg      void 
  6149 ;; Registers used:
  6150 ;;		wreg, status,2, status,0, pclath, cstack
  6151 ;; Tracked objects:
  6152 ;;		On entry : 0/0
  6153 ;;		On exit  : 0/0
  6154 ;;		Unchanged: 0/0
  6155 ;; Data sizes:     COMMON   BANK0   BANK1   BANK3   BANK2
  6156 ;;      Params:         0       0       0       0       0
  6157 ;;      Locals:         1       0       0       0       0
  6158 ;;      Temps:          2       0       0       0       0
  6159 ;;      Totals:         3       0       0       0       0
  6160 ;;Total ram usage:        3 bytes
  6161 ;; Hardware stack levels used:    1
  6162 ;; Hardware stack levels required when called:    1
  6163 ;; This function calls:
  6164 ;;		_Lcd_Port
  6165 ;; This function is called by:
  6166 ;;		_Lcd_Set_Cursor
  6167 ;;		_Lcd_Init
  6168 ;;		_Lcd_Clear
  6169 ;;		_Lcd_Shift_Right
  6170 ;;		_Lcd_Shift_Left
  6171 ;; This function uses a non-reentrant model
  6172 ;;
  6173                           
  6174                           
  6175                           ;psect for function _Lcd_Cmd
  6176  0803                     _Lcd_Cmd:	
  6177                           
  6178                           ;incstack = 0
  6179                           ; Regs used in _Lcd_Cmd: [wreg+status,2+status,0+pclath+cstack]
  6180                           ;Lcd_Cmd@a stored from wreg
  6181  0803  00F3               	movwf	Lcd_Cmd@a
  6182  0804                     l2016:	
  6183                           
  6184                           ;LCD.c: 70: void Lcd_Cmd(char a);LCD.c: 71: {;LCD.c: 72:  RC1 = 0;
  6185  0804  1283               	bcf	3,5	;RP0=0, select bank0
  6186  0805  1303               	bcf	3,6	;RP1=0, select bank0
  6187  0806  1087               	bcf	7,1	;volatile
  6188  0807                     l2018:	
  6189                           
  6190                           ;LCD.c: 73:  Lcd_Port(a);
  6191  0807  0873               	movf	Lcd_Cmd@a,w
  6192  0808  120A  158A  2023  120A  158A  	fcall	_Lcd_Port
  6193  080D                     l2020:	
  6194                           
  6195                           ;LCD.c: 74:  RC0 = 1;
  6196  080D  1283               	bcf	3,5	;RP0=0, select bank0
  6197  080E  1303               	bcf	3,6	;RP1=0, select bank0
  6198  080F  1407               	bsf	7,0	;volatile
  6199  0810                     l2022:	
  6200                           
  6201                           ;LCD.c: 75:     _delay((unsigned long)((5)*(4000000/4000.0)));
  6202  0810  3007               	movlw	7
  6203  0811  00F2               	movwf	??_Lcd_Cmd+1
  6204  0812  307D               	movlw	125
  6205  0813  00F1               	movwf	??_Lcd_Cmd
  6206  0814                     u3247:	
  6207  0814  0BF1               	decfsz	??_Lcd_Cmd,f
  6208  0815  2814               	goto	u3247
  6209  0816  0BF2               	decfsz	??_Lcd_Cmd+1,f
  6210  0817  2814               	goto	u3247
  6211  0818                     l2024:	
  6212                           
  6213                           ;LCD.c: 76:     RC0 = 0;
  6214  0818  1283               	bcf	3,5	;RP0=0, select bank0
  6215  0819  1303               	bcf	3,6	;RP1=0, select bank0
  6216  081A  1007               	bcf	7,0	;volatile
  6217  081B                     l2026:	
  6218                           
  6219                           ;LCD.c: 77:     _delay((unsigned long)((1)*(4000000/4000.0)));
  6220  081B  30C7               	movlw	199
  6221  081C  00F1               	movwf	??_Lcd_Cmd
  6222  081D                     u3257:	
  6223  081D  281E               	nop2
  6224  081E  0BF1               	decfsz	??_Lcd_Cmd,f
  6225  081F  281D               	goto	u3257
  6226  0820  2821               	nop2
  6227  0821  2822               	nop2
  6228  0822                     l44:	
  6229  0822  0008               	return
  6230  0823                     __end_of_Lcd_Cmd:	
  6231                           
  6232                           	psect	text18
  6233  0823                     __ptext18:	
  6234 ;; *************** function _Lcd_Port *****************
  6235 ;; Defined at:
  6236 ;;		line 27 in file "LCD.c"
  6237 ;; Parameters:    Size  Location     Type
  6238 ;;  a               1    wreg     unsigned char 
  6239 ;; Auto vars:     Size  Location     Type
  6240 ;;  a               1    0[COMMON] unsigned char 
  6241 ;; Return value:  Size  Location     Type
  6242 ;;                  1    wreg      void 
  6243 ;; Registers used:
  6244 ;;		wreg
  6245 ;; Tracked objects:
  6246 ;;		On entry : 0/0
  6247 ;;		On exit  : 0/0
  6248 ;;		Unchanged: 0/0
  6249 ;; Data sizes:     COMMON   BANK0   BANK1   BANK3   BANK2
  6250 ;;      Params:         0       0       0       0       0
  6251 ;;      Locals:         1       0       0       0       0
  6252 ;;      Temps:          0       0       0       0       0
  6253 ;;      Totals:         1       0       0       0       0
  6254 ;;Total ram usage:        1 bytes
  6255 ;; Hardware stack levels used:    1
  6256 ;; This function calls:
  6257 ;;		Nothing
  6258 ;; This function is called by:
  6259 ;;		_Lcd_Cmd
  6260 ;;		_Lcd_Write_Char
  6261 ;; This function uses a non-reentrant model
  6262 ;;
  6263                           
  6264                           
  6265                           ;psect for function _Lcd_Port
  6266  0823                     _Lcd_Port:	
  6267                           
  6268                           ;incstack = 0
  6269                           ; Regs used in _Lcd_Port: [wreg]
  6270                           ;Lcd_Port@a stored from wreg
  6271  0823  00F0               	movwf	Lcd_Port@a
  6272  0824                     l1790:	
  6273                           
  6274                           ;LCD.c: 27: void Lcd_Port(char a);LCD.c: 28: {;LCD.c: 29:     if(a & 1)
  6275  0824  1C70               	btfss	Lcd_Port@a,0
  6276  0825  2827               	goto	u1591
  6277  0826  2828               	goto	u1590
  6278  0827                     u1591:	
  6279  0827  282C               	goto	l25
  6280  0828                     u1590:	
  6281  0828                     l1792:	
  6282                           
  6283                           ;LCD.c: 30:   RA0 = 1;
  6284  0828  1283               	bcf	3,5	;RP0=0, select bank0
  6285  0829  1303               	bcf	3,6	;RP1=0, select bank0
  6286  082A  1405               	bsf	5,0	;volatile
  6287  082B  282F               	goto	l26
  6288  082C                     l25:	
  6289                           ;LCD.c: 31:  else
  6290                           
  6291                           
  6292                           ;LCD.c: 32:   RA0 = 0;
  6293  082C  1283               	bcf	3,5	;RP0=0, select bank0
  6294  082D  1303               	bcf	3,6	;RP1=0, select bank0
  6295  082E  1005               	bcf	5,0	;volatile
  6296  082F                     l26:	
  6297                           
  6298                           ;LCD.c: 34:  if(a & 2)
  6299  082F  1CF0               	btfss	Lcd_Port@a,1
  6300  0830  2832               	goto	u1601
  6301  0831  2833               	goto	u1600
  6302  0832                     u1601:	
  6303  0832  2835               	goto	l27
  6304  0833                     u1600:	
  6305  0833                     l1794:	
  6306                           
  6307                           ;LCD.c: 35:   RA1 = 1;
  6308  0833  1485               	bsf	5,1	;volatile
  6309  0834  2836               	goto	l28
  6310  0835                     l27:	
  6311                           ;LCD.c: 36:  else
  6312                           
  6313                           
  6314                           ;LCD.c: 37:   RA1 = 0;
  6315  0835  1085               	bcf	5,1	;volatile
  6316  0836                     l28:	
  6317                           
  6318                           ;LCD.c: 39:  if(a & 4)
  6319  0836  1D70               	btfss	Lcd_Port@a,2
  6320  0837  2839               	goto	u1611
  6321  0838  283A               	goto	u1610
  6322  0839                     u1611:	
  6323  0839  283C               	goto	l29
  6324  083A                     u1610:	
  6325  083A                     l1796:	
  6326                           
  6327                           ;LCD.c: 40:   RA2 = 1;
  6328  083A  1505               	bsf	5,2	;volatile
  6329  083B  283D               	goto	l30
  6330  083C                     l29:	
  6331                           ;LCD.c: 41:  else
  6332                           
  6333                           
  6334                           ;LCD.c: 42:   RA2 = 0;
  6335  083C  1105               	bcf	5,2	;volatile
  6336  083D                     l30:	
  6337                           
  6338                           ;LCD.c: 44:  if(a & 8)
  6339  083D  1DF0               	btfss	Lcd_Port@a,3
  6340  083E  2840               	goto	u1621
  6341  083F  2841               	goto	u1620
  6342  0840                     u1621:	
  6343  0840  2843               	goto	l31
  6344  0841                     u1620:	
  6345  0841                     l1798:	
  6346                           
  6347                           ;LCD.c: 45:   RA3 = 1;
  6348  0841  1585               	bsf	5,3	;volatile
  6349  0842  2844               	goto	l32
  6350  0843                     l31:	
  6351                           ;LCD.c: 46:  else
  6352                           
  6353                           
  6354                           ;LCD.c: 47:   RA3 = 0;
  6355  0843  1185               	bcf	5,3	;volatile
  6356  0844                     l32:	
  6357                           
  6358                           ;LCD.c: 49:  if(a & 16)
  6359  0844  1E70               	btfss	Lcd_Port@a,4
  6360  0845  2847               	goto	u1631
  6361  0846  2848               	goto	u1630
  6362  0847                     u1631:	
  6363  0847  284A               	goto	l33
  6364  0848                     u1630:	
  6365  0848                     l1800:	
  6366                           
  6367                           ;LCD.c: 50:   RA4 = 1;
  6368  0848  1605               	bsf	5,4	;volatile
  6369  0849  284B               	goto	l34
  6370  084A                     l33:	
  6371                           ;LCD.c: 51:  else
  6372                           
  6373                           
  6374                           ;LCD.c: 52:   RA4 = 0;
  6375  084A  1205               	bcf	5,4	;volatile
  6376  084B                     l34:	
  6377                           
  6378                           ;LCD.c: 54:  if(a & 32)
  6379  084B  1EF0               	btfss	Lcd_Port@a,5
  6380  084C  284E               	goto	u1641
  6381  084D  284F               	goto	u1640
  6382  084E                     u1641:	
  6383  084E  2851               	goto	l35
  6384  084F                     u1640:	
  6385  084F                     l1802:	
  6386                           
  6387                           ;LCD.c: 55:   RA5 = 1;
  6388  084F  1685               	bsf	5,5	;volatile
  6389  0850  2852               	goto	l36
  6390  0851                     l35:	
  6391                           ;LCD.c: 56:  else
  6392                           
  6393                           
  6394                           ;LCD.c: 57:   RA5 = 0;
  6395  0851  1285               	bcf	5,5	;volatile
  6396  0852                     l36:	
  6397                           
  6398                           ;LCD.c: 59:  if(a & 64)
  6399  0852  1F70               	btfss	Lcd_Port@a,6
  6400  0853  2855               	goto	u1651
  6401  0854  2856               	goto	u1650
  6402  0855                     u1651:	
  6403  0855  2858               	goto	l37
  6404  0856                     u1650:	
  6405  0856                     l1804:	
  6406                           
  6407                           ;LCD.c: 60:   RA6 = 1;
  6408  0856  1705               	bsf	5,6	;volatile
  6409  0857  2859               	goto	l38
  6410  0858                     l37:	
  6411                           ;LCD.c: 61:  else
  6412                           
  6413                           
  6414                           ;LCD.c: 62:   RA6 = 0;
  6415  0858  1305               	bcf	5,6	;volatile
  6416  0859                     l38:	
  6417                           
  6418                           ;LCD.c: 64:  if(a & 128)
  6419  0859  1FF0               	btfss	Lcd_Port@a,7
  6420  085A  285C               	goto	u1661
  6421  085B  285D               	goto	u1660
  6422  085C                     u1661:	
  6423  085C  285F               	goto	l39
  6424  085D                     u1660:	
  6425  085D                     l1806:	
  6426                           
  6427                           ;LCD.c: 65:   RA7 = 1;
  6428  085D  1785               	bsf	5,7	;volatile
  6429  085E  2860               	goto	l41
  6430  085F                     l39:	
  6431                           ;LCD.c: 66:  else
  6432                           
  6433                           
  6434                           ;LCD.c: 67:   RA7 = 0;
  6435  085F  1385               	bcf	5,7	;volatile
  6436  0860                     l41:	
  6437  0860  0008               	return
  6438  0861                     __end_of_Lcd_Port:	
  6439                           
  6440                           	psect	text19
  6441  0CAB                     __ptext19:	
  6442 ;; *************** function _ADC_CONFIG *****************
  6443 ;; Defined at:
  6444 ;;		line 12 in file "ADC.c"
  6445 ;; Parameters:    Size  Location     Type
  6446 ;;  canal           1    wreg     unsigned char 
  6447 ;;  justif          1    0[COMMON] unsigned char 
  6448 ;; Auto vars:     Size  Location     Type
  6449 ;;  canal           1    3[COMMON] unsigned char 
  6450 ;; Return value:  Size  Location     Type
  6451 ;;                  1    wreg      void 
  6452 ;; Registers used:
  6453 ;;		wreg, fsr0l, fsr0h, status,2, status,0
  6454 ;; Tracked objects:
  6455 ;;		On entry : 0/0
  6456 ;;		On exit  : 0/0
  6457 ;;		Unchanged: 0/0
  6458 ;; Data sizes:     COMMON   BANK0   BANK1   BANK3   BANK2
  6459 ;;      Params:         1       0       0       0       0
  6460 ;;      Locals:         1       0       0       0       0
  6461 ;;      Temps:          2       0       0       0       0
  6462 ;;      Totals:         4       0       0       0       0
  6463 ;;Total ram usage:        4 bytes
  6464 ;; Hardware stack levels used:    1
  6465 ;; This function calls:
  6466 ;;		Nothing
  6467 ;; This function is called by:
  6468 ;;		_main
  6469 ;; This function uses a non-reentrant model
  6470 ;;
  6471                           
  6472                           
  6473                           ;psect for function _ADC_CONFIG
  6474  0CAB                     _ADC_CONFIG:	
  6475                           
  6476                           ;incstack = 0
  6477                           ; Regs used in _ADC_CONFIG: [wreg-fsr0h+status,2+status,0]
  6478                           ;ADC_CONFIG@canal stored from wreg
  6479  0CAB  00F3               	movwf	ADC_CONFIG@canal
  6480  0CAC                     l2348:	
  6481                           
  6482                           ;ADC.c: 13:     ADCON0bits.ADON = 1;
  6483  0CAC  1283               	bcf	3,5	;RP0=0, select bank0
  6484  0CAD  1303               	bcf	3,6	;RP1=0, select bank0
  6485  0CAE  141F               	bsf	31,0	;volatile
  6486                           
  6487                           ;ADC.c: 14:     ADCON0bits.GO = 1;
  6488  0CAF  149F               	bsf	31,1	;volatile
  6489  0CB0                     l2350:	
  6490                           
  6491                           ;ADC.c: 15:     ADCON0bits.ADCS = 1;
  6492  0CB0  081F               	movf	31,w	;volatile
  6493  0CB1  393F               	andlw	-193
  6494  0CB2  3840               	iorlw	64
  6495  0CB3  009F               	movwf	31	;volatile
  6496  0CB4                     l2352:	
  6497                           
  6498                           ;ADC.c: 16:     ADCON1bits.VCFG0 = 0;
  6499  0CB4  1683               	bsf	3,5	;RP0=1, select bank1
  6500  0CB5  1303               	bcf	3,6	;RP1=0, select bank1
  6501  0CB6  121F               	bcf	31,4	;volatile
  6502  0CB7                     l2354:	
  6503                           
  6504                           ;ADC.c: 17:     ADCON1bits.VCFG1 = 0;
  6505  0CB7  129F               	bcf	31,5	;volatile
  6506                           
  6507                           ;ADC.c: 19:     switch(canal){
  6508  0CB8  2D6D               	goto	l2414
  6509  0CB9                     l187:	
  6510                           ;ADC.c: 20:         case 0:
  6511                           
  6512                           
  6513                           ;ADC.c: 21:             ANSELbits.ANS0 = 1;
  6514  0CB9  1683               	bsf	3,5	;RP0=1, select bank3
  6515  0CBA  1703               	bsf	3,6	;RP1=1, select bank3
  6516  0CBB  1408               	bsf	8,0	;volatile
  6517  0CBC                     l2356:	
  6518                           
  6519                           ;ADC.c: 22:             ADCON0bits.CHS = 0;
  6520  0CBC  30C3               	movlw	-61
  6521  0CBD  1283               	bcf	3,5	;RP0=0, select bank0
  6522  0CBE  1303               	bcf	3,6	;RP1=0, select bank0
  6523  0CBF  059F               	andwf	31,f	;volatile
  6524  0CC0                     l2358:	
  6525                           
  6526                           ;ADC.c: 23:             TRISAbits.TRISA0 = 1;
  6527  0CC0  1683               	bsf	3,5	;RP0=1, select bank1
  6528  0CC1  1303               	bcf	3,6	;RP1=0, select bank1
  6529  0CC2  1405               	bsf	5,0	;volatile
  6530                           
  6531                           ;ADC.c: 24:             break;
  6532  0CC3  2DA5               	goto	l2418
  6533  0CC4                     l189:	
  6534                           ;ADC.c: 26:         case 1:
  6535                           
  6536                           
  6537                           ;ADC.c: 27:             ANSELbits.ANS1 = 1;
  6538  0CC4  1683               	bsf	3,5	;RP0=1, select bank3
  6539  0CC5  1703               	bsf	3,6	;RP1=1, select bank3
  6540  0CC6  1488               	bsf	8,1	;volatile
  6541  0CC7                     l2360:	
  6542                           
  6543                           ;ADC.c: 28:             ADCON0bits.CHS = 1;
  6544  0CC7  1283               	bcf	3,5	;RP0=0, select bank0
  6545  0CC8  1303               	bcf	3,6	;RP1=0, select bank0
  6546  0CC9  081F               	movf	31,w	;volatile
  6547  0CCA  39C3               	andlw	-61
  6548  0CCB  3804               	iorlw	4
  6549  0CCC  009F               	movwf	31	;volatile
  6550  0CCD                     l2362:	
  6551                           
  6552                           ;ADC.c: 29:             TRISAbits.TRISA1 = 1;
  6553  0CCD  1683               	bsf	3,5	;RP0=1, select bank1
  6554  0CCE  1303               	bcf	3,6	;RP1=0, select bank1
  6555  0CCF  1485               	bsf	5,1	;volatile
  6556                           
  6557                           ;ADC.c: 30:             break;
  6558  0CD0  2DA5               	goto	l2418
  6559  0CD1                     l190:	
  6560                           ;ADC.c: 32:         case 2:
  6561                           
  6562                           
  6563                           ;ADC.c: 33:             ANSELbits.ANS2 = 1;
  6564  0CD1  1683               	bsf	3,5	;RP0=1, select bank3
  6565  0CD2  1703               	bsf	3,6	;RP1=1, select bank3
  6566  0CD3  1508               	bsf	8,2	;volatile
  6567  0CD4                     l2364:	
  6568                           
  6569                           ;ADC.c: 34:             ADCON0bits.CHS = 2;
  6570  0CD4  1283               	bcf	3,5	;RP0=0, select bank0
  6571  0CD5  1303               	bcf	3,6	;RP1=0, select bank0
  6572  0CD6  081F               	movf	31,w	;volatile
  6573  0CD7  39C3               	andlw	-61
  6574  0CD8  3808               	iorlw	8
  6575  0CD9  009F               	movwf	31	;volatile
  6576  0CDA                     l2366:	
  6577                           
  6578                           ;ADC.c: 35:             TRISAbits.TRISA2 = 1;
  6579  0CDA  1683               	bsf	3,5	;RP0=1, select bank1
  6580  0CDB  1303               	bcf	3,6	;RP1=0, select bank1
  6581  0CDC  1505               	bsf	5,2	;volatile
  6582                           
  6583                           ;ADC.c: 36:             break;
  6584  0CDD  2DA5               	goto	l2418
  6585  0CDE                     l191:	
  6586                           ;ADC.c: 38:         case 3:
  6587                           
  6588                           
  6589                           ;ADC.c: 39:             ANSELbits.ANS3 = 1;
  6590  0CDE  1683               	bsf	3,5	;RP0=1, select bank3
  6591  0CDF  1703               	bsf	3,6	;RP1=1, select bank3
  6592  0CE0  1588               	bsf	8,3	;volatile
  6593  0CE1                     l2368:	
  6594                           
  6595                           ;ADC.c: 40:             ADCON0bits.CHS = 3;
  6596  0CE1  1283               	bcf	3,5	;RP0=0, select bank0
  6597  0CE2  1303               	bcf	3,6	;RP1=0, select bank0
  6598  0CE3  081F               	movf	31,w	;volatile
  6599  0CE4  39C3               	andlw	-61
  6600  0CE5  380C               	iorlw	12
  6601  0CE6  009F               	movwf	31	;volatile
  6602  0CE7                     l2370:	
  6603                           
  6604                           ;ADC.c: 41:             TRISAbits.TRISA3 = 1;
  6605  0CE7  1683               	bsf	3,5	;RP0=1, select bank1
  6606  0CE8  1303               	bcf	3,6	;RP1=0, select bank1
  6607  0CE9  1585               	bsf	5,3	;volatile
  6608                           
  6609                           ;ADC.c: 42:             break;
  6610  0CEA  2DA5               	goto	l2418
  6611  0CEB                     l192:	
  6612                           ;ADC.c: 44:         case 4:
  6613                           
  6614                           
  6615                           ;ADC.c: 45:             ANSELbits.ANS4 = 1;
  6616  0CEB  1683               	bsf	3,5	;RP0=1, select bank3
  6617  0CEC  1703               	bsf	3,6	;RP1=1, select bank3
  6618  0CED  1608               	bsf	8,4	;volatile
  6619  0CEE                     l2372:	
  6620                           
  6621                           ;ADC.c: 46:             ADCON0bits.CHS = 4;
  6622  0CEE  1283               	bcf	3,5	;RP0=0, select bank0
  6623  0CEF  1303               	bcf	3,6	;RP1=0, select bank0
  6624  0CF0  081F               	movf	31,w	;volatile
  6625  0CF1  39C3               	andlw	-61
  6626  0CF2  3810               	iorlw	16
  6627  0CF3  009F               	movwf	31	;volatile
  6628  0CF4                     l2374:	
  6629                           
  6630                           ;ADC.c: 47:             TRISAbits.TRISA5 = 1;
  6631  0CF4  1683               	bsf	3,5	;RP0=1, select bank1
  6632  0CF5  1303               	bcf	3,6	;RP1=0, select bank1
  6633  0CF6  1685               	bsf	5,5	;volatile
  6634                           
  6635                           ;ADC.c: 48:             break;
  6636  0CF7  2DA5               	goto	l2418
  6637  0CF8                     l193:	
  6638                           ;ADC.c: 50:         case 5:
  6639                           
  6640                           
  6641                           ;ADC.c: 51:             ANSELbits.ANS5 = 1;
  6642  0CF8  1683               	bsf	3,5	;RP0=1, select bank3
  6643  0CF9  1703               	bsf	3,6	;RP1=1, select bank3
  6644  0CFA  1688               	bsf	8,5	;volatile
  6645  0CFB                     l2376:	
  6646                           
  6647                           ;ADC.c: 52:             ADCON0bits.CHS = 5;
  6648  0CFB  1283               	bcf	3,5	;RP0=0, select bank0
  6649  0CFC  1303               	bcf	3,6	;RP1=0, select bank0
  6650  0CFD  081F               	movf	31,w	;volatile
  6651  0CFE  39C3               	andlw	-61
  6652  0CFF  3814               	iorlw	20
  6653  0D00  009F               	movwf	31	;volatile
  6654  0D01                     l2378:	
  6655                           
  6656                           ;ADC.c: 53:             TRISEbits.TRISE0 = 1;
  6657  0D01  1683               	bsf	3,5	;RP0=1, select bank1
  6658  0D02  1303               	bcf	3,6	;RP1=0, select bank1
  6659  0D03  1409               	bsf	9,0	;volatile
  6660                           
  6661                           ;ADC.c: 54:             break;
  6662  0D04  2DA5               	goto	l2418
  6663  0D05                     l194:	
  6664                           ;ADC.c: 56:         case 6:
  6665                           
  6666                           
  6667                           ;ADC.c: 57:             ANSELbits.ANS6 = 1;
  6668  0D05  1683               	bsf	3,5	;RP0=1, select bank3
  6669  0D06  1703               	bsf	3,6	;RP1=1, select bank3
  6670  0D07  1708               	bsf	8,6	;volatile
  6671  0D08                     l2380:	
  6672                           
  6673                           ;ADC.c: 58:             ADCON0bits.CHS = 6;
  6674  0D08  1283               	bcf	3,5	;RP0=0, select bank0
  6675  0D09  1303               	bcf	3,6	;RP1=0, select bank0
  6676  0D0A  081F               	movf	31,w	;volatile
  6677  0D0B  39C3               	andlw	-61
  6678  0D0C  3818               	iorlw	24
  6679  0D0D  009F               	movwf	31	;volatile
  6680  0D0E                     l2382:	
  6681                           
  6682                           ;ADC.c: 59:             TRISEbits.TRISE1 = 1;
  6683  0D0E  1683               	bsf	3,5	;RP0=1, select bank1
  6684  0D0F  1303               	bcf	3,6	;RP1=0, select bank1
  6685  0D10  1489               	bsf	9,1	;volatile
  6686                           
  6687                           ;ADC.c: 60:             break;
  6688  0D11  2DA5               	goto	l2418
  6689  0D12                     l195:	
  6690                           ;ADC.c: 62:         case 7:
  6691                           
  6692                           
  6693                           ;ADC.c: 63:             ANSELbits.ANS7 = 1;
  6694  0D12  1683               	bsf	3,5	;RP0=1, select bank3
  6695  0D13  1703               	bsf	3,6	;RP1=1, select bank3
  6696  0D14  1788               	bsf	8,7	;volatile
  6697  0D15                     l2384:	
  6698                           
  6699                           ;ADC.c: 64:             ADCON0bits.CHS = 7;
  6700  0D15  1283               	bcf	3,5	;RP0=0, select bank0
  6701  0D16  1303               	bcf	3,6	;RP1=0, select bank0
  6702  0D17  081F               	movf	31,w	;volatile
  6703  0D18  39C3               	andlw	-61
  6704  0D19  381C               	iorlw	28
  6705  0D1A  009F               	movwf	31	;volatile
  6706  0D1B                     l2386:	
  6707                           
  6708                           ;ADC.c: 65:             TRISEbits.TRISE2 = 1;
  6709  0D1B  1683               	bsf	3,5	;RP0=1, select bank1
  6710  0D1C  1303               	bcf	3,6	;RP1=0, select bank1
  6711  0D1D  1509               	bsf	9,2	;volatile
  6712                           
  6713                           ;ADC.c: 66:             break;
  6714  0D1E  2DA5               	goto	l2418
  6715  0D1F                     l196:	
  6716                           ;ADC.c: 68:         case 8:
  6717                           
  6718                           
  6719                           ;ADC.c: 69:             ANSELHbits.ANS8 = 1;
  6720  0D1F  1683               	bsf	3,5	;RP0=1, select bank3
  6721  0D20  1703               	bsf	3,6	;RP1=1, select bank3
  6722  0D21  1409               	bsf	9,0	;volatile
  6723  0D22                     l2388:	
  6724                           
  6725                           ;ADC.c: 70:             ADCON0bits.CHS = 8;
  6726  0D22  1283               	bcf	3,5	;RP0=0, select bank0
  6727  0D23  1303               	bcf	3,6	;RP1=0, select bank0
  6728  0D24  081F               	movf	31,w	;volatile
  6729  0D25  39C3               	andlw	-61
  6730  0D26  3820               	iorlw	32
  6731  0D27  009F               	movwf	31	;volatile
  6732  0D28                     l2390:	
  6733                           
  6734                           ;ADC.c: 71:             TRISBbits.TRISB2 = 1;
  6735  0D28  1683               	bsf	3,5	;RP0=1, select bank1
  6736  0D29  1303               	bcf	3,6	;RP1=0, select bank1
  6737  0D2A  1506               	bsf	6,2	;volatile
  6738                           
  6739                           ;ADC.c: 72:             break;
  6740  0D2B  2DA5               	goto	l2418
  6741  0D2C                     l197:	
  6742                           ;ADC.c: 74:         case 9:
  6743                           
  6744                           
  6745                           ;ADC.c: 75:             ANSELHbits.ANS9 = 1;
  6746  0D2C  1683               	bsf	3,5	;RP0=1, select bank3
  6747  0D2D  1703               	bsf	3,6	;RP1=1, select bank3
  6748  0D2E  1489               	bsf	9,1	;volatile
  6749  0D2F                     l2392:	
  6750                           
  6751                           ;ADC.c: 76:             ADCON0bits.CHS = 9;
  6752  0D2F  1283               	bcf	3,5	;RP0=0, select bank0
  6753  0D30  1303               	bcf	3,6	;RP1=0, select bank0
  6754  0D31  081F               	movf	31,w	;volatile
  6755  0D32  39C3               	andlw	-61
  6756  0D33  3824               	iorlw	36
  6757  0D34  009F               	movwf	31	;volatile
  6758  0D35                     l2394:	
  6759                           
  6760                           ;ADC.c: 77:             TRISBbits.TRISB3 = 1;
  6761  0D35  1683               	bsf	3,5	;RP0=1, select bank1
  6762  0D36  1303               	bcf	3,6	;RP1=0, select bank1
  6763  0D37  1586               	bsf	6,3	;volatile
  6764                           
  6765                           ;ADC.c: 78:             break;
  6766  0D38  2DA5               	goto	l2418
  6767  0D39                     l198:	
  6768                           ;ADC.c: 80:         case 10:
  6769                           
  6770                           
  6771                           ;ADC.c: 81:             ANSELHbits.ANS10 = 1;
  6772  0D39  1683               	bsf	3,5	;RP0=1, select bank3
  6773  0D3A  1703               	bsf	3,6	;RP1=1, select bank3
  6774  0D3B  1509               	bsf	9,2	;volatile
  6775  0D3C                     l2396:	
  6776                           
  6777                           ;ADC.c: 82:             ADCON0bits.CHS = 10;
  6778  0D3C  1283               	bcf	3,5	;RP0=0, select bank0
  6779  0D3D  1303               	bcf	3,6	;RP1=0, select bank0
  6780  0D3E  081F               	movf	31,w	;volatile
  6781  0D3F  39C3               	andlw	-61
  6782  0D40  3828               	iorlw	40
  6783  0D41  009F               	movwf	31	;volatile
  6784  0D42                     l2398:	
  6785                           
  6786                           ;ADC.c: 83:             TRISBbits.TRISB1 = 1;
  6787  0D42  1683               	bsf	3,5	;RP0=1, select bank1
  6788  0D43  1303               	bcf	3,6	;RP1=0, select bank1
  6789  0D44  1486               	bsf	6,1	;volatile
  6790                           
  6791                           ;ADC.c: 84:             break;
  6792  0D45  2DA5               	goto	l2418
  6793  0D46                     l199:	
  6794                           ;ADC.c: 86:         case 11:
  6795                           
  6796                           
  6797                           ;ADC.c: 87:             ANSELHbits.ANS11 = 1;
  6798  0D46  1683               	bsf	3,5	;RP0=1, select bank3
  6799  0D47  1703               	bsf	3,6	;RP1=1, select bank3
  6800  0D48  1589               	bsf	9,3	;volatile
  6801  0D49                     l2400:	
  6802                           
  6803                           ;ADC.c: 88:             ADCON0bits.CHS = 11;
  6804  0D49  1283               	bcf	3,5	;RP0=0, select bank0
  6805  0D4A  1303               	bcf	3,6	;RP1=0, select bank0
  6806  0D4B  081F               	movf	31,w	;volatile
  6807  0D4C  39C3               	andlw	-61
  6808  0D4D  382C               	iorlw	44
  6809  0D4E  009F               	movwf	31	;volatile
  6810  0D4F                     l2402:	
  6811                           
  6812                           ;ADC.c: 89:             TRISBbits.TRISB4 = 1;
  6813  0D4F  1683               	bsf	3,5	;RP0=1, select bank1
  6814  0D50  1303               	bcf	3,6	;RP1=0, select bank1
  6815  0D51  1606               	bsf	6,4	;volatile
  6816                           
  6817                           ;ADC.c: 90:             break;
  6818  0D52  2DA5               	goto	l2418
  6819  0D53                     l200:	
  6820                           ;ADC.c: 92:         case 12:
  6821                           
  6822                           
  6823                           ;ADC.c: 93:             ANSELHbits.ANS12 = 1;
  6824  0D53  1683               	bsf	3,5	;RP0=1, select bank3
  6825  0D54  1703               	bsf	3,6	;RP1=1, select bank3
  6826  0D55  1609               	bsf	9,4	;volatile
  6827  0D56                     l2404:	
  6828                           
  6829                           ;ADC.c: 94:             ADCON0bits.CHS = 12;
  6830  0D56  1283               	bcf	3,5	;RP0=0, select bank0
  6831  0D57  1303               	bcf	3,6	;RP1=0, select bank0
  6832  0D58  081F               	movf	31,w	;volatile
  6833  0D59  39C3               	andlw	-61
  6834  0D5A  3830               	iorlw	48
  6835  0D5B  009F               	movwf	31	;volatile
  6836  0D5C                     l2406:	
  6837                           
  6838                           ;ADC.c: 95:             TRISBbits.TRISB0 = 1;
  6839  0D5C  1683               	bsf	3,5	;RP0=1, select bank1
  6840  0D5D  1303               	bcf	3,6	;RP1=0, select bank1
  6841  0D5E  1406               	bsf	6,0	;volatile
  6842                           
  6843                           ;ADC.c: 96:             break;
  6844  0D5F  2DA5               	goto	l2418
  6845  0D60                     l201:	
  6846                           ;ADC.c: 98:         case 13:
  6847                           
  6848                           
  6849                           ;ADC.c: 99:             ANSELHbits.ANS13 = 1;
  6850  0D60  1683               	bsf	3,5	;RP0=1, select bank3
  6851  0D61  1703               	bsf	3,6	;RP1=1, select bank3
  6852  0D62  1689               	bsf	9,5	;volatile
  6853  0D63                     l2408:	
  6854                           
  6855                           ;ADC.c: 100:             ADCON0bits.CHS = 13;
  6856  0D63  1283               	bcf	3,5	;RP0=0, select bank0
  6857  0D64  1303               	bcf	3,6	;RP1=0, select bank0
  6858  0D65  081F               	movf	31,w	;volatile
  6859  0D66  39C3               	andlw	-61
  6860  0D67  3834               	iorlw	52
  6861  0D68  009F               	movwf	31	;volatile
  6862  0D69                     l2410:	
  6863                           
  6864                           ;ADC.c: 101:             TRISBbits.TRISB5 = 1;
  6865  0D69  1683               	bsf	3,5	;RP0=1, select bank1
  6866  0D6A  1303               	bcf	3,6	;RP1=0, select bank1
  6867  0D6B  1686               	bsf	6,5	;volatile
  6868                           
  6869                           ;ADC.c: 102:             break;
  6870  0D6C  2DA5               	goto	l2418
  6871  0D6D                     l2414:	
  6872  0D6D  0873               	movf	ADC_CONFIG@canal,w
  6873  0D6E  00F1               	movwf	??_ADC_CONFIG
  6874  0D6F  01F2               	clrf	??_ADC_CONFIG+1
  6875                           
  6876                           ; Switch on 2 bytes has been partitioned into a top level switch of size 1, and 1 sub-sw
      +                          itches
  6877                           ; Switch size 1, requested type "simple"
  6878                           ; Number of cases is 1, Range of values is 0 to 0
  6879                           ; switch strategies available:
  6880                           ; Name         Instructions Cycles
  6881                           ; simple_byte            4     3 (average)
  6882                           ; direct_byte           11     8 (fixed)
  6883                           ; jumptable            260     6 (fixed)
  6884                           ;	Chosen strategy is simple_byte
  6885  0D70  0872               	movf	??_ADC_CONFIG+1,w
  6886  0D71  3A00               	xorlw	0	; case 0
  6887  0D72  1903               	skipnz
  6888  0D73  2D75               	goto	l2770
  6889  0D74  2DA5               	goto	l2418
  6890  0D75                     l2770:	
  6891                           
  6892                           ; Switch size 1, requested type "simple"
  6893                           ; Number of cases is 14, Range of values is 0 to 13
  6894                           ; switch strategies available:
  6895                           ; Name         Instructions Cycles
  6896                           ; simple_byte           43    22 (average)
  6897                           ; direct_byte           50     8 (fixed)
  6898                           ; jumptable            260     6 (fixed)
  6899                           ;	Chosen strategy is simple_byte
  6900  0D75  0871               	movf	??_ADC_CONFIG,w
  6901  0D76  3A00               	xorlw	0	; case 0
  6902  0D77  1903               	skipnz
  6903  0D78  2CB9               	goto	l187
  6904  0D79  3A01               	xorlw	1	; case 1
  6905  0D7A  1903               	skipnz
  6906  0D7B  2CC4               	goto	l189
  6907  0D7C  3A03               	xorlw	3	; case 2
  6908  0D7D  1903               	skipnz
  6909  0D7E  2CD1               	goto	l190
  6910  0D7F  3A01               	xorlw	1	; case 3
  6911  0D80  1903               	skipnz
  6912  0D81  2CDE               	goto	l191
  6913  0D82  3A07               	xorlw	7	; case 4
  6914  0D83  1903               	skipnz
  6915  0D84  2CEB               	goto	l192
  6916  0D85  3A01               	xorlw	1	; case 5
  6917  0D86  1903               	skipnz
  6918  0D87  2CF8               	goto	l193
  6919  0D88  3A03               	xorlw	3	; case 6
  6920  0D89  1903               	skipnz
  6921  0D8A  2D05               	goto	l194
  6922  0D8B  3A01               	xorlw	1	; case 7
  6923  0D8C  1903               	skipnz
  6924  0D8D  2D12               	goto	l195
  6925  0D8E  3A0F               	xorlw	15	; case 8
  6926  0D8F  1903               	skipnz
  6927  0D90  2D1F               	goto	l196
  6928  0D91  3A01               	xorlw	1	; case 9
  6929  0D92  1903               	skipnz
  6930  0D93  2D2C               	goto	l197
  6931  0D94  3A03               	xorlw	3	; case 10
  6932  0D95  1903               	skipnz
  6933  0D96  2D39               	goto	l198
  6934  0D97  3A01               	xorlw	1	; case 11
  6935  0D98  1903               	skipnz
  6936  0D99  2D46               	goto	l199
  6937  0D9A  3A07               	xorlw	7	; case 12
  6938  0D9B  1903               	skipnz
  6939  0D9C  2D53               	goto	l200
  6940  0D9D  3A01               	xorlw	1	; case 13
  6941  0D9E  1903               	skipnz
  6942  0D9F  2D60               	goto	l201
  6943  0DA0  2DA5               	goto	l2418
  6944  0DA1                     l203:	
  6945                           ;ADC.c: 105:         case 0:
  6946                           
  6947                           
  6948                           ;ADC.c: 106:             ADCON1bits.ADFM = 0;
  6949  0DA1  139F               	bcf	31,7	;volatile
  6950                           
  6951                           ;ADC.c: 107:             break;
  6952  0DA2  2DB5               	goto	l206
  6953  0DA3                     l205:	
  6954                           ;ADC.c: 108:         case 1:
  6955                           
  6956                           
  6957                           ;ADC.c: 109:             ADCON1bits.ADFM = 1;
  6958  0DA3  179F               	bsf	31,7	;volatile
  6959                           
  6960                           ;ADC.c: 110:             break;
  6961  0DA4  2DB5               	goto	l206
  6962  0DA5                     l2418:	
  6963  0DA5  0870               	movf	ADC_CONFIG@justif,w
  6964  0DA6  00F1               	movwf	??_ADC_CONFIG
  6965  0DA7  01F2               	clrf	??_ADC_CONFIG+1
  6966                           
  6967                           ; Switch on 2 bytes has been partitioned into a top level switch of size 1, and 1 sub-sw
      +                          itches
  6968                           ; Switch size 1, requested type "simple"
  6969                           ; Number of cases is 1, Range of values is 0 to 0
  6970                           ; switch strategies available:
  6971                           ; Name         Instructions Cycles
  6972                           ; simple_byte            4     3 (average)
  6973                           ; direct_byte           11     8 (fixed)
  6974                           ; jumptable            260     6 (fixed)
  6975                           ;	Chosen strategy is simple_byte
  6976  0DA8  0872               	movf	??_ADC_CONFIG+1,w
  6977  0DA9  3A00               	xorlw	0	; case 0
  6978  0DAA  1903               	skipnz
  6979  0DAB  2DAD               	goto	l2772
  6980  0DAC  2DB5               	goto	l206
  6981  0DAD                     l2772:	
  6982                           
  6983                           ; Switch size 1, requested type "simple"
  6984                           ; Number of cases is 2, Range of values is 0 to 1
  6985                           ; switch strategies available:
  6986                           ; Name         Instructions Cycles
  6987                           ; simple_byte            7     4 (average)
  6988                           ; direct_byte           14     8 (fixed)
  6989                           ; jumptable            260     6 (fixed)
  6990                           ;	Chosen strategy is simple_byte
  6991  0DAD  0871               	movf	??_ADC_CONFIG,w
  6992  0DAE  3A00               	xorlw	0	; case 0
  6993  0DAF  1903               	skipnz
  6994  0DB0  2DA1               	goto	l203
  6995  0DB1  3A01               	xorlw	1	; case 1
  6996  0DB2  1903               	skipnz
  6997  0DB3  2DA3               	goto	l205
  6998  0DB4  2DB5               	goto	l206
  6999  0DB5                     l206:	
  7000  0DB5  0008               	return
  7001  0DB6                     __end_of_ADC_CONFIG:	
  7002  007E                     btemp	set	126	;btemp
  7003  007E                     wtemp0	set	126


Data Sizes:
    Strings     12
    Constant    0
    Data        0
    BSS         22
    Persistent  0
    Stack       0

Auto Spaces:
    Space          Size  Autos    Used
    COMMON           14     14      14
    BANK0            80     75      77
    BANK1            80     10      30
    BANK3            96      0       0
    BANK2            96      0       0

Pointer List with Targets:

    Lcd_Write_String@a	PTR unsigned char  size(2) Largest target is 5
		 -> STR_3(CODE[4]), STR_2(CODE[4]), STR_1(CODE[4]), main@s2(BANK1[5]), 
		 -> main@s1(BANK1[5]), 


Critical Paths under _main in COMMON

    _main->___xxtofl
    _int_stre->___xxtofl
    _int_strd->___xxtofl
    _int_strc->___xxtofl
    ___fltol->___xxtofl
    ___flsub->___xxtofl
    ___flmul->___xxtofl
    ___fldiv->___xxtofl
    _Lcd_Write_String->_Lcd_Write_Char
    _Lcd_Write_Char->_Lcd_Port
    _Lcd_Set_Cursor->_Lcd_Cmd
    _Lcd_Init->_Lcd_Cmd
    _Lcd_Cmd->_Lcd_Port

Critical Paths under _main in BANK0

    _main->_int_strc
    _int_stre->___fltol
    _int_strd->___fltol
    _int_strc->___fltol
    ___fltol->___flmul
    ___flsub->___fladd
    ___flmul->___flsub

Critical Paths under _main in BANK1

    None.

Critical Paths under _main in BANK3

    None.

Critical Paths under _main in BANK2

    None.

Call Graph Tables:

 ---------------------------------------------------------------------------------
 (Depth) Function   	        Calls       Base Space   Used Autos Params    Refs
 ---------------------------------------------------------------------------------
 (0) _main                                                16    16      0   27586
                                             71 BANK0      4     4      0
                                              0 BANK1     10    10      0
                         _ADC_CONFIG
                           _Lcd_Init
                     _Lcd_Set_Cursor
                   _Lcd_Write_String
                            ___fldiv
                           ___xxtofl
                           _int_strc
                           _int_strd
                           _int_stre
 ---------------------------------------------------------------------------------
 (1) _int_stre                                            16    12      4    7901
                                             53 BANK0     16    12      4
                             ___bmul
                            ___flmul
                            ___flsub
                            ___fltol
                           ___xxtofl
                           _num_case
 ---------------------------------------------------------------------------------
 (1) _int_strd                                            16    12      4    7901
                                             53 BANK0     16    12      4
                             ___bmul
                            ___flmul
                            ___flsub
                            ___fltol
                           ___xxtofl
                           _num_case
 ---------------------------------------------------------------------------------
 (2) ___bmul                                               4     3      1     244
                                              0 COMMON     4     3      1
 ---------------------------------------------------------------------------------
 (1) _int_strc                                            18    14      4    7657
                                             53 BANK0     18    14      4
                            ___flmul
                            ___flsub
                            ___fltol
                           ___xxtofl
                           _num_case
 ---------------------------------------------------------------------------------
 (2) _num_case                                             4     4      0      54
                                              0 COMMON     4     4      0
 ---------------------------------------------------------------------------------
 (2) ___xxtofl                                            14    10      4     778
                                              0 COMMON    14    10      4
 ---------------------------------------------------------------------------------
 (2) ___fltol                                             11     7      4     761
                                             42 BANK0     11     7      4
                            ___flmul (ARG)
                            ___flsub (ARG)
                           ___xxtofl (ARG)
 ---------------------------------------------------------------------------------
 (2) ___flsub                                              8     0      8    2789
                                              8 BANK0      8     0      8
                            ___fladd
                           ___xxtofl (ARG)
 ---------------------------------------------------------------------------------
 (3) ___fladd                                             20    12      8    2136
                                              0 COMMON    12     4      8
                                              0 BANK0      8     8      0
 ---------------------------------------------------------------------------------
 (2) ___flmul                                             26    18      8    2873
                                             16 BANK0     26    18      8
                          __Umul8_16
                            ___flsub (ARG)
                           ___xxtofl (ARG)
 ---------------------------------------------------------------------------------
 (3) __Umul8_16                                            9     7      2     799
                                              0 COMMON     9     7      2
 ---------------------------------------------------------------------------------
 (1) ___fldiv                                             26    18      8    1425
                                              0 BANK0     26    18      8
                           ___xxtofl (ARG)
 ---------------------------------------------------------------------------------
 (1) _Lcd_Write_String                                     7     5      2     668
                                              3 COMMON     7     5      2
                     _Lcd_Write_Char
 ---------------------------------------------------------------------------------
 (2) _Lcd_Write_Char                                       2     2      0     198
                                              1 COMMON     2     2      0
                           _Lcd_Port
 ---------------------------------------------------------------------------------
 (1) _Lcd_Set_Cursor                                       2     1      1     666
                                              4 COMMON     2     1      1
                            _Lcd_Cmd
 ---------------------------------------------------------------------------------
 (1) _Lcd_Init                                             2     2      0     198
                                              4 COMMON     2     2      0
                            _Lcd_Cmd
 ---------------------------------------------------------------------------------
 (2) _Lcd_Cmd                                              3     3      0     198
                                              1 COMMON     3     3      0
                           _Lcd_Port
 ---------------------------------------------------------------------------------
 (3) _Lcd_Port                                             1     1      0     176
                                              0 COMMON     1     1      0
 ---------------------------------------------------------------------------------
 (1) _ADC_CONFIG                                           4     3      1     196
                                              0 COMMON     4     3      1
 ---------------------------------------------------------------------------------
 Estimated maximum stack depth 3
 ---------------------------------------------------------------------------------

 Call Graph Graphs:

 _main (ROOT)
   _ADC_CONFIG
   _Lcd_Init
     _Lcd_Cmd
       _Lcd_Port
   _Lcd_Set_Cursor
     _Lcd_Cmd
       _Lcd_Port
   _Lcd_Write_String
     _Lcd_Write_Char
       _Lcd_Port
   ___fldiv
     ___xxtofl (ARG)
   ___xxtofl
   _int_strc
     ___flmul
       __Umul8_16
       ___flsub (ARG)
         ___fladd
         ___xxtofl (ARG)
       ___xxtofl (ARG)
     ___flsub
       ___fladd
       ___xxtofl (ARG)
     ___fltol
       ___flmul (ARG)
         __Umul8_16
         ___flsub (ARG)
           ___fladd
           ___xxtofl (ARG)
         ___xxtofl (ARG)
       ___flsub (ARG)
         ___fladd
         ___xxtofl (ARG)
       ___xxtofl (ARG)
     ___xxtofl
     _num_case
   _int_strd
     ___bmul
     ___flmul
       __Umul8_16
       ___flsub (ARG)
         ___fladd
         ___xxtofl (ARG)
       ___xxtofl (ARG)
     ___flsub
       ___fladd
       ___xxtofl (ARG)
     ___fltol
       ___flmul (ARG)
         __Umul8_16
         ___flsub (ARG)
           ___fladd
           ___xxtofl (ARG)
         ___xxtofl (ARG)
       ___flsub (ARG)
         ___fladd
         ___xxtofl (ARG)
       ___xxtofl (ARG)
     ___xxtofl
     _num_case
   _int_stre
     ___bmul
     ___flmul
       __Umul8_16
       ___flsub (ARG)
         ___fladd
         ___xxtofl (ARG)
       ___xxtofl (ARG)
     ___flsub
       ___fladd
       ___xxtofl (ARG)
     ___fltol
       ___flmul (ARG)
         __Umul8_16
         ___flsub (ARG)
           ___fladd
           ___xxtofl (ARG)
         ___xxtofl (ARG)
       ___flsub (ARG)
         ___fladd
         ___xxtofl (ARG)
       ___xxtofl (ARG)
     ___xxtofl
     _num_case

 Address spaces:
Name               Size   Autos  Total    Cost      Usage
BITCOMMON            E      0       0       0        0.0%
EEDATA             100      0       0       0        0.0%
NULL                 0      0       0       0        0.0%
CODE                 0      0       0       0        0.0%
COMMON               E      E       E       1      100.0%
BITSFR0              0      0       0       1        0.0%
SFR0                 0      0       0       1        0.0%
BITSFR1              0      0       0       2        0.0%
SFR1                 0      0       0       2        0.0%
STACK                0      0       0       2        0.0%
ABS                  0      0      79       3        0.0%
BITBANK0            50      0       0       4        0.0%
BITSFR3              0      0       0       4        0.0%
SFR3                 0      0       0       4        0.0%
BANK0               50     4B      4D       5       96.3%
BITSFR2              0      0       0       5        0.0%
SFR2                 0      0       0       5        0.0%
BITBANK1            50      0       0       6        0.0%
BANK1               50      A      1E       7       37.5%
BITBANK3            60      0       0       8        0.0%
BANK3               60      0       0       9        0.0%
BITBANK2            60      0       0      10        0.0%
BANK2               60      0       0      11        0.0%
DATA                 0      0      79      12        0.0%


Microchip Technology PIC Macro Assembler V2.10 build 88905656 
Symbol Table                                                                                   Sat Feb 08 12:40:28 2020

      __size_of_ADC_CONFIG 010B               ___fldiv@aexp 0039               ___fldiv@bexp 0038  
                        pc 0002               ___fldiv@sign 0031             ___bmul@product 0072  
              __CFG_CP$OFF 0000            ADC_CONFIG@canal 0073                         l30 083D  
                       l31 0843                         l32 0844                         l41 0860  
                       l33 084A                         l25 082C                         l34 084B  
                       l26 082F                         l35 0851                         l27 0835  
                       l36 0852                         l28 0836                         l44 0822  
                       l37 0858                         l29 083C                         l53 17B4  
                       l38 0859                         l39 085F                         l56 08E8  
                       l65 08A2                         l59 1798                         fsr 0004  
      __Umul8_16@word_mpld 0076                        l200 0D53                        l201 0D60  
                      l130 0E56                        l203 0DA1                        l205 0DA3  
                      l141 0A62                        l206 0DB5                        l127 0DF3  
                      l144 0CAA                        l138 0B02                        l324 0018  
                      l190 0CD1                        l191 0CDE                        l159 0946  
                      l192 0CEB                        l193 0CF8                        l194 0D05  
                      l195 0D12                        l187 0CB9                        l196 0D1F  
                      l612 03D3                        l604 048D                        l197 0D2C  
                      l189 0CC4                        l198 0D39                        l622 041B  
                      l199 0D46                        l616 03F9                        l633 047F  
                      l625 045B                        l634 048D                        l491 09AD  
                      l731 0B6A                        l484 09C2                        l637 17D8  
                      l725 0B25                        l494 09C2                        l671 01E9  
                      l663 0167                        l647 0075                        l591 0259  
                      l727 0BBC                        l744 17ED                        l649 01F5  
                      l746 17FF                        l738 0B86                        l595 0302  
                      l739 0B92                        l669 01D9                        l693 075A  
                      l597 02D7                        l687 07EE                        l699 07E2  
                      _RA0 0028                        _RA1 0029                        _RA2 002A  
                      _RA3 002B                        _RA4 002C                        _RC0 0038  
                      _RA5 002D                        _RC1 0039                        _RA6 002E  
                      _RA7 002F               __CFG_CPD$OFF 0000                        fsr0 0004  
                      indf 0000           ADC_CONFIG@justif 0070               ___flmul@aexp 0042  
             ___flmul@bexp 0043               ___flmul@sign 003D               ___flmul@temp 0048  
             ___flmul@prod 0044               __CFG_LVP$OFF 0000               ___fltol@exp1 0054  
                     l2000 048C                       l2010 17F6                       l2002 17DA  
                     l2020 080D                       l2012 17FB                       l2004 17DC  
                     l2100 097D                       l2022 0810                       l2030 1788  
                     l2006 17E3                       l2102 0981                       l2110 099B  
                     l2024 0818                       l2016 0804                       l2032 178E  
                     l2008 17E7                       l2200 064E                       l2120 09B7  
                     l2040 08EB                       l2026 081B                       l2018 0807  
                     l2034 1791                       l2210 0706                       l2202 067B  
                     l2130 0495                       l2122 17B5                       l2050 0904  
                     l2042 08F0                       l2036 1795                       l2028 1785  
                     l2220 072B                       l2212 070F                       l2204 068B  
                     l2140 04AA                       l2132 049B                       l2124 17B9  
                     l2116 09A2                       l2108 0989                       l2300 0B94  
                     l2052 0909                       l2044 08F5                       l2230 0743  
                     l2222 0734                       l2214 071D                       l2206 06B8  
                     l2150 04C7                       l2142 04B2                       l2134 049F  
                     l2118 09B2                       l2302 0BAA                       l2054 090E  
                     l2046 08FA                       l2062 091D                       l2038 08EA  
                     l2400 0D49                       l2320 08A3                       l2312 179A  
                     l2240 0772                       l2232 0757                       l2216 0726  
                     l2224 073A                       l2208 06DE                       l2160 04DE  
                     l2152 04CB                       l2144 04B4                       l2136 04A0  
                     l2128 048E                       l2304 0BAF                       l2056 0913  
                     l2048 08FF                       l2064 0945                       l2080 0010  
                     l2072 0005                       l2410 0D69                       l2402 0D4F  
                     l2330 08CA                       l2322 08AC                       l2314 179F  
                     l2250 07AD                       l2242 0776                       l2226 073E  
                     l2218 072A                       l2162 04E0                       l2154 04CC  
                     l2146 04BC                       l2138 04A5                       l2306 0BB3  
                     l2058 0918                       l2082 0017                       l2074 0006  
                     l2404 0D56                       l2332 08D0                       l2324 08B2  
                     l2316 17A7                       l2340 0861                       l2500 003D  
                     l2260 07DA                       l2252 07BC                       l2244 078F  
                     l2236 075F                       l2228 073F                       l2180 0551  
                     l2172 04FB                       l2164 04E8                       l2156 04D1  
                     l2148 04C1                       l2092 095D                       l2308 0BB4  
                     l2076 000A                       l2406 0D5C                       l2414 0D6D  
                     l2350 0CB0                       l2334 08D6                       l2326 08C0  
                     l2318 17AD                       l2342 0864                       l2510 0053  
                     l2502 003E                       l2262 07DB                       l2254 07C6  
                     l2238 0764                       l2246 0795                       l2190 05CE  
                     l2182 057D                       l2174 050B                       l2166 04ED  
                     l2158 04D6                       l2094 0972                       l2086 0947  
                     l2270 0B09                       l2078 000E                       l2430 0A78  
                     l2408 0D63                       l2360 0CC7                       l2352 0CB4  
                     l1800 0848                       l2336 08DC                       l2328 08C4  
                     l2344 0880                       l2600 017F                       l2520 006A  
                     l2512 0057                       l2504 0040                       l2264 07E6  
                     l2256 07C8                       l2248 07A2                       l2192 05EB  
                     l2184 0599                       l2176 0518                       l2168 04F2  
                     l2096 0973                       l2088 0954                       l2280 0B36  
                     l2272 0B0D                       l2440 0AF5                       l2432 0A83  
                     l2370 0CE7                       l2362 0CCD                       l2418 0DA5  
                     l2354 0CB7                       l1802 084F                       l2338 08E2  
                     l2346 0886                       l2610 01BD                       l2602 0183  
                     l2530 008D                       l2522 006B                       l2514 0058  
                     l2506 0048                       l2258 07D6                       l2194 05FB  
                     l2186 05B5                       l2178 0535                       l1810 01FD  
                     l2098 097B                       l2290 0B61                       l2282 0B3B  
                     l2274 0B1D                       l2450 09D8                       l2442 0AF9  
                     l2434 0AD9                       l2380 0D08                       l2372 0CEE  
                     l2364 0CD4                       l2356 0CBC                       l2348 0CAC  
                     l1804 0856                       l2620 01E3                       l2612 01CC  
                     l2604 019C                       l2540 00A4                       l2516 005D  
                     l2524 006D                       l2508 004D                       l2196 0618  
                     l2188 05BE                       l1900 02ED                       l1820 0212  
                     l1812 0203                       l2292 0B71                       l2284 0B48  
                     l2276 0B2D                       l2268 0B04                       l2460 0A55  
                     l2452 09DE                       l2444 0AFF                       l2436 0ADD  
                     l2428 0A63                       l2700 0FA1                       l2390 0D28  
                     l2382 0D0E                       l2374 0CF4                       l2366 0CDA  
                     l2358 0CC0                       l1806 085D                       l2622 01E5  
                     l2614 01D0                       l2606 01A2                       l2550 00D0  
                     l2542 00B6                       l2526 007D                       l2534 0096  
                     l2518 0062                       l2198 0631                       l1902 02F8  
                     l1830 022A                       l1822 021A                       l1814 0207  
                     l2294 0B7C                       l2286 0B4F                       l2470 0BD2  
                     l2462 0A59                       l2454 0A36                       l2438 0AE3  
                     l2702 0FC3                       l2392 0D2F                       l2384 0D15  
                     l2376 0CFB                       l2368 0CE1                       l2616 01D8  
                     l2608 01AF                       l2552 00D5                       l2560 00F5  
                     l2544 00BE                       l2536 009B                       l2528 0089  
                     l1920 033E                       l1912 0314                       l1904 02FC  
                     l1840 023C                       l1832 0230                       l1824 021B  
                     l1816 0208                       l1808 01F6                       l2296 0B80  
                     l2288 0B53                       l2480 0C9E                       l2472 0BD8  
                     l2464 0A5F                       l2456 0A3A                       l2448 09C3  
                     l2704 0FE5                       l2640 0DCD                       l2394 0D35  
                     l2386 0D1B                       l2378 0D01                       l2618 01DF  
                     l2570 0120                       l2562 0107                       l2554 00E7  
                     l2546 00C6                       l2490 0026                       l1922 0340  
                     l1914 032B                       l1906 0306                       l1930 0355  
                     l1842 0241                       l1850 0251                       l1834 0231  
                     l1818 020D                       l1826 021D                       l2298 0B8A  
                     l2482 0CA9                       l2474 0C25                       l2458 0A45  
                     l2706 0FEE                       l2650 0DF0                       l2642 0DD2  
                     l2634 0DB6                       l2396 0D3C                       l2388 0D22  
                     l2580 0138                       l2572 0128                       l2564 0108  
                     l2556 00EB                       l2548 00CE                       l2492 002A  
                     l1932 036B                       l1940 03C5                       l1924 0344  
                     l1916 032F                       l1908 030B                       l1860 026F  
                     l1852 025F                       l1844 0246                       l1836 0237  
                     l1828 0225                       l2476 0C38                       l2468 0BBD  
                     l2660 0E4C                       l2652 0DF7                       l2644 0DDB  
                     l2636 0DBF                       l2398 0D42                       l1790 0824  
                     l2590 0150                       l2582 0141                       l2574 012A  
                     l2566 0116                       l2558 00EC                       l2494 002B  
                     l2486 0019                       l1950 03F4                       l1942 03DB  
                     l1934 03AB                       l1926 0345                       l1918 0333  
                     l1870 0283                       l1862 0273                       l1854 0263  
                     l1846 024E                       l1838 023B                       l2478 0C8B  
                     l2670 0EAB                       l2662 0E53                       l2654 0DFD  
                     l2646 0DE3                       l2638 0DC6                       l1792 0828  
                     l2592 0164                       l2576 0133                       l2584 0147  
                     l2568 011A                       l2496 0030                       l2488 0020  
                     l1960 0407                       l1952 03F8                       l1944 03E0  
                     l1936 03B1                       l1928 0350                       l1880 0297  
                     l1872 0287                       l1864 0277                       l1856 0267  
                     l1848 024F                       l2680 0EDF                       l2672 0EB5  
                     l2664 0E5A                       l2656 0E45                       l2648 0DE9  
                     l2770 0D75                       l1794 0833                       l2586 014B  
                     l2578 0137                       l2498 0035                       l1970 0418  
                     l1954 03FD                       l1962 0409                       l1938 03B6  
                     l1890 02BB                       l1882 029B                       l1874 028B  
                     l1866 027B                       l1858 026B                       l2690 0F3E  
                     l2682 0EE8                       l2674 0EBE                       l2666 0E60  
                     l2658 0E48                       l2772 0DAD                       l1796 083A  
                     l2596 016C                       l2588 014C                       l1980 0437  
                     l1956 0400                       l1948 03E9                       l1964 040D  
                     l1892 02DB                       l1884 029F                       l1876 028F  
                     l1868 027F                       l2692 0F60                       l2684 0EF0  
                     l2676 0ECA                       l2668 0EA8                       l1798 0841  
                     l2598 0171                       l1990 0472                       l1982 0457  
                     l1974 0420                       l1966 040E                       l1958 0402  
                     l1894 02E6                       l1878 0293                       l1886 02A3  
                     l2694 0F69                       l2686 0F14                       l2678 0ED3  
                     l1992 0473                       l1984 0460                       l1976 0425  
                     l1968 0412                       l1896 02E8                       l1888 02A4  
                     l2768 0925                       l2696 0F75                       l2688 0F1C  
                     l1994 0477                       l1986 0465                       l1978 0433  
                     l1898 02EC                       l2698 0F99                       l1996 0479  
                     l1988 046D                       l1998 0488                       STR_1 1010  
                     STR_2 1014                       STR_3 1018                       u2000 040D  
                     u2001 040C                       u2010 0412                       u2011 0411  
                     u2100 0472                       u2020 0418                       u2101 0471  
                     u2021 0417                       u2110 0477                       u2030 041F  
                     u2111 0476                       u2031 041E                       u2120 048C  
                     u2040 0425                       u2200 0981                       u2121 048B  
                     u2041 0424                       u2201 0980                       u3010 0137  
                     u2130 17E7                       u2050 0437                       u2210 0988  
                     u3011 0136                       u2131 17E6                       u2051 0436  
                     u2211 0987                       u3100 01AF                       u2300 04AA  
                     u2060 0448                       u3101 01AE                       u3005 012C  
                     u2301 04A9                       u3110 01CC                       u3030 014B  
                     u2150 17FB                       u2310 04CB                       u2070 0457  
                     u2230 099A                       u3111 01CB                       u3031 014A  
                     u2151 17FA                       u2311 04CA                       u2071 0456  
                     u2231 0999                       u1600 0833                       u3120 01E3  
                     u3040 0150                       u2320 04D1                       u2080 0460  
                     u2240 09A1                       u2160 000A                       u1601 0832  
                     u3121 01E2                       u3105 01AB                       u3041 014F  
                     u3025 013A                       u2145 17EE                       u2321 04D0  
                     u2081 045F                       u2065 0443                       u2241 09A0  
                     u2225 098A                       u2161 0009                       u1610 083A  
                     u3050 0164                       u2330 04D6                       u2090 0465  
                     u2170 0017                       u3130 0DD6                       u1611 0839  
                     u3115 01C8                       u3051 0163                       u2411 05DD  
                     u2331 04D5                       u2091 0464                       u2171 0016  
                     u1620 0841                       u3060 016B                       u2412 05E4  
                     u2340 04ED                       u1700 0230                       u2260 09B2  
                     u2180 0954                       u3140 0DDF                       u1621 0840  
                     u3061 016A                       u2501 06F8                       u2421 060A  
                     u2413 05EB                       u2405 05B7                       u2341 04EC  
                     u1701 022F                       u2261 09B1                       u2181 0953  
                     u1630 0848                       u3070 0171                       u2502 06FF  
                     u2422 0611                       u2350 04F2                       u1710 023B  
                     u2270 09B7                       u2190 096B                       u3150 0DF7  
                     u1631 0847                       u3207 1793                       u3071 0170  
                     u2503 0706                       u2423 0618                       u2351 04F1  
                     u1711 023A                       u2271 09B6                       u2255 09A4  
                     u3151 0DF6                       u1640 084F                       u3080 0183  
                     u2600 0776                       u2280 049F                       u1800 02EC  
                     u1720 0241                       u3160 0E5A                       u1641 084E  
                     u3217 08A7                       u3081 0182                       u2601 0775  
                     u2441 0640                       u2361 0543                       u2281 049E  
                     u1801 02EB                       u1721 0240                       u3161 0E59  
                     u1650 0856                       u3090 0192                       u2610 0785  
                     u2530 072A                       u2442 0647                       u2362 054A  
                     u2290 04A5                       u1730 0246                       u1651 0855  
                     u3227 08B6                       u2531 0729                       u2515 0708  
                     u2451 066D                       u2443 064E                       u2435 061A  
                     u2371 055F                       u2363 0551                       u2291 04A4  
                     u1731 0245                       u2195 0966                       u1660 085D  
                     u2620 07A2                       u2452 0674                       u2372 0566  
                     u1900 036B                       u1820 0302                       u1740 025F  
                     u1661 085C                       u3237 08C2                       u2621 07A1  
                     u2525 071F                       u2461 069A                       u2453 067B  
                     u2381 058B                       u2373 056D                       u1901 036A  
                     u1821 0301                       u1741 025E                       u1590 0828  
                     u2630 07BC                       u2550 073E                       u2470 06C4  
                     u2462 06A1                       u2382 0592                       u1830 0306  
                     u1750 0263                       u1670 0207                       u2710 0B70  
                     u1591 0827                       u3247 0814                       u3095 018D  
                     u2631 07BB                       u2615 0780                       u2551 073D  
                     u2463 06A8                       u2391 05A7                       u2383 0599  
                     u1911 0384                       u1903 0367                       u1831 0305  
                     u1815 02F1                       u1751 0262                       u1671 0206  
                     u2711 0B6F                       u2800 17AD                       u2640 07DA  
                     u2560 0743                       u2392 05AE                       u1920 0398  
                     u1912 0385                       u1840 030B                       u1760 02BB  
                     u1680 020D                       u3257 081D                       u2801 17AC  
                     u2641 07D9                       u2625 079E                       u2561 0742  
                     u2545 072D                       u2481 06D0                       u2393 05B5  
                     u1921 0399                       u1913 038A                       u1841 030A  
                     u1761 02BA                       u1681 020C                       u2705 0B62  
                     u3177 0DED                       u2810 086E                       u2570 0757  
                     u2490 06EC                       u2482 06D7                       u1930 03B6  
                     u1922 039E                       u1914 038B                       u1770 02C4  
                     u1690 0212                       u2730 0B80                       u2650 0B09  
                     u2635 07B8                       u2571 0756                       u2483 06DE  
                     u2475 06BF                       u1931 03B5                       u1923 039F  
                     u1915 0390                       u1851 031D                       u1771 02C2  
                     u1691 0211                       u2731 0B7F                       u2651 0B08  
                     u3187 0E50                       u2820 0890                       u2900 007D  
                     u2580 075E                       u1940 03DB                       u1916 0391  
                     u1860 032F                       u1852 0324                       u1780 02C5  
                     u2740 0B86                       u2660 0B0D                       u2901 007C  
                     u2581 075D                       u1941 03DA                       u1861 032E  
                     u1853 032B                       u1765 02B7                       u2741 0B85  
                     u2725 0B75                       u2661 0B0C                       u3197 0FF6  
                     u2830 08A2                       u2910 009B                       u2590 0764  
                     u1950 03E0                       u1870 0333                       u1790 02DB  
                     u2750 0B8A                       u2670 0B2D                       u2831 08A1  
                     u2911 009A                       u2591 0763                       u2495 06E7  
                     u1951 03DF                       u1871 0332                       u1791 02DA  
                     u2751 0B89                       u2671 0B2C                       u2920 00D5  
                     u2840 002A                       u1880 0344                       u2760 0B9F  
                     u2921 00D4                       u2841 0029                       u1881 0343  
                     u2850 0030                       u1970 03F8                       u2770 0BAF  
                     u2690 0B4E                       u2851 002F                       u1971 03F7  
                     u2771 0BAE                       u2691 0B4D                       u2860 0035  
                     u1980 03FD                       u2780 0BB3                       u2861 0034  
                     u1981 03FC                       u1965 03ED                       u2781 0BB2  
                     u2765 0B9A                       u2685 0B40                       u2790 179F  
                     u2950 00EB                       u2870 0057                       u1990 0407  
                     u2791 179E                       u2951 00EA                       u2935 00D7  
                     u2871 0056                       u1991 0406                       u1895 0349  
                     u2880 005D                       u2945 00E0                       u2881 005C  
                     u2970 0107                       u2890 0062                       u2971 0106  
                     u2891 0061                       u2980 0120                       u2981 011F  
                     u2965 00EE                       u2990 0128                       u2991 0127  
                     u2975 0103               __CFG_WRT$OFF 0000                       _adc1 00B3  
                     _adc2 00B2          ?_Lcd_Write_String 0073                       _main 0DB6  
                     _ctrl 006C                       btemp 007E                       start 0000  
       ??_Lcd_Write_String 0075              __CFG_IESO$OFF 0000            ___fldiv@new_exp 0032  
          __end_of_Lcd_Cmd 0823          ___bmul@multiplier 0073              ___fltol@sign1 0053  
          __end_of___fladd 048E                      ?_main 0070            __end_of___fldiv 01F6  
            __CFG_WDTE$OFF 0000            __end_of___flmul 07EF            __end_of___flsub 17D9  
          __end_of___fltol 09C3                      _ANSEL 0188    __size_of_Lcd_Set_Cursor 001C  
                    _TRISA 0085                      _TRISB 0086                      _TRISC 0087  
           __CFG_FCMEN$OFF 0000                      _adc11 00AE                      _adc22 00AA  
                    _ctrl2 006B             __CFG_BOREN$OFF 0000                      pclath 000A  
                    status 0003                      wtemp0 007E           __end_of_Lcd_Init 08E9  
         __end_of_Lcd_Port 0861             __CFG_MCLRE$OFF 0000            __initialization 07EF  
             __end_of_main 1000                     ??_main 0067               ??_ADC_CONFIG 0071  
                   _ADRESH 001E                     _ADRESL 009E                     _ANSELH 0189  
                ??_Lcd_Cmd 0071    __size_of_Lcd_Write_Char 0015           __end_of___xxtofl 0BBD  
           __CFG_PWRTE$OFF 0000                     ___bmul 0004                  ??___fladd 0020  
       __end_of_ADC_CONFIG 0DB6                  ??___fldiv 0028                  ??___flmul 0038  
                ??___flsub 007E                  ??___fltol 004E           __end_of_int_strc 0CAB  
         __end_of_int_strd 0A63           __end_of_int_stre 0B03                     main@s1 00B4  
                   main@s2 00B9           __end_of_num_case 0947         __size_of__Umul8_16 0027  
          Lcd_Set_Cursor@a 0075            Lcd_Set_Cursor@b 0074               ___xxtofl@arg 007A  
             ___xxtofl@exp 0079               ___xxtofl@val 0070    __end_of__initialization 07FC  
               ___fltol@f1 004A        ___bmul@multiplicand 0070             __pcstackCOMMON 0070  
           _Lcd_Set_Cursor 1799                  ?_Lcd_Init 0070                  ?_Lcd_Port 0070  
               __pbssBANK0 006B                 __pbssBANK1 00A0          __end_of__Umul8_16 1800  
               __pmaintext 0DB6                    ?___bmul 0070  __size_of_Lcd_Write_String 0042  
   __end_of_Lcd_Set_Cursor 17B5                  ?___xxtofl 0070                 ??_Lcd_Init 0074  
               ??_Lcd_Port 0070                 __stringtab 1000             _Lcd_Write_Char 1784  
                  _Lcd_Cmd 0803                  ?_int_strc 0055                  ?_int_strd 0055  
                ?_int_stre 0055                  ?_num_case 0070            __size_of___bmul 0015  
                  ___fladd 01F6                    ___fldiv 0019                    ___flmul 048E  
                  ___flsub 17B5                    ___fltol 0947                  _ANSELbits 0188  
          ?_Lcd_Set_Cursor 0074                    __ptext1 0A63                    __ptext2 09C3  
                  __ptext3 0004                    __ptext4 0BBD                    __ptext5 08E9  
                  __ptext6 0B03                    __ptext7 0947                    __ptext8 17B5  
                  __ptext9 01F6                 ??___xxtofl 0074                    clrloop0 177D  
   __end_of_Lcd_Write_Char 1799       end_of_initialization 07FC                num_case@num 0072  
               ??_int_strc 0059                 ??_int_strd 0059                 ??_int_stre 0059  
               ??_num_case 0070                  Lcd_Port@a 0070                ___fladd@grs 007B  
            ___xxtofl@sign 0078                  _TRISAbits 0085                  _TRISBbits 0086  
                _TRISEbits 0089                ___fldiv@grs 0034                ___fldiv@rem 002D  
          ?_Lcd_Write_Char 0070          Lcd_Write_String@a 0073          Lcd_Write_String@i 0078  
              ___flmul@grs 003E             __end_of___bmul 0019           _Lcd_Write_String 0861  
             int_strc@loca 0063               int_strd@loca 0064               int_stre@loca 0064  
      start_initialization 07EF          __size_of_Lcd_Init 0046          __size_of_Lcd_Port 003E  
 __CFG_FOSC$INTRC_NOCLKOUT 0000                   ??___bmul 0071                  __Umul8_16 17D9  
          Lcd_Write_Char@a 0072                  ___fladd@a 0074                  ___fladd@b 0070  
                ___fldiv@a 0020                  ___fldiv@b 0024                  ___flmul@a 0034  
                ___flmul@b 0030                  ___flsub@a 0028                  ___flsub@b 002C  
                ___latbits 0002              __pcstackBANK0 0020              __pcstackBANK1 00B4  
               int_strc@c3 0060                 int_strd@c2 0061                 int_stre@c1 0061  
        __size_of___xxtofl 00BA                   ?_Lcd_Cmd 0070          __size_of_int_strc 00EE  
        __size_of_int_strd 00A0          __size_of_int_stre 00A0           ??_Lcd_Set_Cursor 0075  
                 ?___fladd 0070                   ?___fldiv 0020                   ?___flmul 0030  
                 ?___flsub 0028                   ?___fltol 004A                 ?__Umul8_16 0070  
        __size_of_num_case 005E                  __pstrings 1000                  clear_ram0 177C  
                 _PIE1bits 008C                   Lcd_Cmd@a 0073                   _PIR1bits 000C  
                main@F1511 00A0                  main@F1509 00A5                 _ADCON0bits 001F  
              __stringbase 100F                 _ADCON1bits 009F           ??_Lcd_Write_Char 0071  
               _ADC_CONFIG 0CAB                   _Lcd_Init 08A3                   _Lcd_Port 0823  
 __end_of_Lcd_Write_String 08A3           __size_of_Lcd_Cmd 0020                ??__Umul8_16 0072  
         __size_of___fladd 0298           __size_of___fldiv 01DD           __size_of___flmul 0361  
         __size_of___flsub 0024           __size_of___fltol 007C         __end_of__stringtab 1010  
                int_strc@c 005F                  int_strc@d 0062                  int_strc@e 0061  
                int_strd@c 0060                  int_strd@d 0063                  int_strd@e 0062  
                int_stre@c 0060                  int_stre@d 0063                  int_stre@e 0062  
                int_strc@n 0055                  int_strd@n 0055                  int_stre@n 0055  
               _ANSELHbits 0189                   ___xxtofl 0B03                   __ptext10 048E  
                 __ptext11 17D9                   __ptext12 0019                   __ptext13 0861  
                 __ptext14 1784                   __ptext15 1799                   __ptext16 08A3  
                 __ptext17 0803                   __ptext18 0823                   __ptext19 0CAB  
        __CFG_BOR4V$BOR40V 0000              __size_of_main 024A                   _int_strc 0BBD  
                 _int_strd 09C3                   _int_stre 0A63                  num_case@r 0073  
                 _num_case 08E9                 _INTCONbits 000B                ?_ADC_CONFIG 0070  
                stringcode 100A     __Umul8_16@multiplicand 0070                   stringdir 100A  
                 stringtab 1000              ___fladd@signs 0078               ___fladd@aexp 0079  
             ___fladd@bexp 007A       __Umul8_16@multiplier 0078          __Umul8_16@product 0074  
